   1              		.file	"cpp_vector_double_practice.cpp"
   2              		.text
   3              	.Ltext0:
   4              		.section	.rodata
   7              	_ZStL19piecewise_construct:
   8 0000 00       		.zero	1
   9              		.local	_ZStL8__ioinit
  10              		.comm	_ZStL8__ioinit,1,1
  11              	.LC0:
  12 0001 7E20526F 		.string	"~ RowVector()"
  12      77566563 
  12      746F7228 
  12      2900
  13              		.section	.text._ZN9RowVectorD2Ev,"axG",@progbits,_ZN9RowVectorD5Ev,comdat
  14              		.align 2
  15              		.weak	_ZN9RowVectorD2Ev
  17              	_ZN9RowVectorD2Ev:
  18              	.LFB1842:
  19              		.file 1 "cpp_vector_double_practice.cpp"
   1:cpp_vector_double_practice.cpp **** // Begin cpp_vector_double_practice.cpp
   2:cpp_vector_double_practice.cpp **** 
   3:cpp_vector_double_practice.cpp **** #include <cassert>
   4:cpp_vector_double_practice.cpp **** #include <cstdint>
   5:cpp_vector_double_practice.cpp **** #include <exception>
   6:cpp_vector_double_practice.cpp **** #include <iostream>
   7:cpp_vector_double_practice.cpp **** #include <string>
   8:cpp_vector_double_practice.cpp **** #include <vector>
   9:cpp_vector_double_practice.cpp **** 
  10:cpp_vector_double_practice.cpp **** #define LOG
  11:cpp_vector_double_practice.cpp **** 
  12:cpp_vector_double_practice.cpp **** class RowVector 
  13:cpp_vector_double_practice.cpp **** {
  14:cpp_vector_double_practice.cpp ****     // automatic allocation
  15:cpp_vector_double_practice.cpp ****     // https://stackoverflow.com/questions/8553464/vector-as-a-class-member
  16:cpp_vector_double_practice.cpp ****     std::vector<double> columns;
  17:cpp_vector_double_practice.cpp **** 
  18:cpp_vector_double_practice.cpp ****     protected:
  19:cpp_vector_double_practice.cpp ****         std::string name;
  20:cpp_vector_double_practice.cpp **** 
  21:cpp_vector_double_practice.cpp ****     public:
  22:cpp_vector_double_practice.cpp ****         // Default constructor
  23:cpp_vector_double_practice.cpp **** 		RowVector(){
  24:cpp_vector_double_practice.cpp **** #ifdef LOG
  25:cpp_vector_double_practice.cpp ****             std::cout << '[' << &columns << ']' << "RowVector()" << '\n';
  26:cpp_vector_double_practice.cpp **** #endif
  27:cpp_vector_double_practice.cpp ****             name = "None";
  28:cpp_vector_double_practice.cpp **** 		}
  29:cpp_vector_double_practice.cpp **** 
  30:cpp_vector_double_practice.cpp ****         ~ RowVector(){
  20              		.loc 1 30 0
  21              		.cfi_startproc
  22              		.cfi_personality 0x9b,DW.ref.__gxx_personality_v0
  23              		.cfi_lsda 0x1b,.LLSDA1842
  24 0000 55       		pushq	%rbp
  25              		.cfi_def_cfa_offset 16
  26              		.cfi_offset 6, -16
  27 0001 4889E5   		movq	%rsp, %rbp
  28              		.cfi_def_cfa_register 6
  29 0004 4883EC10 		subq	$16, %rsp
  30 0008 48897DF8 		movq	%rdi, -8(%rbp)
  31              	.LBB2:
  31:cpp_vector_double_practice.cpp **** #ifdef LOG
  32:cpp_vector_double_practice.cpp ****             std::cout << '[' << &columns << ']' << "~ RowVector()" << '\n';
  32              		.loc 1 32 0
  33 000c BE5B0000 		movl	$91, %esi
  33      00
  34 0011 488D3D00 		leaq	_ZSt4cout(%rip), %rdi
  34      000000
  35 0018 E8000000 		call	_ZStlsISt11char_traitsIcEERSt13basic_ostreamIcT_ES5_c@PLT
  35      00
  36 001d 4889C2   		movq	%rax, %rdx
  37 0020 488B45F8 		movq	-8(%rbp), %rax
  38 0024 4889C6   		movq	%rax, %rsi
  39 0027 4889D7   		movq	%rdx, %rdi
  40 002a E8000000 		call	_ZNSolsEPKv@PLT
  40      00
  41 002f BE5D0000 		movl	$93, %esi
  41      00
  42 0034 4889C7   		movq	%rax, %rdi
  43 0037 E8000000 		call	_ZStlsISt11char_traitsIcEERSt13basic_ostreamIcT_ES5_c@PLT
  43      00
  44 003c 488D3500 		leaq	.LC0(%rip), %rsi
  44      000000
  45 0043 4889C7   		movq	%rax, %rdi
  46 0046 E8000000 		call	_ZStlsISt11char_traitsIcEERSt13basic_ostreamIcT_ES5_PKc@PLT
  46      00
  47 004b BE0A0000 		movl	$10, %esi
  47      00
  48 0050 4889C7   		movq	%rax, %rdi
  49 0053 E8000000 		call	_ZStlsISt11char_traitsIcEERSt13basic_ostreamIcT_ES5_c@PLT
  49      00
  30:cpp_vector_double_practice.cpp **** #ifdef LOG
  50              		.loc 1 30 0
  51 0058 488B45F8 		movq	-8(%rbp), %rax
  52 005c 4883C018 		addq	$24, %rax
  53 0060 4889C7   		movq	%rax, %rdi
  54 0063 E8000000 		call	_ZNSt7__cxx1112basic_stringIcSt11char_traitsIcESaIcEED1Ev@PLT
  54      00
  55 0068 488B45F8 		movq	-8(%rbp), %rax
  56 006c 4889C7   		movq	%rax, %rdi
  57 006f E8000000 		call	_ZNSt6vectorIdSaIdEED1Ev
  57      00
  58              	.LBE2:
  33:cpp_vector_double_practice.cpp **** #endif
  34:cpp_vector_double_practice.cpp ****         }
  59              		.loc 1 34 0
  60 0074 90       		nop
  61 0075 C9       		leave
  62              		.cfi_def_cfa 7, 8
  63 0076 C3       		ret
  64              		.cfi_endproc
  65              	.LFE1842:
  66              		.globl	__gxx_personality_v0
  67              		.section	.gcc_except_table._ZN9RowVectorD2Ev,"aG",@progbits,_ZN9RowVectorD5Ev,comdat
  68              	.LLSDA1842:
  69 0000 FF       		.byte	0xff
  70 0001 FF       		.byte	0xff
  71 0002 01       		.byte	0x1
  72 0003 00       		.uleb128 .LLSDACSE1842-.LLSDACSB1842
  73              	.LLSDACSB1842:
  74              	.LLSDACSE1842:
  75              		.section	.text._ZN9RowVectorD2Ev,"axG",@progbits,_ZN9RowVectorD5Ev,comdat
  77              		.weak	_ZN9RowVectorD1Ev
  78              		.set	_ZN9RowVectorD1Ev,_ZN9RowVectorD2Ev
  79              		.section	.rodata
  80              	.LC1:
  81 000f 526F7756 		.string	"RowVector("
  81      6563746F 
  81      722800
  82              	.LC2:
  83 001a 2C2000   		.string	", "
  84              	.LC3:
  85 001d 290A00   		.string	")\n"
  86              		.section	.text._ZN9RowVectorC2EjPKdPKc,"axG",@progbits,_ZN9RowVectorC5EjPKdPKc,comdat
  87              		.align 2
  88              		.weak	_ZN9RowVectorC2EjPKdPKc
  90              	_ZN9RowVectorC2EjPKdPKc:
  91              	.LFB1845:
  35:cpp_vector_double_practice.cpp **** 
  36:cpp_vector_double_practice.cpp ****         // Default arguments
  37:cpp_vector_double_practice.cpp ****         // If the function could not find the argument in the call, it uses the default value.
  38:cpp_vector_double_practice.cpp ****         RowVector(const uint32_t n, const double *values=NULL, const char *new_name="None"){
  92              		.loc 1 38 0
  93              		.cfi_startproc
  94              		.cfi_personality 0x9b,DW.ref.__gxx_personality_v0
  95              		.cfi_lsda 0x1b,.LLSDA1845
  96 0000 55       		pushq	%rbp
  97              		.cfi_def_cfa_offset 16
  98              		.cfi_offset 6, -16
  99 0001 4889E5   		movq	%rsp, %rbp
 100              		.cfi_def_cfa_register 6
 101 0004 53       		pushq	%rbx
 102 0005 4883EC38 		subq	$56, %rsp
 103              		.cfi_offset 3, -24
 104 0009 48897DD8 		movq	%rdi, -40(%rbp)
 105 000d 8975D4   		movl	%esi, -44(%rbp)
 106 0010 488955C8 		movq	%rdx, -56(%rbp)
 107 0014 48894DC0 		movq	%rcx, -64(%rbp)
 108              	.LBB3:
 109              		.loc 1 38 0
 110 0018 488B45D8 		movq	-40(%rbp), %rax
 111 001c 4889C7   		movq	%rax, %rdi
 112 001f E8000000 		call	_ZNSt6vectorIdSaIdEEC1Ev
 112      00
 113 0024 488B45D8 		movq	-40(%rbp), %rax
 114 0028 4883C018 		addq	$24, %rax
 115 002c 4889C7   		movq	%rax, %rdi
 116 002f E8000000 		call	_ZNSt7__cxx1112basic_stringIcSt11char_traitsIcESaIcEEC1Ev@PLT
 116      00
 117              	.LBB4:
  39:cpp_vector_double_practice.cpp **** #ifdef LOG
  40:cpp_vector_double_practice.cpp ****             std::cout << '[' << &columns << ']' 
 118              		.loc 1 40 0
 119 0034 BE5B0000 		movl	$91, %esi
 119      00
 120 0039 488D3D00 		leaq	_ZSt4cout(%rip), %rdi
 120      000000
 121              	.LEHB0:
 122 0040 E8000000 		call	_ZStlsISt11char_traitsIcEERSt13basic_ostreamIcT_ES5_c@PLT
 122      00
 123 0045 4889C2   		movq	%rax, %rdx
 124 0048 488B45D8 		movq	-40(%rbp), %rax
 125 004c 4889C6   		movq	%rax, %rsi
 126 004f 4889D7   		movq	%rdx, %rdi
 127 0052 E8000000 		call	_ZNSolsEPKv@PLT
 127      00
  41:cpp_vector_double_practice.cpp ****             << "RowVector(" << n << ", " << values << ", " << new_name << ")\n";
 128              		.loc 1 41 0 discriminator 1
 129 0057 BE5D0000 		movl	$93, %esi
 129      00
 130 005c 4889C7   		movq	%rax, %rdi
 131 005f E8000000 		call	_ZStlsISt11char_traitsIcEERSt13basic_ostreamIcT_ES5_c@PLT
 131      00
 132              		.loc 1 41 0 is_stmt 0 discriminator 2
 133 0064 488D3500 		leaq	.LC1(%rip), %rsi
 133      000000
 134 006b 4889C7   		movq	%rax, %rdi
 135 006e E8000000 		call	_ZStlsISt11char_traitsIcEERSt13basic_ostreamIcT_ES5_PKc@PLT
 135      00
 136              		.loc 1 41 0 discriminator 1
 137 0073 4889C2   		movq	%rax, %rdx
 138 0076 8B45D4   		movl	-44(%rbp), %eax
 139 0079 89C6     		movl	%eax, %esi
 140 007b 4889D7   		movq	%rdx, %rdi
 141 007e E8000000 		call	_ZNSolsEj@PLT
 141      00
 142              		.loc 1 41 0 discriminator 2
 143 0083 488D3500 		leaq	.LC2(%rip), %rsi
 143      000000
 144 008a 4889C7   		movq	%rax, %rdi
 145 008d E8000000 		call	_ZStlsISt11char_traitsIcEERSt13basic_ostreamIcT_ES5_PKc@PLT
 145      00
 146              		.loc 1 41 0 discriminator 3
 147 0092 4889C2   		movq	%rax, %rdx
 148 0095 488B45C8 		movq	-56(%rbp), %rax
 149 0099 4889C6   		movq	%rax, %rsi
 150 009c 4889D7   		movq	%rdx, %rdi
 151 009f E8000000 		call	_ZNSolsEPKv@PLT
 151      00
 152              		.loc 1 41 0 discriminator 4
 153 00a4 488D3500 		leaq	.LC2(%rip), %rsi
 153      000000
 154 00ab 4889C7   		movq	%rax, %rdi
 155 00ae E8000000 		call	_ZStlsISt11char_traitsIcEERSt13basic_ostreamIcT_ES5_PKc@PLT
 155      00
 156              		.loc 1 41 0 discriminator 5
 157 00b3 4889C2   		movq	%rax, %rdx
 158 00b6 488B45C0 		movq	-64(%rbp), %rax
 159 00ba 4889C6   		movq	%rax, %rsi
 160 00bd 4889D7   		movq	%rdx, %rdi
 161 00c0 E8000000 		call	_ZStlsISt11char_traitsIcEERSt13basic_ostreamIcT_ES5_PKc@PLT
 161      00
 162              		.loc 1 41 0 discriminator 6
 163 00c5 488D3500 		leaq	.LC3(%rip), %rsi
 163      000000
 164 00cc 4889C7   		movq	%rax, %rdi
 165 00cf E8000000 		call	_ZStlsISt11char_traitsIcEERSt13basic_ostreamIcT_ES5_PKc@PLT
 165      00
  42:cpp_vector_double_practice.cpp **** #endif
  43:cpp_vector_double_practice.cpp ****             columns.resize(n);
 166              		.loc 1 43 0 is_stmt 1
 167 00d4 488B45D8 		movq	-40(%rbp), %rax
 168 00d8 8B55D4   		movl	-44(%rbp), %edx
 169 00db 4889D6   		movq	%rdx, %rsi
 170 00de 4889C7   		movq	%rax, %rdi
 171 00e1 E8000000 		call	_ZNSt6vectorIdSaIdEE6resizeEm
 171      00
 172              	.LBB5:
  44:cpp_vector_double_practice.cpp **** 
  45:cpp_vector_double_practice.cpp ****             // If initial values available, copy
  46:cpp_vector_double_practice.cpp ****             if (values){
 173              		.loc 1 46 0
 174 00e6 48837DC8 		cmpq	$0, -56(%rbp)
 174      00
 175 00eb 7456     		je	.L3
 176              	.LBB6:
 177              	.LBB7:
  47:cpp_vector_double_practice.cpp ****                 for (uint32_t i = 0; columns.size() > i; ++i){
 178              		.loc 1 47 0
 179 00ed C745E800 		movl	$0, -24(%rbp)
 179      000000
 180              	.L5:
 181              		.loc 1 47 0 is_stmt 0 discriminator 3
 182 00f4 488B45D8 		movq	-40(%rbp), %rax
 183 00f8 4889C7   		movq	%rax, %rdi
 184 00fb E8000000 		call	_ZNKSt6vectorIdSaIdEE4sizeEv
 184      00
 185 0100 4889C2   		movq	%rax, %rdx
 186 0103 8B45E8   		movl	-24(%rbp), %eax
 187 0106 4839C2   		cmpq	%rax, %rdx
 188 0109 0F97C0   		seta	%al
 189 010c 84C0     		testb	%al, %al
 190 010e 7476     		je	.L6
  48:cpp_vector_double_practice.cpp ****                     columns[i] = values[i];
 191              		.loc 1 48 0 is_stmt 1 discriminator 2
 192 0110 8B45E8   		movl	-24(%rbp), %eax
 193 0113 488D14C5 		leaq	0(,%rax,8), %rdx
 193      00000000 
 194 011b 488B45C8 		movq	-56(%rbp), %rax
 195 011f 488D1C02 		leaq	(%rdx,%rax), %rbx
 196 0123 8B55E8   		movl	-24(%rbp), %edx
 197 0126 488B45D8 		movq	-40(%rbp), %rax
 198 012a 4889D6   		movq	%rdx, %rsi
 199 012d 4889C7   		movq	%rax, %rdi
 200 0130 E8000000 		call	_ZNSt6vectorIdSaIdEEixEm
 200      00
 201 0135 F20F1003 		movsd	(%rbx), %xmm0
 202 0139 F20F1100 		movsd	%xmm0, (%rax)
  47:cpp_vector_double_practice.cpp ****                 for (uint32_t i = 0; columns.size() > i; ++i){
 203              		.loc 1 47 0 discriminator 2
 204 013d 8345E801 		addl	$1, -24(%rbp)
 205 0141 EBB1     		jmp	.L5
 206              	.L3:
 207              	.LBE7:
 208              	.LBE6:
 209              	.LBB8:
 210              	.LBB9:
  49:cpp_vector_double_practice.cpp ****                 }
  50:cpp_vector_double_practice.cpp ****             }
  51:cpp_vector_double_practice.cpp ****             // If no initial values, set all values zero
  52:cpp_vector_double_practice.cpp ****             else{
  53:cpp_vector_double_practice.cpp ****                 for (uint32_t i = 0; columns.size() > i; ++i){
 211              		.loc 1 53 0
 212 0143 C745EC00 		movl	$0, -20(%rbp)
 212      000000
 213              	.L7:
 214              		.loc 1 53 0 is_stmt 0 discriminator 3
 215 014a 488B45D8 		movq	-40(%rbp), %rax
 216 014e 4889C7   		movq	%rax, %rdi
 217 0151 E8000000 		call	_ZNKSt6vectorIdSaIdEE4sizeEv
 217      00
 218 0156 4889C2   		movq	%rax, %rdx
 219 0159 8B45EC   		movl	-20(%rbp), %eax
 220 015c 4839C2   		cmpq	%rax, %rdx
 221 015f 0F97C0   		seta	%al
 222 0162 84C0     		testb	%al, %al
 223 0164 7420     		je	.L6
  54:cpp_vector_double_practice.cpp ****                     columns[i] = 0.0;
 224              		.loc 1 54 0 is_stmt 1 discriminator 2
 225 0166 8B55EC   		movl	-20(%rbp), %edx
 226 0169 488B45D8 		movq	-40(%rbp), %rax
 227 016d 4889D6   		movq	%rdx, %rsi
 228 0170 4889C7   		movq	%rax, %rdi
 229 0173 E8000000 		call	_ZNSt6vectorIdSaIdEEixEm
 229      00
 230 0178 660FEFC0 		pxor	%xmm0, %xmm0
 231 017c F20F1100 		movsd	%xmm0, (%rax)
  53:cpp_vector_double_practice.cpp ****                     columns[i] = 0.0;
 232              		.loc 1 53 0 discriminator 2
 233 0180 8345EC01 		addl	$1, -20(%rbp)
 234 0184 EBC4     		jmp	.L7
 235              	.L6:
 236              	.LBE9:
 237              	.LBE8:
 238              	.LBE5:
  55:cpp_vector_double_practice.cpp ****                 }
  56:cpp_vector_double_practice.cpp ****             }
  57:cpp_vector_double_practice.cpp **** 
  58:cpp_vector_double_practice.cpp ****             name = new_name;
 239              		.loc 1 58 0
 240 0186 488B45D8 		movq	-40(%rbp), %rax
 241 018a 488D5018 		leaq	24(%rax), %rdx
 242 018e 488B45C0 		movq	-64(%rbp), %rax
 243 0192 4889C6   		movq	%rax, %rsi
 244 0195 4889D7   		movq	%rdx, %rdi
 245 0198 E8000000 		call	_ZNSt7__cxx1112basic_stringIcSt11char_traitsIcESaIcEEaSEPKc@PLT
 245      00
 246              	.LEHE0:
 247              	.LBE4:
 248              	.LBE3:
  59:cpp_vector_double_practice.cpp ****         }
 249              		.loc 1 59 0
 250 019d EB2A     		jmp	.L10
 251              	.L9:
 252 019f 4889C3   		movq	%rax, %rbx
 253              	.LBB10:
  38:cpp_vector_double_practice.cpp **** #ifdef LOG
 254              		.loc 1 38 0
 255 01a2 488B45D8 		movq	-40(%rbp), %rax
 256 01a6 4883C018 		addq	$24, %rax
 257 01aa 4889C7   		movq	%rax, %rdi
 258 01ad E8000000 		call	_ZNSt7__cxx1112basic_stringIcSt11char_traitsIcESaIcEED1Ev@PLT
 258      00
 259 01b2 488B45D8 		movq	-40(%rbp), %rax
 260 01b6 4889C7   		movq	%rax, %rdi
 261 01b9 E8000000 		call	_ZNSt6vectorIdSaIdEED1Ev
 261      00
 262 01be 4889D8   		movq	%rbx, %rax
 263 01c1 4889C7   		movq	%rax, %rdi
 264              	.LEHB1:
 265 01c4 E8000000 		call	_Unwind_Resume@PLT
 265      00
 266              	.LEHE1:
 267              	.L10:
 268              	.LBE10:
 269              		.loc 1 59 0
 270 01c9 4883C438 		addq	$56, %rsp
 271 01cd 5B       		popq	%rbx
 272 01ce 5D       		popq	%rbp
 273              		.cfi_def_cfa 7, 8
 274 01cf C3       		ret
 275              		.cfi_endproc
 276              	.LFE1845:
 277              		.section	.gcc_except_table._ZN9RowVectorC2EjPKdPKc,"aG",@progbits,_ZN9RowVectorC5EjPKdPKc,comdat
 278              	.LLSDA1845:
 279 0000 FF       		.byte	0xff
 280 0001 FF       		.byte	0xff
 281 0002 01       		.byte	0x1
 282 0003 0B       		.uleb128 .LLSDACSE1845-.LLSDACSB1845
 283              	.LLSDACSB1845:
 284 0004 40       		.uleb128 .LEHB0-.LFB1845
 285 0005 DD02     		.uleb128 .LEHE0-.LEHB0
 286 0007 9F03     		.uleb128 .L9-.LFB1845
 287 0009 00       		.uleb128 0
 288 000a C403     		.uleb128 .LEHB1-.LFB1845
 289 000c 05       		.uleb128 .LEHE1-.LEHB1
 290 000d 00       		.uleb128 0
 291 000e 00       		.uleb128 0
 292              	.LLSDACSE1845:
 293              		.section	.text._ZN9RowVectorC2EjPKdPKc,"axG",@progbits,_ZN9RowVectorC5EjPKdPKc,comdat
 295              		.weak	_ZN9RowVectorC1EjPKdPKc
 296              		.set	_ZN9RowVectorC1EjPKdPKc,_ZN9RowVectorC2EjPKdPKc
 297              		.section	.text._ZN9RowVectorC2EjPKc,"axG",@progbits,_ZN9RowVectorC5EjPKc,comdat
 298              		.align 2
 299              		.weak	_ZN9RowVectorC2EjPKc
 301              	_ZN9RowVectorC2EjPKc:
 302              	.LFB1848:
  60:cpp_vector_double_practice.cpp **** 
  61:cpp_vector_double_practice.cpp ****         // Instead of implementing another constructor, reusing an existing one
  62:cpp_vector_double_practice.cpp ****         // c++ 11 or later
  63:cpp_vector_double_practice.cpp ****         RowVector(const uint32_t n, const char *new_name="None") : RowVector(n, NULL, new_name){
 303              		.loc 1 63 0
 304              		.cfi_startproc
 305              		.cfi_personality 0x9b,DW.ref.__gxx_personality_v0
 306              		.cfi_lsda 0x1b,.LLSDA1848
 307 0000 55       		pushq	%rbp
 308              		.cfi_def_cfa_offset 16
 309              		.cfi_offset 6, -16
 310 0001 4889E5   		movq	%rsp, %rbp
 311              		.cfi_def_cfa_register 6
 312 0004 53       		pushq	%rbx
 313 0005 4883EC28 		subq	$40, %rsp
 314              		.cfi_offset 3, -24
 315 0009 48897DE8 		movq	%rdi, -24(%rbp)
 316 000d 8975E4   		movl	%esi, -28(%rbp)
 317 0010 488955D8 		movq	%rdx, -40(%rbp)
 318              	.LBB11:
 319              		.loc 1 63 0
 320 0014 488B55D8 		movq	-40(%rbp), %rdx
 321 0018 8B75E4   		movl	-28(%rbp), %esi
 322 001b 488B45E8 		movq	-24(%rbp), %rax
 323 001f 4889D1   		movq	%rdx, %rcx
 324 0022 BA000000 		movl	$0, %edx
 324      00
 325 0027 4889C7   		movq	%rax, %rdi
 326              	.LEHB2:
 327 002a E8000000 		call	_ZN9RowVectorC1EjPKdPKc
 327      00
 328              	.LEHE2:
  64:cpp_vector_double_practice.cpp **** #ifdef LOG
  65:cpp_vector_double_practice.cpp ****             std::cout << '[' << &columns << ']' << "RowVector(" << n << ", " << new_name << ")\n";
 329              		.loc 1 65 0
 330 002f BE5B0000 		movl	$91, %esi
 330      00
 331 0034 488D3D00 		leaq	_ZSt4cout(%rip), %rdi
 331      000000
 332              	.LEHB3:
 333 003b E8000000 		call	_ZStlsISt11char_traitsIcEERSt13basic_ostreamIcT_ES5_c@PLT
 333      00
 334 0040 4889C2   		movq	%rax, %rdx
 335 0043 488B45E8 		movq	-24(%rbp), %rax
 336 0047 4889C6   		movq	%rax, %rsi
 337 004a 4889D7   		movq	%rdx, %rdi
 338 004d E8000000 		call	_ZNSolsEPKv@PLT
 338      00
 339              		.loc 1 65 0 is_stmt 0 discriminator 1
 340 0052 BE5D0000 		movl	$93, %esi
 340      00
 341 0057 4889C7   		movq	%rax, %rdi
 342 005a E8000000 		call	_ZStlsISt11char_traitsIcEERSt13basic_ostreamIcT_ES5_c@PLT
 342      00
 343              		.loc 1 65 0 discriminator 2
 344 005f 488D3500 		leaq	.LC1(%rip), %rsi
 344      000000
 345 0066 4889C7   		movq	%rax, %rdi
 346 0069 E8000000 		call	_ZStlsISt11char_traitsIcEERSt13basic_ostreamIcT_ES5_PKc@PLT
 346      00
 347              		.loc 1 65 0 discriminator 3
 348 006e 4889C2   		movq	%rax, %rdx
 349 0071 8B45E4   		movl	-28(%rbp), %eax
 350 0074 89C6     		movl	%eax, %esi
 351 0076 4889D7   		movq	%rdx, %rdi
 352 0079 E8000000 		call	_ZNSolsEj@PLT
 352      00
 353              		.loc 1 65 0 discriminator 4
 354 007e 488D3500 		leaq	.LC2(%rip), %rsi
 354      000000
 355 0085 4889C7   		movq	%rax, %rdi
 356 0088 E8000000 		call	_ZStlsISt11char_traitsIcEERSt13basic_ostreamIcT_ES5_PKc@PLT
 356      00
 357              		.loc 1 65 0 discriminator 5
 358 008d 4889C2   		movq	%rax, %rdx
 359 0090 488B45D8 		movq	-40(%rbp), %rax
 360 0094 4889C6   		movq	%rax, %rsi
 361 0097 4889D7   		movq	%rdx, %rdi
 362 009a E8000000 		call	_ZStlsISt11char_traitsIcEERSt13basic_ostreamIcT_ES5_PKc@PLT
 362      00
 363              		.loc 1 65 0 discriminator 6
 364 009f 488D3500 		leaq	.LC3(%rip), %rsi
 364      000000
 365 00a6 4889C7   		movq	%rax, %rdi
 366 00a9 E8000000 		call	_ZStlsISt11char_traitsIcEERSt13basic_ostreamIcT_ES5_PKc@PLT
 366      00
 367              	.LEHE3:
 368              	.LBE11:
  66:cpp_vector_double_practice.cpp **** #endif
  67:cpp_vector_double_practice.cpp ****         }
 369              		.loc 1 67 0 is_stmt 1
 370 00ae EB1A     		jmp	.L14
 371              	.L13:
 372 00b0 4889C3   		movq	%rax, %rbx
 373              	.LBB12:
  63:cpp_vector_double_practice.cpp **** #ifdef LOG
 374              		.loc 1 63 0
 375 00b3 488B45E8 		movq	-24(%rbp), %rax
 376 00b7 4889C7   		movq	%rax, %rdi
 377 00ba E8000000 		call	_ZN9RowVectorD1Ev
 377      00
 378 00bf 4889D8   		movq	%rbx, %rax
 379 00c2 4889C7   		movq	%rax, %rdi
 380              	.LEHB4:
 381 00c5 E8000000 		call	_Unwind_Resume@PLT
 381      00
 382              	.LEHE4:
 383              	.L14:
 384              	.LBE12:
 385              		.loc 1 67 0
 386 00ca 4883C428 		addq	$40, %rsp
 387 00ce 5B       		popq	%rbx
 388 00cf 5D       		popq	%rbp
 389              		.cfi_def_cfa 7, 8
 390 00d0 C3       		ret
 391              		.cfi_endproc
 392              	.LFE1848:
 393              		.section	.gcc_except_table._ZN9RowVectorC2EjPKc,"aG",@progbits,_ZN9RowVectorC5EjPKc,comdat
 394              	.LLSDA1848:
 395 0000 FF       		.byte	0xff
 396 0001 FF       		.byte	0xff
 397 0002 01       		.byte	0x1
 398 0003 0E       		.uleb128 .LLSDACSE1848-.LLSDACSB1848
 399              	.LLSDACSB1848:
 400 0004 2A       		.uleb128 .LEHB2-.LFB1848
 401 0005 05       		.uleb128 .LEHE2-.LEHB2
 402 0006 00       		.uleb128 0
 403 0007 00       		.uleb128 0
 404 0008 3B       		.uleb128 .LEHB3-.LFB1848
 405 0009 73       		.uleb128 .LEHE3-.LEHB3
 406 000a B001     		.uleb128 .L13-.LFB1848
 407 000c 00       		.uleb128 0
 408 000d C501     		.uleb128 .LEHB4-.LFB1848
 409 000f 05       		.uleb128 .LEHE4-.LEHB4
 410 0010 00       		.uleb128 0
 411 0011 00       		.uleb128 0
 412              	.LLSDACSE1848:
 413              		.section	.text._ZN9RowVectorC2EjPKc,"axG",@progbits,_ZN9RowVectorC5EjPKc,comdat
 415              		.weak	_ZN9RowVectorC1EjPKc
 416              		.set	_ZN9RowVectorC1EjPKc,_ZN9RowVectorC2EjPKc
 417              		.section	.rodata
 418              	.LC5:
 419 0020 3200     		.string	"2"
 420              		.section	.text._ZN9RowVectorC2ERKS_,"axG",@progbits,_ZN9RowVectorC5ERKS_,comdat
 421              		.align 2
 422              		.weak	_ZN9RowVectorC2ERKS_
 424              	_ZN9RowVectorC2ERKS_:
 425              	.LFB1851:
  68:cpp_vector_double_practice.cpp **** 
  69:cpp_vector_double_practice.cpp ****         RowVector(const RowVector & other){
 426              		.loc 1 69 0
 427              		.cfi_startproc
 428              		.cfi_personality 0x9b,DW.ref.__gxx_personality_v0
 429              		.cfi_lsda 0x1b,.LLSDA1851
 430 0000 55       		pushq	%rbp
 431              		.cfi_def_cfa_offset 16
 432              		.cfi_offset 6, -16
 433 0001 4889E5   		movq	%rsp, %rbp
 434              		.cfi_def_cfa_register 6
 435 0004 53       		pushq	%rbx
 436 0005 4883EC28 		subq	$40, %rsp
 437              		.cfi_offset 3, -24
 438 0009 48897DD8 		movq	%rdi, -40(%rbp)
 439 000d 488975D0 		movq	%rsi, -48(%rbp)
 440              	.LBB13:
 441              		.loc 1 69 0
 442 0011 488B45D8 		movq	-40(%rbp), %rax
 443 0015 4889C7   		movq	%rax, %rdi
 444 0018 E8000000 		call	_ZNSt6vectorIdSaIdEEC1Ev
 444      00
 445 001d 488B45D8 		movq	-40(%rbp), %rax
 446 0021 4883C018 		addq	$24, %rax
 447 0025 4889C7   		movq	%rax, %rdi
 448 0028 E8000000 		call	_ZNSt7__cxx1112basic_stringIcSt11char_traitsIcESaIcEEC1Ev@PLT
 448      00
 449              	.LBB14:
  70:cpp_vector_double_practice.cpp **** #ifdef LOG
  71:cpp_vector_double_practice.cpp ****             std::cout << '[' << &columns << ']' << "RowVector(" << & other << ")\n";
 450              		.loc 1 71 0
 451 002d BE5B0000 		movl	$91, %esi
 451      00
 452 0032 488D3D00 		leaq	_ZSt4cout(%rip), %rdi
 452      000000
 453              	.LEHB5:
 454 0039 E8000000 		call	_ZStlsISt11char_traitsIcEERSt13basic_ostreamIcT_ES5_c@PLT
 454      00
 455 003e 4889C2   		movq	%rax, %rdx
 456 0041 488B45D8 		movq	-40(%rbp), %rax
 457 0045 4889C6   		movq	%rax, %rsi
 458 0048 4889D7   		movq	%rdx, %rdi
 459 004b E8000000 		call	_ZNSolsEPKv@PLT
 459      00
 460              		.loc 1 71 0 is_stmt 0 discriminator 1
 461 0050 BE5D0000 		movl	$93, %esi
 461      00
 462 0055 4889C7   		movq	%rax, %rdi
 463 0058 E8000000 		call	_ZStlsISt11char_traitsIcEERSt13basic_ostreamIcT_ES5_c@PLT
 463      00
 464              		.loc 1 71 0 discriminator 2
 465 005d 488D3500 		leaq	.LC1(%rip), %rsi
 465      000000
 466 0064 4889C7   		movq	%rax, %rdi
 467 0067 E8000000 		call	_ZStlsISt11char_traitsIcEERSt13basic_ostreamIcT_ES5_PKc@PLT
 467      00
 468              		.loc 1 71 0 discriminator 3
 469 006c 4889C2   		movq	%rax, %rdx
 470 006f 488B45D0 		movq	-48(%rbp), %rax
 471 0073 4889C6   		movq	%rax, %rsi
 472 0076 4889D7   		movq	%rdx, %rdi
 473 0079 E8000000 		call	_ZNSolsEPKv@PLT
 473      00
 474              		.loc 1 71 0 discriminator 4
 475 007e 488D3500 		leaq	.LC3(%rip), %rsi
 475      000000
 476 0085 4889C7   		movq	%rax, %rdi
 477 0088 E8000000 		call	_ZStlsISt11char_traitsIcEERSt13basic_ostreamIcT_ES5_PKc@PLT
 477      00
  72:cpp_vector_double_practice.cpp **** #endif
  73:cpp_vector_double_practice.cpp ****             // https://codereview.stackexchange.com/questions/149669/c-operator-overloading-for-mat
  74:cpp_vector_double_practice.cpp ****             // http://www.cplusplus.com/reference/vector/vector/resize/
  75:cpp_vector_double_practice.cpp ****             columns.resize(other.columns.size());
 478              		.loc 1 75 0 is_stmt 1
 479 008d 488B5DD8 		movq	-40(%rbp), %rbx
 480 0091 488B45D0 		movq	-48(%rbp), %rax
 481 0095 4889C7   		movq	%rax, %rdi
 482 0098 E8000000 		call	_ZNKSt6vectorIdSaIdEE4sizeEv
 482      00
 483 009d 4889C6   		movq	%rax, %rsi
 484 00a0 4889DF   		movq	%rbx, %rdi
 485 00a3 E8000000 		call	_ZNSt6vectorIdSaIdEE6resizeEm
 485      00
 486              	.LBB15:
  76:cpp_vector_double_practice.cpp ****             for(uint32_t i=0; columns.size() > i; ++i){
 487              		.loc 1 76 0
 488 00a8 C745EC00 		movl	$0, -20(%rbp)
 488      000000
 489              	.L17:
 490              		.loc 1 76 0 is_stmt 0 discriminator 3
 491 00af 488B45D8 		movq	-40(%rbp), %rax
 492 00b3 4889C7   		movq	%rax, %rdi
 493 00b6 E8000000 		call	_ZNKSt6vectorIdSaIdEE4sizeEv
 493      00
 494 00bb 4889C2   		movq	%rax, %rdx
 495 00be 8B45EC   		movl	-20(%rbp), %eax
 496 00c1 4839C2   		cmpq	%rax, %rdx
 497 00c4 0F97C0   		seta	%al
 498 00c7 84C0     		testb	%al, %al
 499 00c9 7435     		je	.L16
  77:cpp_vector_double_practice.cpp ****                 columns[i] = other.columns[i];
 500              		.loc 1 77 0 is_stmt 1 discriminator 2
 501 00cb 8B55EC   		movl	-20(%rbp), %edx
 502 00ce 488B45D0 		movq	-48(%rbp), %rax
 503 00d2 4889D6   		movq	%rdx, %rsi
 504 00d5 4889C7   		movq	%rax, %rdi
 505 00d8 E8000000 		call	_ZNKSt6vectorIdSaIdEEixEm
 505      00
 506 00dd 4889C3   		movq	%rax, %rbx
 507 00e0 8B55EC   		movl	-20(%rbp), %edx
 508 00e3 488B45D8 		movq	-40(%rbp), %rax
 509 00e7 4889D6   		movq	%rdx, %rsi
 510 00ea 4889C7   		movq	%rax, %rdi
 511 00ed E8000000 		call	_ZNSt6vectorIdSaIdEEixEm
 511      00
 512 00f2 F20F1003 		movsd	(%rbx), %xmm0
 513 00f6 F20F1100 		movsd	%xmm0, (%rax)
  76:cpp_vector_double_practice.cpp ****             for(uint32_t i=0; columns.size() > i; ++i){
 514              		.loc 1 76 0 discriminator 2
 515 00fa 8345EC01 		addl	$1, -20(%rbp)
 516 00fe EBAF     		jmp	.L17
 517              	.L16:
 518              	.LBE15:
  78:cpp_vector_double_practice.cpp ****             }
  79:cpp_vector_double_practice.cpp **** 
  80:cpp_vector_double_practice.cpp ****             // Copy name of the other one
  81:cpp_vector_double_practice.cpp ****             name = other.name;
 519              		.loc 1 81 0
 520 0100 488B45D0 		movq	-48(%rbp), %rax
 521 0104 488D5018 		leaq	24(%rax), %rdx
 522 0108 488B45D8 		movq	-40(%rbp), %rax
 523 010c 4883C018 		addq	$24, %rax
 524 0110 4889D6   		movq	%rdx, %rsi
 525 0113 4889C7   		movq	%rax, %rdi
 526 0116 E8000000 		call	_ZNSt7__cxx1112basic_stringIcSt11char_traitsIcESaIcEEaSERKS4_@PLT
 526      00
  82:cpp_vector_double_practice.cpp ****             // Then append
  83:cpp_vector_double_practice.cpp ****             name.append("2");
 527              		.loc 1 83 0
 528 011b 488B45D8 		movq	-40(%rbp), %rax
 529 011f 4883C018 		addq	$24, %rax
 530 0123 488D3500 		leaq	.LC5(%rip), %rsi
 530      000000
 531 012a 4889C7   		movq	%rax, %rdi
 532 012d E8000000 		call	_ZNSt7__cxx1112basic_stringIcSt11char_traitsIcESaIcEE6appendEPKc@PLT
 532      00
 533              	.LEHE5:
 534              	.LBE14:
 535              	.LBE13:
  84:cpp_vector_double_practice.cpp ****         }
 536              		.loc 1 84 0
 537 0132 EB2A     		jmp	.L20
 538              	.L19:
 539 0134 4889C3   		movq	%rax, %rbx
 540              	.LBB16:
  69:cpp_vector_double_practice.cpp **** #ifdef LOG
 541              		.loc 1 69 0
 542 0137 488B45D8 		movq	-40(%rbp), %rax
 543 013b 4883C018 		addq	$24, %rax
 544 013f 4889C7   		movq	%rax, %rdi
 545 0142 E8000000 		call	_ZNSt7__cxx1112basic_stringIcSt11char_traitsIcESaIcEED1Ev@PLT
 545      00
 546 0147 488B45D8 		movq	-40(%rbp), %rax
 547 014b 4889C7   		movq	%rax, %rdi
 548 014e E8000000 		call	_ZNSt6vectorIdSaIdEED1Ev
 548      00
 549 0153 4889D8   		movq	%rbx, %rax
 550 0156 4889C7   		movq	%rax, %rdi
 551              	.LEHB6:
 552 0159 E8000000 		call	_Unwind_Resume@PLT
 552      00
 553              	.LEHE6:
 554              	.L20:
 555              	.LBE16:
 556              		.loc 1 84 0
 557 015e 4883C428 		addq	$40, %rsp
 558 0162 5B       		popq	%rbx
 559 0163 5D       		popq	%rbp
 560              		.cfi_def_cfa 7, 8
 561 0164 C3       		ret
 562              		.cfi_endproc
 563              	.LFE1851:
 564              		.section	.gcc_except_table._ZN9RowVectorC2ERKS_,"aG",@progbits,_ZN9RowVectorC5ERKS_,comdat
 565              	.LLSDA1851:
 566 0000 FF       		.byte	0xff
 567 0001 FF       		.byte	0xff
 568 0002 01       		.byte	0x1
 569 0003 0B       		.uleb128 .LLSDACSE1851-.LLSDACSB1851
 570              	.LLSDACSB1851:
 571 0004 39       		.uleb128 .LEHB5-.LFB1851
 572 0005 F901     		.uleb128 .LEHE5-.LEHB5
 573 0007 B402     		.uleb128 .L19-.LFB1851
 574 0009 00       		.uleb128 0
 575 000a D902     		.uleb128 .LEHB6-.LFB1851
 576 000c 05       		.uleb128 .LEHE6-.LEHB6
 577 000d 00       		.uleb128 0
 578 000e 00       		.uleb128 0
 579              	.LLSDACSE1851:
 580              		.section	.text._ZN9RowVectorC2ERKS_,"axG",@progbits,_ZN9RowVectorC5ERKS_,comdat
 582              		.weak	_ZN9RowVectorC1ERKS_
 583              		.set	_ZN9RowVectorC1ERKS_,_ZN9RowVectorC2ERKS_
 584              		.section	.rodata
 585              	.LC6:
 586 0022 646F7562 		.string	"double & operator [] ("
 586      6C652026 
 586      206F7065 
 586      7261746F 
 586      72205B5D 
 587              		.section	.text._ZN9RowVectorixEj,"axG",@progbits,_ZN9RowVectorixEj,comdat
 588              		.align 2
 589              		.weak	_ZN9RowVectorixEj
 591              	_ZN9RowVectorixEj:
 592              	.LFB1853:
  85:cpp_vector_double_practice.cpp **** 
  86:cpp_vector_double_practice.cpp ****         double & operator [] (const uint32_t i){
 593              		.loc 1 86 0
 594              		.cfi_startproc
 595 0000 55       		pushq	%rbp
 596              		.cfi_def_cfa_offset 16
 597              		.cfi_offset 6, -16
 598 0001 4889E5   		movq	%rsp, %rbp
 599              		.cfi_def_cfa_register 6
 600 0004 4883EC10 		subq	$16, %rsp
 601 0008 48897DF8 		movq	%rdi, -8(%rbp)
 602 000c 8975F4   		movl	%esi, -12(%rbp)
  87:cpp_vector_double_practice.cpp **** #ifdef LOG
  88:cpp_vector_double_practice.cpp ****             std::cout << '[' << &columns << ']' << "double & operator [] (" << i << ")\n";
 603              		.loc 1 88 0
 604 000f BE5B0000 		movl	$91, %esi
 604      00
 605 0014 488D3D00 		leaq	_ZSt4cout(%rip), %rdi
 605      000000
 606 001b E8000000 		call	_ZStlsISt11char_traitsIcEERSt13basic_ostreamIcT_ES5_c@PLT
 606      00
 607 0020 4889C2   		movq	%rax, %rdx
 608 0023 488B45F8 		movq	-8(%rbp), %rax
 609 0027 4889C6   		movq	%rax, %rsi
 610 002a 4889D7   		movq	%rdx, %rdi
 611 002d E8000000 		call	_ZNSolsEPKv@PLT
 611      00
 612 0032 BE5D0000 		movl	$93, %esi
 612      00
 613 0037 4889C7   		movq	%rax, %rdi
 614 003a E8000000 		call	_ZStlsISt11char_traitsIcEERSt13basic_ostreamIcT_ES5_c@PLT
 614      00
 615 003f 488D3500 		leaq	.LC6(%rip), %rsi
 615      000000
 616 0046 4889C7   		movq	%rax, %rdi
 617 0049 E8000000 		call	_ZStlsISt11char_traitsIcEERSt13basic_ostreamIcT_ES5_PKc@PLT
 617      00
 618 004e 4889C2   		movq	%rax, %rdx
 619 0051 8B45F4   		movl	-12(%rbp), %eax
 620 0054 89C6     		movl	%eax, %esi
 621 0056 4889D7   		movq	%rdx, %rdi
 622 0059 E8000000 		call	_ZNSolsEj@PLT
 622      00
 623 005e 488D3500 		leaq	.LC3(%rip), %rsi
 623      000000
 624 0065 4889C7   		movq	%rax, %rdi
 625 0068 E8000000 		call	_ZStlsISt11char_traitsIcEERSt13basic_ostreamIcT_ES5_PKc@PLT
 625      00
  89:cpp_vector_double_practice.cpp **** #endif
  90:cpp_vector_double_practice.cpp ****             // Return reference; otherwise, unable to assign
  91:cpp_vector_double_practice.cpp ****             return columns[i];
 626              		.loc 1 91 0
 627 006d 8B55F4   		movl	-12(%rbp), %edx
 628 0070 488B45F8 		movq	-8(%rbp), %rax
 629 0074 4889D6   		movq	%rdx, %rsi
 630 0077 4889C7   		movq	%rax, %rdi
 631 007a E8000000 		call	_ZNSt6vectorIdSaIdEEixEm
 631      00
  92:cpp_vector_double_practice.cpp ****         }
 632              		.loc 1 92 0
 633 007f C9       		leave
 634              		.cfi_def_cfa 7, 8
 635 0080 C3       		ret
 636              		.cfi_endproc
 637              	.LFE1853:
 639              		.section	.rodata
 640              	.LC7:
 641 0039 526F7756 		.string	"RowVector operator + ("
 641      6563746F 
 641      72206F70 
 641      65726174 
 641      6F72202B 
 642              		.align 8
 643              	.LC8:
 644 0050 6370705F 		.string	"cpp_vector_double_practice.cpp"
 644      76656374 
 644      6F725F64 
 644      6F75626C 
 644      655F7072 
 645 006f 00       		.align 8
 646              	.LC9:
 647 0070 636F6C75 		.string	"columns.size() == other.columns.size()"
 647      6D6E732E 
 647      73697A65 
 647      2829203D 
 647      3D206F74 
 648              		.section	.text._ZN9RowVectorplERKS_,"axG",@progbits,_ZN9RowVectorplERKS_,comdat
 649              		.align 2
 650              		.weak	_ZN9RowVectorplERKS_
 652              	_ZN9RowVectorplERKS_:
 653              	.LFB1855:
  93:cpp_vector_double_practice.cpp **** 
  94:cpp_vector_double_practice.cpp ****         const std::string get_name(){
  95:cpp_vector_double_practice.cpp **** #ifdef LOG
  96:cpp_vector_double_practice.cpp ****             std::cout << '[' << &columns << ']' << "void show()\n";
  97:cpp_vector_double_practice.cpp **** #endif
  98:cpp_vector_double_practice.cpp ****             // Return constant; to prevent change
  99:cpp_vector_double_practice.cpp ****             return name;
 100:cpp_vector_double_practice.cpp ****         }
 101:cpp_vector_double_practice.cpp **** 
 102:cpp_vector_double_practice.cpp ****         RowVector operator + (const RowVector & other){
 654              		.loc 1 102 0
 655              		.cfi_startproc
 656              		.cfi_personality 0x9b,DW.ref.__gxx_personality_v0
 657              		.cfi_lsda 0x1b,.LLSDA1855
 658 0000 55       		pushq	%rbp
 659              		.cfi_def_cfa_offset 16
 660              		.cfi_offset 6, -16
 661 0001 4889E5   		movq	%rsp, %rbp
 662              		.cfi_def_cfa_register 6
 663 0004 53       		pushq	%rbx
 664 0005 4883EC38 		subq	$56, %rsp
 665              		.cfi_offset 3, -24
 666 0009 48897DD8 		movq	%rdi, -40(%rbp)
 667 000d 488975D0 		movq	%rsi, -48(%rbp)
 668 0011 488955C8 		movq	%rdx, -56(%rbp)
 669              		.loc 1 102 0
 670 0015 64488B04 		movq	%fs:40, %rax
 670      25280000 
 670      00
 671 001e 488945E8 		movq	%rax, -24(%rbp)
 672 0022 31C0     		xorl	%eax, %eax
 103:cpp_vector_double_practice.cpp **** #ifdef LOG
 104:cpp_vector_double_practice.cpp ****             std::cout << '[' << &columns << ']' << "RowVector operator + (" << & other << ")\n";
 673              		.loc 1 104 0
 674 0024 BE5B0000 		movl	$91, %esi
 674      00
 675 0029 488D3D00 		leaq	_ZSt4cout(%rip), %rdi
 675      000000
 676              	.LEHB7:
 677 0030 E8000000 		call	_ZStlsISt11char_traitsIcEERSt13basic_ostreamIcT_ES5_c@PLT
 677      00
 678 0035 4889C2   		movq	%rax, %rdx
 679 0038 488B45D0 		movq	-48(%rbp), %rax
 680 003c 4889C6   		movq	%rax, %rsi
 681 003f 4889D7   		movq	%rdx, %rdi
 682 0042 E8000000 		call	_ZNSolsEPKv@PLT
 682      00
 683 0047 BE5D0000 		movl	$93, %esi
 683      00
 684 004c 4889C7   		movq	%rax, %rdi
 685 004f E8000000 		call	_ZStlsISt11char_traitsIcEERSt13basic_ostreamIcT_ES5_c@PLT
 685      00
 686 0054 488D3500 		leaq	.LC7(%rip), %rsi
 686      000000
 687 005b 4889C7   		movq	%rax, %rdi
 688 005e E8000000 		call	_ZStlsISt11char_traitsIcEERSt13basic_ostreamIcT_ES5_PKc@PLT
 688      00
 689 0063 4889C2   		movq	%rax, %rdx
 690 0066 488B45C8 		movq	-56(%rbp), %rax
 691 006a 4889C6   		movq	%rax, %rsi
 692 006d 4889D7   		movq	%rdx, %rdi
 693 0070 E8000000 		call	_ZNSolsEPKv@PLT
 693      00
 694 0075 488D3500 		leaq	.LC3(%rip), %rsi
 694      000000
 695 007c 4889C7   		movq	%rax, %rdi
 696 007f E8000000 		call	_ZStlsISt11char_traitsIcEERSt13basic_ostreamIcT_ES5_PKc@PLT
 696      00
 105:cpp_vector_double_practice.cpp **** #endif
 106:cpp_vector_double_practice.cpp ****             // Check size
 107:cpp_vector_double_practice.cpp ****             assert(columns.size() == other.columns.size());
 697              		.loc 1 107 0
 698 0084 488B45D0 		movq	-48(%rbp), %rax
 699 0088 4889C7   		movq	%rax, %rdi
 700 008b E8000000 		call	_ZNKSt6vectorIdSaIdEE4sizeEv
 700      00
 701 0090 4889C3   		movq	%rax, %rbx
 702 0093 488B45C8 		movq	-56(%rbp), %rax
 703 0097 4889C7   		movq	%rax, %rdi
 704 009a E8000000 		call	_ZNKSt6vectorIdSaIdEE4sizeEv
 704      00
 705 009f 4839C3   		cmpq	%rax, %rbx
 706 00a2 741F     		je	.L24
 707              		.loc 1 107 0 is_stmt 0 discriminator 1
 708 00a4 488D0D00 		leaq	_ZZN9RowVectorplERKS_E19__PRETTY_FUNCTION__(%rip), %rcx
 708      000000
 709 00ab BA6B0000 		movl	$107, %edx
 709      00
 710 00b0 488D3500 		leaq	.LC8(%rip), %rsi
 710      000000
 711 00b7 488D3D00 		leaq	.LC9(%rip), %rdi
 711      000000
 712 00be E8000000 		call	__assert_fail@PLT
 712      00
 713              	.L24:
 108:cpp_vector_double_practice.cpp **** 
 109:cpp_vector_double_practice.cpp ****             // Make a new vector to return
 110:cpp_vector_double_practice.cpp ****             RowVector temp(other);
 714              		.loc 1 110 0 is_stmt 1
 715 00c3 488B55C8 		movq	-56(%rbp), %rdx
 716 00c7 488B45D8 		movq	-40(%rbp), %rax
 717 00cb 4889D6   		movq	%rdx, %rsi
 718 00ce 4889C7   		movq	%rax, %rdi
 719 00d1 E8000000 		call	_ZN9RowVectorC1ERKS_
 719      00
 720              	.LEHE7:
 721              	.LBB17:
 111:cpp_vector_double_practice.cpp **** 
 112:cpp_vector_double_practice.cpp ****             // Element loop
 113:cpp_vector_double_practice.cpp ****             for (uint32_t i=0; columns.size() > i; ++i){
 722              		.loc 1 113 0
 723 00d6 C745E400 		movl	$0, -28(%rbp)
 723      000000
 724              	.L26:
 725              		.loc 1 113 0 is_stmt 0 discriminator 2
 726 00dd 488B45D0 		movq	-48(%rbp), %rax
 727 00e1 4889C7   		movq	%rax, %rdi
 728 00e4 E8000000 		call	_ZNKSt6vectorIdSaIdEE4sizeEv
 728      00
 729 00e9 4889C2   		movq	%rax, %rdx
 730 00ec 8B45E4   		movl	-28(%rbp), %eax
 731 00ef 4839C2   		cmpq	%rax, %rdx
 732 00f2 0F97C0   		seta	%al
 733 00f5 84C0     		testb	%al, %al
 734 00f7 7459     		je	.L31
 114:cpp_vector_double_practice.cpp ****                 temp[i] += columns[i];
 735              		.loc 1 114 0 is_stmt 1
 736 00f9 8B55E4   		movl	-28(%rbp), %edx
 737 00fc 488B45D0 		movq	-48(%rbp), %rax
 738 0100 4889D6   		movq	%rdx, %rsi
 739 0103 4889C7   		movq	%rax, %rdi
 740 0106 E8000000 		call	_ZNSt6vectorIdSaIdEEixEm
 740      00
 741 010b F20F1008 		movsd	(%rax), %xmm1
 742 010f F20F114D 		movsd	%xmm1, -64(%rbp)
 742      C0
 743 0114 8B55E4   		movl	-28(%rbp), %edx
 744 0117 488B45D8 		movq	-40(%rbp), %rax
 745 011b 89D6     		movl	%edx, %esi
 746 011d 4889C7   		movq	%rax, %rdi
 747              	.LEHB8:
 748 0120 E8000000 		call	_ZN9RowVectorixEj
 748      00
 749              	.LEHE8:
 750              		.loc 1 114 0 is_stmt 0 discriminator 1
 751 0125 F20F1000 		movsd	(%rax), %xmm0
 752 0129 F20F5845 		addsd	-64(%rbp), %xmm0
 752      C0
 753 012e F20F1100 		movsd	%xmm0, (%rax)
 113:cpp_vector_double_practice.cpp ****                 temp[i] += columns[i];
 754              		.loc 1 113 0 is_stmt 1 discriminator 1
 755 0132 8345E401 		addl	$1, -28(%rbp)
 756 0136 EBA5     		jmp	.L26
 757              	.L30:
 758 0138 4889C3   		movq	%rax, %rbx
 759              	.LBE17:
 760 013b 488B45D8 		movq	-40(%rbp), %rax
 761 013f 4889C7   		movq	%rax, %rdi
 762 0142 E8000000 		call	_ZN9RowVectorD1Ev
 762      00
 763 0147 4889D8   		movq	%rbx, %rax
 764 014a 4889C7   		movq	%rax, %rdi
 765              	.LEHB9:
 766 014d E8000000 		call	_Unwind_Resume@PLT
 766      00
 767              	.LEHE9:
 768              	.L31:
 115:cpp_vector_double_practice.cpp ****             }
 116:cpp_vector_double_practice.cpp **** 
 117:cpp_vector_double_practice.cpp ****             // Returning a temporary image
 118:cpp_vector_double_practice.cpp ****             return temp;
 769              		.loc 1 118 0
 770 0152 90       		nop
 119:cpp_vector_double_practice.cpp ****         }
 771              		.loc 1 119 0
 772 0153 488B45D8 		movq	-40(%rbp), %rax
 773 0157 488B4DE8 		movq	-24(%rbp), %rcx
 774 015b 6448330C 		xorq	%fs:40, %rcx
 774      25280000 
 774      00
 775 0164 7405     		je	.L29
 776 0166 E8000000 		call	__stack_chk_fail@PLT
 776      00
 777              	.L29:
 778 016b 4883C438 		addq	$56, %rsp
 779 016f 5B       		popq	%rbx
 780 0170 5D       		popq	%rbp
 781              		.cfi_def_cfa 7, 8
 782 0171 C3       		ret
 783              		.cfi_endproc
 784              	.LFE1855:
 785              		.section	.gcc_except_table._ZN9RowVectorplERKS_,"aG",@progbits,_ZN9RowVectorplERKS_,comdat
 786              	.LLSDA1855:
 787 0000 FF       		.byte	0xff
 788 0001 FF       		.byte	0xff
 789 0002 01       		.byte	0x1
 790 0003 10       		.uleb128 .LLSDACSE1855-.LLSDACSB1855
 791              	.LLSDACSB1855:
 792 0004 30       		.uleb128 .LEHB7-.LFB1855
 793 0005 A601     		.uleb128 .LEHE7-.LEHB7
 794 0007 00       		.uleb128 0
 795 0008 00       		.uleb128 0
 796 0009 A002     		.uleb128 .LEHB8-.LFB1855
 797 000b 05       		.uleb128 .LEHE8-.LEHB8
 798 000c B802     		.uleb128 .L30-.LFB1855
 799 000e 00       		.uleb128 0
 800 000f CD02     		.uleb128 .LEHB9-.LFB1855
 801 0011 05       		.uleb128 .LEHE9-.LEHB9
 802 0012 00       		.uleb128 0
 803 0013 00       		.uleb128 0
 804              	.LLSDACSE1855:
 805              		.section	.text._ZN9RowVectorplERKS_,"axG",@progbits,_ZN9RowVectorplERKS_,comdat
 807              		.section	.rodata
 808              	.LC10:
 809 0097 526F7756 		.string	"RowVector operator * ("
 809      6563746F 
 809      72206F70 
 809      65726174 
 809      6F72202A 
 810              		.section	.text._ZN9RowVectormlERKS_,"axG",@progbits,_ZN9RowVectormlERKS_,comdat
 811              		.align 2
 812              		.weak	_ZN9RowVectormlERKS_
 814              	_ZN9RowVectormlERKS_:
 815              	.LFB1857:
 120:cpp_vector_double_practice.cpp **** 
 121:cpp_vector_double_practice.cpp ****         RowVector operator * (const double a){
 122:cpp_vector_double_practice.cpp **** #ifdef LOG
 123:cpp_vector_double_practice.cpp ****             std::cout << '[' << &columns << ']' << "RowVector operator * (" << a << ")\n";
 124:cpp_vector_double_practice.cpp **** #endif
 125:cpp_vector_double_practice.cpp **** 
 126:cpp_vector_double_practice.cpp ****             // Make a new vector to return
 127:cpp_vector_double_practice.cpp ****             RowVector temp(*this);
 128:cpp_vector_double_practice.cpp **** 
 129:cpp_vector_double_practice.cpp ****             // Element loop in `for each` style
 130:cpp_vector_double_practice.cpp ****             // c++ 11 or later
 131:cpp_vector_double_practice.cpp ****             for (auto & element : temp.columns){
 132:cpp_vector_double_practice.cpp ****                 element *= a;
 133:cpp_vector_double_practice.cpp ****             }
 134:cpp_vector_double_practice.cpp **** 
 135:cpp_vector_double_practice.cpp ****             // Returning a temporary image
 136:cpp_vector_double_practice.cpp ****             return temp;
 137:cpp_vector_double_practice.cpp ****         }
 138:cpp_vector_double_practice.cpp **** 
 139:cpp_vector_double_practice.cpp ****         const double operator * (const RowVector & other){
 816              		.loc 1 139 0
 817              		.cfi_startproc
 818 0000 55       		pushq	%rbp
 819              		.cfi_def_cfa_offset 16
 820              		.cfi_offset 6, -16
 821 0001 4889E5   		movq	%rsp, %rbp
 822              		.cfi_def_cfa_register 6
 823 0004 53       		pushq	%rbx
 824 0005 4883EC38 		subq	$56, %rsp
 825              		.cfi_offset 3, -24
 826 0009 48897DD8 		movq	%rdi, -40(%rbp)
 827 000d 488975D0 		movq	%rsi, -48(%rbp)
 140:cpp_vector_double_practice.cpp **** #ifdef LOG
 141:cpp_vector_double_practice.cpp ****             std::cout << '[' << &columns << ']' << "RowVector operator * (" << & other << ")\n";
 828              		.loc 1 141 0
 829 0011 BE5B0000 		movl	$91, %esi
 829      00
 830 0016 488D3D00 		leaq	_ZSt4cout(%rip), %rdi
 830      000000
 831 001d E8000000 		call	_ZStlsISt11char_traitsIcEERSt13basic_ostreamIcT_ES5_c@PLT
 831      00
 832 0022 4889C2   		movq	%rax, %rdx
 833 0025 488B45D8 		movq	-40(%rbp), %rax
 834 0029 4889C6   		movq	%rax, %rsi
 835 002c 4889D7   		movq	%rdx, %rdi
 836 002f E8000000 		call	_ZNSolsEPKv@PLT
 836      00
 837 0034 BE5D0000 		movl	$93, %esi
 837      00
 838 0039 4889C7   		movq	%rax, %rdi
 839 003c E8000000 		call	_ZStlsISt11char_traitsIcEERSt13basic_ostreamIcT_ES5_c@PLT
 839      00
 840 0041 488D3500 		leaq	.LC10(%rip), %rsi
 840      000000
 841 0048 4889C7   		movq	%rax, %rdi
 842 004b E8000000 		call	_ZStlsISt11char_traitsIcEERSt13basic_ostreamIcT_ES5_PKc@PLT
 842      00
 843 0050 4889C2   		movq	%rax, %rdx
 844 0053 488B45D0 		movq	-48(%rbp), %rax
 845 0057 4889C6   		movq	%rax, %rsi
 846 005a 4889D7   		movq	%rdx, %rdi
 847 005d E8000000 		call	_ZNSolsEPKv@PLT
 847      00
 848 0062 488D3500 		leaq	.LC3(%rip), %rsi
 848      000000
 849 0069 4889C7   		movq	%rax, %rdi
 850 006c E8000000 		call	_ZStlsISt11char_traitsIcEERSt13basic_ostreamIcT_ES5_PKc@PLT
 850      00
 142:cpp_vector_double_practice.cpp **** #endif
 143:cpp_vector_double_practice.cpp **** 
 144:cpp_vector_double_practice.cpp ****             // Check size
 145:cpp_vector_double_practice.cpp ****             assert(columns.size() == other.columns.size());
 851              		.loc 1 145 0
 852 0071 488B45D8 		movq	-40(%rbp), %rax
 853 0075 4889C7   		movq	%rax, %rdi
 854 0078 E8000000 		call	_ZNKSt6vectorIdSaIdEE4sizeEv
 854      00
 855 007d 4889C3   		movq	%rax, %rbx
 856 0080 488B45D0 		movq	-48(%rbp), %rax
 857 0084 4889C7   		movq	%rax, %rdi
 858 0087 E8000000 		call	_ZNKSt6vectorIdSaIdEE4sizeEv
 858      00
 859 008c 4839C3   		cmpq	%rax, %rbx
 860 008f 741F     		je	.L33
 861              		.loc 1 145 0 is_stmt 0 discriminator 1
 862 0091 488D0D00 		leaq	_ZZN9RowVectormlERKS_E19__PRETTY_FUNCTION__(%rip), %rcx
 862      000000
 863 0098 BA910000 		movl	$145, %edx
 863      00
 864 009d 488D3500 		leaq	.LC8(%rip), %rsi
 864      000000
 865 00a4 488D3D00 		leaq	.LC9(%rip), %rdi
 865      000000
 866 00ab E8000000 		call	__assert_fail@PLT
 866      00
 867              	.L33:
 146:cpp_vector_double_practice.cpp **** 
 147:cpp_vector_double_practice.cpp ****             double dot_product = 0.0;
 868              		.loc 1 147 0 is_stmt 1
 869 00b0 660FEFC0 		pxor	%xmm0, %xmm0
 870 00b4 F20F1145 		movsd	%xmm0, -24(%rbp)
 870      E8
 871              	.LBB18:
 148:cpp_vector_double_practice.cpp **** 
 149:cpp_vector_double_practice.cpp ****             // Element loop
 150:cpp_vector_double_practice.cpp ****             for (uint32_t i = 0; columns.size() > i; ++i){
 872              		.loc 1 150 0
 873 00b9 C745E400 		movl	$0, -28(%rbp)
 873      000000
 874              	.L35:
 875              		.loc 1 150 0 is_stmt 0 discriminator 3
 876 00c0 488B45D8 		movq	-40(%rbp), %rax
 877 00c4 4889C7   		movq	%rax, %rdi
 878 00c7 E8000000 		call	_ZNKSt6vectorIdSaIdEE4sizeEv
 878      00
 879 00cc 4889C2   		movq	%rax, %rdx
 880 00cf 8B45E4   		movl	-28(%rbp), %eax
 881 00d2 4839C2   		cmpq	%rax, %rdx
 882 00d5 0F97C0   		seta	%al
 883 00d8 84C0     		testb	%al, %al
 884 00da 744A     		je	.L34
 151:cpp_vector_double_practice.cpp ****                 dot_product += columns[i] * other.columns[i];
 885              		.loc 1 151 0 is_stmt 1 discriminator 2
 886 00dc 8B55E4   		movl	-28(%rbp), %edx
 887 00df 488B45D8 		movq	-40(%rbp), %rax
 888 00e3 4889D6   		movq	%rdx, %rsi
 889 00e6 4889C7   		movq	%rax, %rdi
 890 00e9 E8000000 		call	_ZNSt6vectorIdSaIdEEixEm
 890      00
 891 00ee F20F1010 		movsd	(%rax), %xmm2
 892 00f2 F20F1155 		movsd	%xmm2, -56(%rbp)
 892      C8
 893 00f7 8B55E4   		movl	-28(%rbp), %edx
 894 00fa 488B45D0 		movq	-48(%rbp), %rax
 895 00fe 4889D6   		movq	%rdx, %rsi
 896 0101 4889C7   		movq	%rax, %rdi
 897 0104 E8000000 		call	_ZNKSt6vectorIdSaIdEEixEm
 897      00
 898 0109 F20F1000 		movsd	(%rax), %xmm0
 899 010d F20F5945 		mulsd	-56(%rbp), %xmm0
 899      C8
 900 0112 F20F104D 		movsd	-24(%rbp), %xmm1
 900      E8
 901 0117 F20F58C1 		addsd	%xmm1, %xmm0
 902 011b F20F1145 		movsd	%xmm0, -24(%rbp)
 902      E8
 150:cpp_vector_double_practice.cpp ****                 dot_product += columns[i] * other.columns[i];
 903              		.loc 1 150 0 discriminator 2
 904 0120 8345E401 		addl	$1, -28(%rbp)
 905 0124 EB9A     		jmp	.L35
 906              	.L34:
 907              	.LBE18:
 152:cpp_vector_double_practice.cpp ****             }
 153:cpp_vector_double_practice.cpp **** 
 154:cpp_vector_double_practice.cpp ****             // Returning a temporary image
 155:cpp_vector_double_practice.cpp ****             return dot_product;
 908              		.loc 1 155 0
 909 0126 F20F1045 		movsd	-24(%rbp), %xmm0
 909      E8
 156:cpp_vector_double_practice.cpp ****         }
 910              		.loc 1 156 0
 911 012b 4883C438 		addq	$56, %rsp
 912 012f 5B       		popq	%rbx
 913 0130 5D       		popq	%rbp
 914              		.cfi_def_cfa 7, 8
 915 0131 C3       		ret
 916              		.cfi_endproc
 917              	.LFE1857:
 919              		.section	.rodata
 920              	.LC11:
 921 00ae 766F6964 		.string	"void show()\n"
 921      2073686F 
 921      7728290A 
 921      00
 922              	.LC12:
 923 00bb 5D203D20 		.string	"] = "
 923      00
 924              		.section	.text._ZN9RowVector4showEv,"axG",@progbits,_ZN9RowVector4showEv,comdat
 925              		.align 2
 926              		.weak	_ZN9RowVector4showEv
 928              	_ZN9RowVector4showEv:
 929              	.LFB1858:
 157:cpp_vector_double_practice.cpp **** 
 158:cpp_vector_double_practice.cpp ****         void show(){
 930              		.loc 1 158 0
 931              		.cfi_startproc
 932 0000 55       		pushq	%rbp
 933              		.cfi_def_cfa_offset 16
 934              		.cfi_offset 6, -16
 935 0001 4889E5   		movq	%rsp, %rbp
 936              		.cfi_def_cfa_register 6
 937 0004 53       		pushq	%rbx
 938 0005 4883EC28 		subq	$40, %rsp
 939              		.cfi_offset 3, -24
 940 0009 48897DD8 		movq	%rdi, -40(%rbp)
 159:cpp_vector_double_practice.cpp **** #ifdef LOG
 160:cpp_vector_double_practice.cpp ****             std::cout << '[' << &columns << ']' << "void show()\n";
 941              		.loc 1 160 0
 942 000d BE5B0000 		movl	$91, %esi
 942      00
 943 0012 488D3D00 		leaq	_ZSt4cout(%rip), %rdi
 943      000000
 944 0019 E8000000 		call	_ZStlsISt11char_traitsIcEERSt13basic_ostreamIcT_ES5_c@PLT
 944      00
 945 001e 4889C2   		movq	%rax, %rdx
 946 0021 488B45D8 		movq	-40(%rbp), %rax
 947 0025 4889C6   		movq	%rax, %rsi
 948 0028 4889D7   		movq	%rdx, %rdi
 949 002b E8000000 		call	_ZNSolsEPKv@PLT
 949      00
 950 0030 BE5D0000 		movl	$93, %esi
 950      00
 951 0035 4889C7   		movq	%rax, %rdi
 952 0038 E8000000 		call	_ZStlsISt11char_traitsIcEERSt13basic_ostreamIcT_ES5_c@PLT
 952      00
 953 003d 488D3500 		leaq	.LC11(%rip), %rsi
 953      000000
 954 0044 4889C7   		movq	%rax, %rdi
 955 0047 E8000000 		call	_ZStlsISt11char_traitsIcEERSt13basic_ostreamIcT_ES5_PKc@PLT
 955      00
 956              	.LBB19:
 161:cpp_vector_double_practice.cpp **** #endif
 162:cpp_vector_double_practice.cpp ****             for (uint32_t i=0; columns.size()> i; ++i){
 957              		.loc 1 162 0
 958 004c C745EC00 		movl	$0, -20(%rbp)
 958      000000
 959              	.L39:
 960              		.loc 1 162 0 is_stmt 0 discriminator 3
 961 0053 488B45D8 		movq	-40(%rbp), %rax
 962 0057 4889C7   		movq	%rax, %rdi
 963 005a E8000000 		call	_ZNKSt6vectorIdSaIdEE4sizeEv
 963      00
 964 005f 4889C2   		movq	%rax, %rdx
 965 0062 8B45EC   		movl	-20(%rbp), %eax
 966 0065 4839C2   		cmpq	%rax, %rdx
 967 0068 0F97C0   		seta	%al
 968 006b 84C0     		testb	%al, %al
 969 006d 0F848200 		je	.L40
 969      0000
 163:cpp_vector_double_practice.cpp ****                 std::cout << name << '[' << i << "] = " << columns[i] << '\n';
 970              		.loc 1 163 0 is_stmt 1 discriminator 2
 971 0073 488B45D8 		movq	-40(%rbp), %rax
 972 0077 4883C018 		addq	$24, %rax
 973 007b 4889C6   		movq	%rax, %rsi
 974 007e 488D3D00 		leaq	_ZSt4cout(%rip), %rdi
 974      000000
 975 0085 E8000000 		call	_ZStlsIcSt11char_traitsIcESaIcEERSt13basic_ostreamIT_T0_ES7_RKNSt7__cxx1112basic_stringIS4_S5
 975      00
 976 008a BE5B0000 		movl	$91, %esi
 976      00
 977 008f 4889C7   		movq	%rax, %rdi
 978 0092 E8000000 		call	_ZStlsISt11char_traitsIcEERSt13basic_ostreamIcT_ES5_c@PLT
 978      00
 979 0097 4889C2   		movq	%rax, %rdx
 980 009a 8B45EC   		movl	-20(%rbp), %eax
 981 009d 89C6     		movl	%eax, %esi
 982 009f 4889D7   		movq	%rdx, %rdi
 983 00a2 E8000000 		call	_ZNSolsEj@PLT
 983      00
 984 00a7 488D3500 		leaq	.LC12(%rip), %rsi
 984      000000
 985 00ae 4889C7   		movq	%rax, %rdi
 986 00b1 E8000000 		call	_ZStlsISt11char_traitsIcEERSt13basic_ostreamIcT_ES5_PKc@PLT
 986      00
 987 00b6 4889C3   		movq	%rax, %rbx
 988 00b9 8B55EC   		movl	-20(%rbp), %edx
 989 00bc 488B45D8 		movq	-40(%rbp), %rax
 990 00c0 4889D6   		movq	%rdx, %rsi
 991 00c3 4889C7   		movq	%rax, %rdi
 992 00c6 E8000000 		call	_ZNSt6vectorIdSaIdEEixEm
 992      00
 993 00cb 488B00   		movq	(%rax), %rax
 994 00ce 488945D0 		movq	%rax, -48(%rbp)
 995 00d2 F20F1045 		movsd	-48(%rbp), %xmm0
 995      D0
 996 00d7 4889DF   		movq	%rbx, %rdi
 997 00da E8000000 		call	_ZNSolsEd@PLT
 997      00
 998 00df BE0A0000 		movl	$10, %esi
 998      00
 999 00e4 4889C7   		movq	%rax, %rdi
 1000 00e7 E8000000 		call	_ZStlsISt11char_traitsIcEERSt13basic_ostreamIcT_ES5_c@PLT
 1000      00
 162:cpp_vector_double_practice.cpp ****                 std::cout << name << '[' << i << "] = " << columns[i] << '\n';
 1001              		.loc 1 162 0 discriminator 2
 1002 00ec 8345EC01 		addl	$1, -20(%rbp)
 1003 00f0 E95EFFFF 		jmp	.L39
 1003      FF
 1004              	.L40:
 1005              	.LBE19:
 164:cpp_vector_double_practice.cpp ****             }
 165:cpp_vector_double_practice.cpp ****         }
 1006              		.loc 1 165 0
 1007 00f5 90       		nop
 1008 00f6 4883C428 		addq	$40, %rsp
 1009 00fa 5B       		popq	%rbx
 1010 00fb 5D       		popq	%rbp
 1011              		.cfi_def_cfa 7, 8
 1012 00fc C3       		ret
 1013              		.cfi_endproc
 1014              	.LFE1858:
 1016              		.section	.rodata
 1017              		.align 8
 1018              	.LC15:
 1019 00c0 526F7756 		.string	"RowVector row (2u, s, \"row\");\n"
 1019      6563746F 
 1019      7220726F 
 1019      77202832 
 1019      752C2073 
 1020              	.LC16:
 1021 00df 726F7700 		.string	"row"
 1022              	.LC17:
 1023 00e3 526F7756 		.string	"RowVector another_row (row);\n"
 1023      6563746F 
 1023      7220616E 
 1023      6F746865 
 1023      725F726F 
 1024              	.LC18:
 1025 0101 616E6F74 		.string	"another_row[1] += 0.5;\n"
 1025      6865725F 
 1025      726F775B 
 1025      315D202B 
 1025      3D20302E 
 1026 0119 00000000 		.align 8
 1026      000000
 1027              	.LC20:
 1028 0120 526F7756 		.string	"RowVector row_plus_another(row + another_row);\n"
 1028      6563746F 
 1028      7220726F 
 1028      775F706C 
 1028      75735F61 
 1029              	.LC21:
 1030 0150 526F7756 		.string	"RowVector zeros(3);\n"
 1030      6563746F 
 1030      72207A65 
 1030      726F7328 
 1030      33293B0A 
 1031              	.LC22:
 1032 0165 7A65726F 		.string	"zeros"
 1032      7300
 1033              	.LC24:
 1034 016b 6F727468 		.string	"ortho"
 1034      6F00
 1035              	.LC25:
 1036 0171 646F7562 		.string	"double dot = row * ortho;\n"
 1036      6C652064 
 1036      6F74203D 
 1036      20726F77 
 1036      202A206F 
 1037              	.LC26:
 1038 018c 646F7420 		.string	"dot  = "
 1038      203D2000 
 1039              	.LC27:
 1040 0194 646F7420 		.string	"dot = row * row;\n"
 1040      3D20726F 
 1040      77202A20 
 1040      726F773B 
 1040      0A00
 1041              		.text
 1042              		.globl	main
 1044              	main:
 1045              	.LFB1859:
 166:cpp_vector_double_practice.cpp **** };
 167:cpp_vector_double_practice.cpp **** 
 168:cpp_vector_double_practice.cpp **** 
 169:cpp_vector_double_practice.cpp **** int32_t main(int32_t argn, char *argv[]){
 1046              		.loc 1 169 0
 1047              		.cfi_startproc
 1048              		.cfi_personality 0x9b,DW.ref.__gxx_personality_v0
 1049              		.cfi_lsda 0x1b,.LLSDA1859
 1050 0000 55       		pushq	%rbp
 1051              		.cfi_def_cfa_offset 16
 1052              		.cfi_offset 6, -16
 1053 0001 4889E5   		movq	%rsp, %rbp
 1054              		.cfi_def_cfa_register 6
 1055 0004 53       		pushq	%rbx
 1056 0005 4881EC98 		subq	$408, %rsp
 1056      010000
 1057              		.cfi_offset 3, -24
 1058 000c 89BD7CFE 		movl	%edi, -388(%rbp)
 1058      FFFF
 1059 0012 4889B570 		movq	%rsi, -400(%rbp)
 1059      FEFFFF
 1060              		.loc 1 169 0
 1061 0019 64488B04 		movq	%fs:40, %rax
 1061      25280000 
 1061      00
 1062 0022 488945E8 		movq	%rax, -24(%rbp)
 1063 0026 31C0     		xorl	%eax, %eax
 170:cpp_vector_double_practice.cpp **** 	double s[] = {1.0, 2.0};
 1064              		.loc 1 170 0
 1065 0028 F20F1005 		movsd	.LC13(%rip), %xmm0
 1065      00000000 
 1066 0030 F20F1185 		movsd	%xmm0, -368(%rbp)
 1066      90FEFFFF 
 1067 0038 F20F1005 		movsd	.LC14(%rip), %xmm0
 1067      00000000 
 1068 0040 F20F1185 		movsd	%xmm0, -360(%rbp)
 1068      98FEFFFF 
 171:cpp_vector_double_practice.cpp **** 
 172:cpp_vector_double_practice.cpp ****     std::cout << "RowVector row (2u, s, \"row\");\n";
 1069              		.loc 1 172 0
 1070 0048 488D3500 		leaq	.LC15(%rip), %rsi
 1070      000000
 1071 004f 488D3D00 		leaq	_ZSt4cout(%rip), %rdi
 1071      000000
 1072              	.LEHB10:
 1073 0056 E8000000 		call	_ZStlsISt11char_traitsIcEERSt13basic_ostreamIcT_ES5_PKc@PLT
 1073      00
 173:cpp_vector_double_practice.cpp **** 	RowVector row (2u, s, "row");
 1074              		.loc 1 173 0
 1075 005b 488D9590 		leaq	-368(%rbp), %rdx
 1075      FEFFFF
 1076 0062 488D85B0 		leaq	-336(%rbp), %rax
 1076      FEFFFF
 1077 0069 488D0D00 		leaq	.LC16(%rip), %rcx
 1077      000000
 1078 0070 BE020000 		movl	$2, %esi
 1078      00
 1079 0075 4889C7   		movq	%rax, %rdi
 1080 0078 E8000000 		call	_ZN9RowVectorC1EjPKdPKc
 1080      00
 1081              	.LEHE10:
 174:cpp_vector_double_practice.cpp **** 
 175:cpp_vector_double_practice.cpp ****     row.show();
 1082              		.loc 1 175 0
 1083 007d 488D85B0 		leaq	-336(%rbp), %rax
 1083      FEFFFF
 1084 0084 4889C7   		movq	%rax, %rdi
 1085              	.LEHB11:
 1086 0087 E8000000 		call	_ZN9RowVector4showEv
 1086      00
 176:cpp_vector_double_practice.cpp **** 
 177:cpp_vector_double_practice.cpp ****     std::cout << "RowVector another_row (row);\n";
 1087              		.loc 1 177 0
 1088 008c 488D3500 		leaq	.LC17(%rip), %rsi
 1088      000000
 1089 0093 488D3D00 		leaq	_ZSt4cout(%rip), %rdi
 1089      000000
 1090 009a E8000000 		call	_ZStlsISt11char_traitsIcEERSt13basic_ostreamIcT_ES5_PKc@PLT
 1090      00
 178:cpp_vector_double_practice.cpp **** 	RowVector another_row (row);
 1091              		.loc 1 178 0
 1092 009f 488D95B0 		leaq	-336(%rbp), %rdx
 1092      FEFFFF
 1093 00a6 488D85F0 		leaq	-272(%rbp), %rax
 1093      FEFFFF
 1094 00ad 4889D6   		movq	%rdx, %rsi
 1095 00b0 4889C7   		movq	%rax, %rdi
 1096 00b3 E8000000 		call	_ZN9RowVectorC1ERKS_
 1096      00
 1097              	.LEHE11:
 179:cpp_vector_double_practice.cpp ****     row.show();
 1098              		.loc 1 179 0
 1099 00b8 488D85B0 		leaq	-336(%rbp), %rax
 1099      FEFFFF
 1100 00bf 4889C7   		movq	%rax, %rdi
 1101              	.LEHB12:
 1102 00c2 E8000000 		call	_ZN9RowVector4showEv
 1102      00
 180:cpp_vector_double_practice.cpp ****     another_row.show();
 1103              		.loc 1 180 0
 1104 00c7 488D85F0 		leaq	-272(%rbp), %rax
 1104      FEFFFF
 1105 00ce 4889C7   		movq	%rax, %rdi
 1106 00d1 E8000000 		call	_ZN9RowVector4showEv
 1106      00
 181:cpp_vector_double_practice.cpp **** 
 182:cpp_vector_double_practice.cpp ****     std::cout << "another_row[1] += 0.5;\n";
 1107              		.loc 1 182 0
 1108 00d6 488D3500 		leaq	.LC18(%rip), %rsi
 1108      000000
 1109 00dd 488D3D00 		leaq	_ZSt4cout(%rip), %rdi
 1109      000000
 1110 00e4 E8000000 		call	_ZStlsISt11char_traitsIcEERSt13basic_ostreamIcT_ES5_PKc@PLT
 1110      00
 183:cpp_vector_double_practice.cpp ****     another_row[1] += 0.5;
 1111              		.loc 1 183 0
 1112 00e9 488D85F0 		leaq	-272(%rbp), %rax
 1112      FEFFFF
 1113 00f0 BE010000 		movl	$1, %esi
 1113      00
 1114 00f5 4889C7   		movq	%rax, %rdi
 1115 00f8 E8000000 		call	_ZN9RowVectorixEj
 1115      00
 1116 00fd F20F1008 		movsd	(%rax), %xmm1
 1117 0101 F20F1005 		movsd	.LC19(%rip), %xmm0
 1117      00000000 
 1118 0109 F20F58C1 		addsd	%xmm1, %xmm0
 1119 010d F20F1100 		movsd	%xmm0, (%rax)
 184:cpp_vector_double_practice.cpp ****     row.show();
 1120              		.loc 1 184 0
 1121 0111 488D85B0 		leaq	-336(%rbp), %rax
 1121      FEFFFF
 1122 0118 4889C7   		movq	%rax, %rdi
 1123 011b E8000000 		call	_ZN9RowVector4showEv
 1123      00
 185:cpp_vector_double_practice.cpp ****     another_row.show();
 1124              		.loc 1 185 0
 1125 0120 488D85F0 		leaq	-272(%rbp), %rax
 1125      FEFFFF
 1126 0127 4889C7   		movq	%rax, %rdi
 1127 012a E8000000 		call	_ZN9RowVector4showEv
 1127      00
 186:cpp_vector_double_practice.cpp **** 
 187:cpp_vector_double_practice.cpp ****     std::cout << "RowVector row_plus_another(row + another_row);\n";
 1128              		.loc 1 187 0
 1129 012f 488D3500 		leaq	.LC20(%rip), %rsi
 1129      000000
 1130 0136 488D3D00 		leaq	_ZSt4cout(%rip), %rdi
 1130      000000
 1131 013d E8000000 		call	_ZStlsISt11char_traitsIcEERSt13basic_ostreamIcT_ES5_PKc@PLT
 1131      00
 188:cpp_vector_double_practice.cpp ****     RowVector row_plus_another(row + another_row);
 1132              		.loc 1 188 0
 1133 0142 488D8530 		leaq	-208(%rbp), %rax
 1133      FFFFFF
 1134 0149 488D95F0 		leaq	-272(%rbp), %rdx
 1134      FEFFFF
 1135 0150 488D8DB0 		leaq	-336(%rbp), %rcx
 1135      FEFFFF
 1136 0157 4889CE   		movq	%rcx, %rsi
 1137 015a 4889C7   		movq	%rax, %rdi
 1138 015d E8000000 		call	_ZN9RowVectorplERKS_
 1138      00
 1139              	.LEHE12:
 189:cpp_vector_double_practice.cpp ****     row.show();
 1140              		.loc 1 189 0
 1141 0162 488D85B0 		leaq	-336(%rbp), %rax
 1141      FEFFFF
 1142 0169 4889C7   		movq	%rax, %rdi
 1143              	.LEHB13:
 1144 016c E8000000 		call	_ZN9RowVector4showEv
 1144      00
 190:cpp_vector_double_practice.cpp ****     another_row.show();
 1145              		.loc 1 190 0
 1146 0171 488D85F0 		leaq	-272(%rbp), %rax
 1146      FEFFFF
 1147 0178 4889C7   		movq	%rax, %rdi
 1148 017b E8000000 		call	_ZN9RowVector4showEv
 1148      00
 191:cpp_vector_double_practice.cpp ****     row_plus_another.show();
 1149              		.loc 1 191 0
 1150 0180 488D8530 		leaq	-208(%rbp), %rax
 1150      FFFFFF
 1151 0187 4889C7   		movq	%rax, %rdi
 1152 018a E8000000 		call	_ZN9RowVector4showEv
 1152      00
 192:cpp_vector_double_practice.cpp **** 
 193:cpp_vector_double_practice.cpp ****     std::cout << "RowVector zeros(3);\n";
 1153              		.loc 1 193 0
 1154 018f 488D3500 		leaq	.LC21(%rip), %rsi
 1154      000000
 1155 0196 488D3D00 		leaq	_ZSt4cout(%rip), %rdi
 1155      000000
 1156 019d E8000000 		call	_ZStlsISt11char_traitsIcEERSt13basic_ostreamIcT_ES5_PKc@PLT
 1156      00
 194:cpp_vector_double_practice.cpp **** 	RowVector zeros(3u, "zeros");
 1157              		.loc 1 194 0
 1158 01a2 488D8570 		leaq	-144(%rbp), %rax
 1158      FFFFFF
 1159 01a9 488D1500 		leaq	.LC22(%rip), %rdx
 1159      000000
 1160 01b0 BE030000 		movl	$3, %esi
 1160      00
 1161 01b5 4889C7   		movq	%rax, %rdi
 1162 01b8 E8000000 		call	_ZN9RowVectorC1EjPKc
 1162      00
 1163              	.LEHE13:
 195:cpp_vector_double_practice.cpp ****     row.show();
 1164              		.loc 1 195 0
 1165 01bd 488D85B0 		leaq	-336(%rbp), %rax
 1165      FEFFFF
 1166 01c4 4889C7   		movq	%rax, %rdi
 1167              	.LEHB14:
 1168 01c7 E8000000 		call	_ZN9RowVector4showEv
 1168      00
 196:cpp_vector_double_practice.cpp ****     another_row.show();
 1169              		.loc 1 196 0
 1170 01cc 488D85F0 		leaq	-272(%rbp), %rax
 1170      FEFFFF
 1171 01d3 4889C7   		movq	%rax, %rdi
 1172 01d6 E8000000 		call	_ZN9RowVector4showEv
 1172      00
 197:cpp_vector_double_practice.cpp ****     row_plus_another.show();
 1173              		.loc 1 197 0
 1174 01db 488D8530 		leaq	-208(%rbp), %rax
 1174      FFFFFF
 1175 01e2 4889C7   		movq	%rax, %rdi
 1176 01e5 E8000000 		call	_ZN9RowVector4showEv
 1176      00
 198:cpp_vector_double_practice.cpp ****     zeros.show();
 1177              		.loc 1 198 0
 1178 01ea 488D8570 		leaq	-144(%rbp), %rax
 1178      FFFFFF
 1179 01f1 4889C7   		movq	%rax, %rdi
 1180 01f4 E8000000 		call	_ZN9RowVector4showEv
 1180      00
 199:cpp_vector_double_practice.cpp **** 
 200:cpp_vector_double_practice.cpp ****     double t[] = {2.0, -1.0};
 1181              		.loc 1 200 0
 1182 01f9 F20F1005 		movsd	.LC14(%rip), %xmm0
 1182      00000000 
 1183 0201 F20F1185 		movsd	%xmm0, -352(%rbp)
 1183      A0FEFFFF 
 1184 0209 F20F1005 		movsd	.LC23(%rip), %xmm0
 1184      00000000 
 1185 0211 F20F1185 		movsd	%xmm0, -344(%rbp)
 1185      A8FEFFFF 
 201:cpp_vector_double_practice.cpp **** 	RowVector ortho (2u, t, "ortho");
 1186              		.loc 1 201 0
 1187 0219 488D95A0 		leaq	-352(%rbp), %rdx
 1187      FEFFFF
 1188 0220 488D45B0 		leaq	-80(%rbp), %rax
 1189 0224 488D0D00 		leaq	.LC24(%rip), %rcx
 1189      000000
 1190 022b BE020000 		movl	$2, %esi
 1190      00
 1191 0230 4889C7   		movq	%rax, %rdi
 1192 0233 E8000000 		call	_ZN9RowVectorC1EjPKdPKc
 1192      00
 1193              	.LEHE14:
 202:cpp_vector_double_practice.cpp ****     double dot = row * ortho;
 1194              		.loc 1 202 0
 1195 0238 488D55B0 		leaq	-80(%rbp), %rdx
 1196 023c 488D85B0 		leaq	-336(%rbp), %rax
 1196      FEFFFF
 1197 0243 4889D6   		movq	%rdx, %rsi
 1198 0246 4889C7   		movq	%rax, %rdi
 1199              	.LEHB15:
 1200 0249 E8000000 		call	_ZN9RowVectormlERKS_
 1200      00
 1201 024e 66480F7E 		movq	%xmm0, %rax
 1201      C0
 1202 0253 48898588 		movq	%rax, -376(%rbp)
 1202      FEFFFF
 203:cpp_vector_double_practice.cpp ****     std::cout << "double dot = row * ortho;\n";
 1203              		.loc 1 203 0
 1204 025a 488D3500 		leaq	.LC25(%rip), %rsi
 1204      000000
 1205 0261 488D3D00 		leaq	_ZSt4cout(%rip), %rdi
 1205      000000
 1206 0268 E8000000 		call	_ZStlsISt11char_traitsIcEERSt13basic_ostreamIcT_ES5_PKc@PLT
 1206      00
 204:cpp_vector_double_practice.cpp ****     std::cout << "dot  = " << dot << '\n';
 1207              		.loc 1 204 0
 1208 026d 488D3500 		leaq	.LC26(%rip), %rsi
 1208      000000
 1209 0274 488D3D00 		leaq	_ZSt4cout(%rip), %rdi
 1209      000000
 1210 027b E8000000 		call	_ZStlsISt11char_traitsIcEERSt13basic_ostreamIcT_ES5_PKc@PLT
 1210      00
 1211 0280 4889C2   		movq	%rax, %rdx
 1212 0283 488B8588 		movq	-376(%rbp), %rax
 1212      FEFFFF
 1213 028a 48898568 		movq	%rax, -408(%rbp)
 1213      FEFFFF
 1214 0291 F20F1085 		movsd	-408(%rbp), %xmm0
 1214      68FEFFFF 
 1215 0299 4889D7   		movq	%rdx, %rdi
 1216 029c E8000000 		call	_ZNSolsEd@PLT
 1216      00
 1217              		.loc 1 204 0 is_stmt 0 discriminator 1
 1218 02a1 BE0A0000 		movl	$10, %esi
 1218      00
 1219 02a6 4889C7   		movq	%rax, %rdi
 1220 02a9 E8000000 		call	_ZStlsISt11char_traitsIcEERSt13basic_ostreamIcT_ES5_c@PLT
 1220      00
 205:cpp_vector_double_practice.cpp **** 
 206:cpp_vector_double_practice.cpp ****     std::cout << "dot = row * row;\n";
 1221              		.loc 1 206 0 is_stmt 1
 1222 02ae 488D3500 		leaq	.LC27(%rip), %rsi
 1222      000000
 1223 02b5 488D3D00 		leaq	_ZSt4cout(%rip), %rdi
 1223      000000
 1224 02bc E8000000 		call	_ZStlsISt11char_traitsIcEERSt13basic_ostreamIcT_ES5_PKc@PLT
 1224      00
 207:cpp_vector_double_practice.cpp ****     dot = row * row;
 1225              		.loc 1 207 0
 1226 02c1 488D95B0 		leaq	-336(%rbp), %rdx
 1226      FEFFFF
 1227 02c8 488D85B0 		leaq	-336(%rbp), %rax
 1227      FEFFFF
 1228 02cf 4889D6   		movq	%rdx, %rsi
 1229 02d2 4889C7   		movq	%rax, %rdi
 1230 02d5 E8000000 		call	_ZN9RowVectormlERKS_
 1230      00
 1231 02da 66480F7E 		movq	%xmm0, %rax
 1231      C0
 1232 02df 48898588 		movq	%rax, -376(%rbp)
 1232      FEFFFF
 208:cpp_vector_double_practice.cpp ****     std::cout << "dot  = " << dot << '\n';
 1233              		.loc 1 208 0
 1234 02e6 488D3500 		leaq	.LC26(%rip), %rsi
 1234      000000
 1235 02ed 488D3D00 		leaq	_ZSt4cout(%rip), %rdi
 1235      000000
 1236 02f4 E8000000 		call	_ZStlsISt11char_traitsIcEERSt13basic_ostreamIcT_ES5_PKc@PLT
 1236      00
 1237              		.loc 1 208 0 is_stmt 0 discriminator 1
 1238 02f9 4889C2   		movq	%rax, %rdx
 1239 02fc 488B8588 		movq	-376(%rbp), %rax
 1239      FEFFFF
 1240 0303 48898568 		movq	%rax, -408(%rbp)
 1240      FEFFFF
 1241 030a F20F1085 		movsd	-408(%rbp), %xmm0
 1241      68FEFFFF 
 1242 0312 4889D7   		movq	%rdx, %rdi
 1243 0315 E8000000 		call	_ZNSolsEd@PLT
 1243      00
 1244 031a BE0A0000 		movl	$10, %esi
 1244      00
 1245 031f 4889C7   		movq	%rax, %rdi
 1246 0322 E8000000 		call	_ZStlsISt11char_traitsIcEERSt13basic_ostreamIcT_ES5_c@PLT
 1246      00
 1247              	.LEHE15:
 201:cpp_vector_double_practice.cpp ****     double dot = row * ortho;
 1248              		.loc 1 201 0 is_stmt 1
 1249 0327 488D45B0 		leaq	-80(%rbp), %rax
 1250 032b 4889C7   		movq	%rax, %rdi
 1251 032e E8000000 		call	_ZN9RowVectorD1Ev
 1251      00
 194:cpp_vector_double_practice.cpp ****     row.show();
 1252              		.loc 1 194 0
 1253 0333 488D8570 		leaq	-144(%rbp), %rax
 1253      FFFFFF
 1254 033a 4889C7   		movq	%rax, %rdi
 1255 033d E8000000 		call	_ZN9RowVectorD1Ev
 1255      00
 188:cpp_vector_double_practice.cpp ****     row.show();
 1256              		.loc 1 188 0
 1257 0342 488D8530 		leaq	-208(%rbp), %rax
 1257      FFFFFF
 1258 0349 4889C7   		movq	%rax, %rdi
 1259 034c E8000000 		call	_ZN9RowVectorD1Ev
 1259      00
 178:cpp_vector_double_practice.cpp ****     row.show();
 1260              		.loc 1 178 0
 1261 0351 488D85F0 		leaq	-272(%rbp), %rax
 1261      FEFFFF
 1262 0358 4889C7   		movq	%rax, %rdi
 1263 035b E8000000 		call	_ZN9RowVectorD1Ev
 1263      00
 173:cpp_vector_double_practice.cpp **** 
 1264              		.loc 1 173 0
 1265 0360 488D85B0 		leaq	-336(%rbp), %rax
 1265      FEFFFF
 1266 0367 4889C7   		movq	%rax, %rdi
 1267 036a E8000000 		call	_ZN9RowVectorD1Ev
 1267      00
 209:cpp_vector_double_practice.cpp **** 
 210:cpp_vector_double_practice.cpp **** }
 1268              		.loc 1 210 0
 1269 036f B8000000 		movl	$0, %eax
 1269      00
 1270 0374 488B4DE8 		movq	-24(%rbp), %rcx
 1271 0378 6448330C 		xorq	%fs:40, %rcx
 1271      25280000 
 1271      00
 1272 0381 7471     		je	.L48
 1273 0383 EB6A     		jmp	.L54
 1274              	.L53:
 1275 0385 4889C3   		movq	%rax, %rbx
 201:cpp_vector_double_practice.cpp ****     double dot = row * ortho;
 1276              		.loc 1 201 0
 1277 0388 488D45B0 		leaq	-80(%rbp), %rax
 1278 038c 4889C7   		movq	%rax, %rdi
 1279 038f E8000000 		call	_ZN9RowVectorD1Ev
 1279      00
 1280 0394 EB03     		jmp	.L44
 1281              	.L52:
 1282 0396 4889C3   		movq	%rax, %rbx
 1283              	.L44:
 194:cpp_vector_double_practice.cpp ****     row.show();
 1284              		.loc 1 194 0
 1285 0399 488D8570 		leaq	-144(%rbp), %rax
 1285      FFFFFF
 1286 03a0 4889C7   		movq	%rax, %rdi
 1287 03a3 E8000000 		call	_ZN9RowVectorD1Ev
 1287      00
 1288 03a8 EB03     		jmp	.L45
 1289              	.L51:
 1290 03aa 4889C3   		movq	%rax, %rbx
 1291              	.L45:
 188:cpp_vector_double_practice.cpp ****     row.show();
 1292              		.loc 1 188 0
 1293 03ad 488D8530 		leaq	-208(%rbp), %rax
 1293      FFFFFF
 1294 03b4 4889C7   		movq	%rax, %rdi
 1295 03b7 E8000000 		call	_ZN9RowVectorD1Ev
 1295      00
 1296 03bc EB03     		jmp	.L46
 1297              	.L50:
 1298 03be 4889C3   		movq	%rax, %rbx
 1299              	.L46:
 178:cpp_vector_double_practice.cpp ****     row.show();
 1300              		.loc 1 178 0
 1301 03c1 488D85F0 		leaq	-272(%rbp), %rax
 1301      FEFFFF
 1302 03c8 4889C7   		movq	%rax, %rdi
 1303 03cb E8000000 		call	_ZN9RowVectorD1Ev
 1303      00
 1304 03d0 EB03     		jmp	.L47
 1305              	.L49:
 1306 03d2 4889C3   		movq	%rax, %rbx
 1307              	.L47:
 173:cpp_vector_double_practice.cpp **** 
 1308              		.loc 1 173 0
 1309 03d5 488D85B0 		leaq	-336(%rbp), %rax
 1309      FEFFFF
 1310 03dc 4889C7   		movq	%rax, %rdi
 1311 03df E8000000 		call	_ZN9RowVectorD1Ev
 1311      00
 1312 03e4 4889D8   		movq	%rbx, %rax
 1313 03e7 4889C7   		movq	%rax, %rdi
 1314              	.LEHB16:
 1315 03ea E8000000 		call	_Unwind_Resume@PLT
 1315      00
 1316              	.LEHE16:
 1317              	.L54:
 1318              		.loc 1 210 0
 1319 03ef E8000000 		call	__stack_chk_fail@PLT
 1319      00
 1320              	.L48:
 1321 03f4 4881C498 		addq	$408, %rsp
 1321      010000
 1322 03fb 5B       		popq	%rbx
 1323 03fc 5D       		popq	%rbp
 1324              		.cfi_def_cfa 7, 8
 1325 03fd C3       		ret
 1326              		.cfi_endproc
 1327              	.LFE1859:
 1328              		.section	.gcc_except_table,"a",@progbits
 1329              	.LLSDA1859:
 1330 0000 FF       		.byte	0xff
 1331 0001 FF       		.byte	0xff
 1332 0002 01       		.byte	0x1
 1333 0003 29       		.uleb128 .LLSDACSE1859-.LLSDACSB1859
 1334              	.LLSDACSB1859:
 1335 0004 56       		.uleb128 .LEHB10-.LFB1859
 1336 0005 27       		.uleb128 .LEHE10-.LEHB10
 1337 0006 00       		.uleb128 0
 1338 0007 00       		.uleb128 0
 1339 0008 8701     		.uleb128 .LEHB11-.LFB1859
 1340 000a 31       		.uleb128 .LEHE11-.LEHB11
 1341 000b D207     		.uleb128 .L49-.LFB1859
 1342 000d 00       		.uleb128 0
 1343 000e C201     		.uleb128 .LEHB12-.LFB1859
 1344 0010 A001     		.uleb128 .LEHE12-.LEHB12
 1345 0012 BE07     		.uleb128 .L50-.LFB1859
 1346 0014 00       		.uleb128 0
 1347 0015 EC02     		.uleb128 .LEHB13-.LFB1859
 1348 0017 51       		.uleb128 .LEHE13-.LEHB13
 1349 0018 AA07     		.uleb128 .L51-.LFB1859
 1350 001a 00       		.uleb128 0
 1351 001b C703     		.uleb128 .LEHB14-.LFB1859
 1352 001d 71       		.uleb128 .LEHE14-.LEHB14
 1353 001e 9607     		.uleb128 .L52-.LFB1859
 1354 0020 00       		.uleb128 0
 1355 0021 C904     		.uleb128 .LEHB15-.LFB1859
 1356 0023 DE01     		.uleb128 .LEHE15-.LEHB15
 1357 0025 8507     		.uleb128 .L53-.LFB1859
 1358 0027 00       		.uleb128 0
 1359 0028 EA07     		.uleb128 .LEHB16-.LFB1859
 1360 002a 05       		.uleb128 .LEHE16-.LEHB16
 1361 002b 00       		.uleb128 0
 1362 002c 00       		.uleb128 0
 1363              	.LLSDACSE1859:
 1364              		.text
 1366              		.section	.text._ZNSt6vectorIdSaIdEEC2Ev,"axG",@progbits,_ZNSt6vectorIdSaIdEEC5Ev,comdat
 1367              		.align 2
 1368              		.weak	_ZNSt6vectorIdSaIdEEC2Ev
 1370              	_ZNSt6vectorIdSaIdEEC2Ev:
 1371              	.LFB2098:
 1372              		.file 2 "/usr/include/c++/7/bits/stl_vector.h"
   1:/usr/include/c++/7/bits/stl_vector.h **** // Vector implementation -*- C++ -*-
   2:/usr/include/c++/7/bits/stl_vector.h **** 
   3:/usr/include/c++/7/bits/stl_vector.h **** // Copyright (C) 2001-2017 Free Software Foundation, Inc.
   4:/usr/include/c++/7/bits/stl_vector.h **** //
   5:/usr/include/c++/7/bits/stl_vector.h **** // This file is part of the GNU ISO C++ Library.  This library is free
   6:/usr/include/c++/7/bits/stl_vector.h **** // software; you can redistribute it and/or modify it under the
   7:/usr/include/c++/7/bits/stl_vector.h **** // terms of the GNU General Public License as published by the
   8:/usr/include/c++/7/bits/stl_vector.h **** // Free Software Foundation; either version 3, or (at your option)
   9:/usr/include/c++/7/bits/stl_vector.h **** // any later version.
  10:/usr/include/c++/7/bits/stl_vector.h **** 
  11:/usr/include/c++/7/bits/stl_vector.h **** // This library is distributed in the hope that it will be useful,
  12:/usr/include/c++/7/bits/stl_vector.h **** // but WITHOUT ANY WARRANTY; without even the implied warranty of
  13:/usr/include/c++/7/bits/stl_vector.h **** // MERCHANTABILITY or FITNESS FOR A PARTICULAR PURPOSE.  See the
  14:/usr/include/c++/7/bits/stl_vector.h **** // GNU General Public License for more details.
  15:/usr/include/c++/7/bits/stl_vector.h **** 
  16:/usr/include/c++/7/bits/stl_vector.h **** // Under Section 7 of GPL version 3, you are granted additional
  17:/usr/include/c++/7/bits/stl_vector.h **** // permissions described in the GCC Runtime Library Exception, version
  18:/usr/include/c++/7/bits/stl_vector.h **** // 3.1, as published by the Free Software Foundation.
  19:/usr/include/c++/7/bits/stl_vector.h **** 
  20:/usr/include/c++/7/bits/stl_vector.h **** // You should have received a copy of the GNU General Public License and
  21:/usr/include/c++/7/bits/stl_vector.h **** // a copy of the GCC Runtime Library Exception along with this program;
  22:/usr/include/c++/7/bits/stl_vector.h **** // see the files COPYING3 and COPYING.RUNTIME respectively.  If not, see
  23:/usr/include/c++/7/bits/stl_vector.h **** // <http://www.gnu.org/licenses/>.
  24:/usr/include/c++/7/bits/stl_vector.h **** 
  25:/usr/include/c++/7/bits/stl_vector.h **** /*
  26:/usr/include/c++/7/bits/stl_vector.h ****  *
  27:/usr/include/c++/7/bits/stl_vector.h ****  * Copyright (c) 1994
  28:/usr/include/c++/7/bits/stl_vector.h ****  * Hewlett-Packard Company
  29:/usr/include/c++/7/bits/stl_vector.h ****  *
  30:/usr/include/c++/7/bits/stl_vector.h ****  * Permission to use, copy, modify, distribute and sell this software
  31:/usr/include/c++/7/bits/stl_vector.h ****  * and its documentation for any purpose is hereby granted without fee,
  32:/usr/include/c++/7/bits/stl_vector.h ****  * provided that the above copyright notice appear in all copies and
  33:/usr/include/c++/7/bits/stl_vector.h ****  * that both that copyright notice and this permission notice appear
  34:/usr/include/c++/7/bits/stl_vector.h ****  * in supporting documentation.  Hewlett-Packard Company makes no
  35:/usr/include/c++/7/bits/stl_vector.h ****  * representations about the suitability of this software for any
  36:/usr/include/c++/7/bits/stl_vector.h ****  * purpose.  It is provided "as is" without express or implied warranty.
  37:/usr/include/c++/7/bits/stl_vector.h ****  *
  38:/usr/include/c++/7/bits/stl_vector.h ****  *
  39:/usr/include/c++/7/bits/stl_vector.h ****  * Copyright (c) 1996
  40:/usr/include/c++/7/bits/stl_vector.h ****  * Silicon Graphics Computer Systems, Inc.
  41:/usr/include/c++/7/bits/stl_vector.h ****  *
  42:/usr/include/c++/7/bits/stl_vector.h ****  * Permission to use, copy, modify, distribute and sell this software
  43:/usr/include/c++/7/bits/stl_vector.h ****  * and its documentation for any purpose is hereby granted without fee,
  44:/usr/include/c++/7/bits/stl_vector.h ****  * provided that the above copyright notice appear in all copies and
  45:/usr/include/c++/7/bits/stl_vector.h ****  * that both that copyright notice and this permission notice appear
  46:/usr/include/c++/7/bits/stl_vector.h ****  * in supporting documentation.  Silicon Graphics makes no
  47:/usr/include/c++/7/bits/stl_vector.h ****  * representations about the suitability of this  software for any
  48:/usr/include/c++/7/bits/stl_vector.h ****  * purpose.  It is provided "as is" without express or implied warranty.
  49:/usr/include/c++/7/bits/stl_vector.h ****  */
  50:/usr/include/c++/7/bits/stl_vector.h **** 
  51:/usr/include/c++/7/bits/stl_vector.h **** /** @file bits/stl_vector.h
  52:/usr/include/c++/7/bits/stl_vector.h ****  *  This is an internal header file, included by other library headers.
  53:/usr/include/c++/7/bits/stl_vector.h ****  *  Do not attempt to use it directly. @headername{vector}
  54:/usr/include/c++/7/bits/stl_vector.h ****  */
  55:/usr/include/c++/7/bits/stl_vector.h **** 
  56:/usr/include/c++/7/bits/stl_vector.h **** #ifndef _STL_VECTOR_H
  57:/usr/include/c++/7/bits/stl_vector.h **** #define _STL_VECTOR_H 1
  58:/usr/include/c++/7/bits/stl_vector.h **** 
  59:/usr/include/c++/7/bits/stl_vector.h **** #include <bits/stl_iterator_base_funcs.h>
  60:/usr/include/c++/7/bits/stl_vector.h **** #include <bits/functexcept.h>
  61:/usr/include/c++/7/bits/stl_vector.h **** #include <bits/concept_check.h>
  62:/usr/include/c++/7/bits/stl_vector.h **** #if __cplusplus >= 201103L
  63:/usr/include/c++/7/bits/stl_vector.h **** #include <initializer_list>
  64:/usr/include/c++/7/bits/stl_vector.h **** #endif
  65:/usr/include/c++/7/bits/stl_vector.h **** 
  66:/usr/include/c++/7/bits/stl_vector.h **** #include <debug/assertions.h>
  67:/usr/include/c++/7/bits/stl_vector.h **** 
  68:/usr/include/c++/7/bits/stl_vector.h **** namespace std _GLIBCXX_VISIBILITY(default)
  69:/usr/include/c++/7/bits/stl_vector.h **** {
  70:/usr/include/c++/7/bits/stl_vector.h **** _GLIBCXX_BEGIN_NAMESPACE_CONTAINER
  71:/usr/include/c++/7/bits/stl_vector.h **** 
  72:/usr/include/c++/7/bits/stl_vector.h ****   /// See bits/stl_deque.h's _Deque_base for an explanation.
  73:/usr/include/c++/7/bits/stl_vector.h ****   template<typename _Tp, typename _Alloc>
  74:/usr/include/c++/7/bits/stl_vector.h ****     struct _Vector_base
  75:/usr/include/c++/7/bits/stl_vector.h ****     {
  76:/usr/include/c++/7/bits/stl_vector.h ****       typedef typename __gnu_cxx::__alloc_traits<_Alloc>::template
  77:/usr/include/c++/7/bits/stl_vector.h **** 	rebind<_Tp>::other _Tp_alloc_type;
  78:/usr/include/c++/7/bits/stl_vector.h ****       typedef typename __gnu_cxx::__alloc_traits<_Tp_alloc_type>::pointer
  79:/usr/include/c++/7/bits/stl_vector.h ****        	pointer;
  80:/usr/include/c++/7/bits/stl_vector.h **** 
  81:/usr/include/c++/7/bits/stl_vector.h ****       struct _Vector_impl
  82:/usr/include/c++/7/bits/stl_vector.h ****       : public _Tp_alloc_type
  83:/usr/include/c++/7/bits/stl_vector.h ****       {
  84:/usr/include/c++/7/bits/stl_vector.h **** 	pointer _M_start;
  85:/usr/include/c++/7/bits/stl_vector.h **** 	pointer _M_finish;
  86:/usr/include/c++/7/bits/stl_vector.h **** 	pointer _M_end_of_storage;
  87:/usr/include/c++/7/bits/stl_vector.h **** 
  88:/usr/include/c++/7/bits/stl_vector.h **** 	_Vector_impl()
  89:/usr/include/c++/7/bits/stl_vector.h **** 	: _Tp_alloc_type(), _M_start(), _M_finish(), _M_end_of_storage()
  90:/usr/include/c++/7/bits/stl_vector.h **** 	{ }
  91:/usr/include/c++/7/bits/stl_vector.h **** 
  92:/usr/include/c++/7/bits/stl_vector.h **** 	_Vector_impl(_Tp_alloc_type const& __a) _GLIBCXX_NOEXCEPT
  93:/usr/include/c++/7/bits/stl_vector.h **** 	: _Tp_alloc_type(__a), _M_start(), _M_finish(), _M_end_of_storage()
  94:/usr/include/c++/7/bits/stl_vector.h **** 	{ }
  95:/usr/include/c++/7/bits/stl_vector.h **** 
  96:/usr/include/c++/7/bits/stl_vector.h **** #if __cplusplus >= 201103L
  97:/usr/include/c++/7/bits/stl_vector.h **** 	_Vector_impl(_Tp_alloc_type&& __a) noexcept
  98:/usr/include/c++/7/bits/stl_vector.h **** 	: _Tp_alloc_type(std::move(__a)),
  99:/usr/include/c++/7/bits/stl_vector.h **** 	  _M_start(), _M_finish(), _M_end_of_storage()
 100:/usr/include/c++/7/bits/stl_vector.h **** 	{ }
 101:/usr/include/c++/7/bits/stl_vector.h **** #endif
 102:/usr/include/c++/7/bits/stl_vector.h **** 
 103:/usr/include/c++/7/bits/stl_vector.h **** 	void _M_swap_data(_Vector_impl& __x) _GLIBCXX_NOEXCEPT
 104:/usr/include/c++/7/bits/stl_vector.h **** 	{
 105:/usr/include/c++/7/bits/stl_vector.h **** 	  std::swap(_M_start, __x._M_start);
 106:/usr/include/c++/7/bits/stl_vector.h **** 	  std::swap(_M_finish, __x._M_finish);
 107:/usr/include/c++/7/bits/stl_vector.h **** 	  std::swap(_M_end_of_storage, __x._M_end_of_storage);
 108:/usr/include/c++/7/bits/stl_vector.h **** 	}
 109:/usr/include/c++/7/bits/stl_vector.h ****       };
 110:/usr/include/c++/7/bits/stl_vector.h **** 
 111:/usr/include/c++/7/bits/stl_vector.h ****     public:
 112:/usr/include/c++/7/bits/stl_vector.h ****       typedef _Alloc allocator_type;
 113:/usr/include/c++/7/bits/stl_vector.h **** 
 114:/usr/include/c++/7/bits/stl_vector.h ****       _Tp_alloc_type&
 115:/usr/include/c++/7/bits/stl_vector.h ****       _M_get_Tp_allocator() _GLIBCXX_NOEXCEPT
 116:/usr/include/c++/7/bits/stl_vector.h ****       { return *static_cast<_Tp_alloc_type*>(&this->_M_impl); }
 117:/usr/include/c++/7/bits/stl_vector.h **** 
 118:/usr/include/c++/7/bits/stl_vector.h ****       const _Tp_alloc_type&
 119:/usr/include/c++/7/bits/stl_vector.h ****       _M_get_Tp_allocator() const _GLIBCXX_NOEXCEPT
 120:/usr/include/c++/7/bits/stl_vector.h ****       { return *static_cast<const _Tp_alloc_type*>(&this->_M_impl); }
 121:/usr/include/c++/7/bits/stl_vector.h **** 
 122:/usr/include/c++/7/bits/stl_vector.h ****       allocator_type
 123:/usr/include/c++/7/bits/stl_vector.h ****       get_allocator() const _GLIBCXX_NOEXCEPT
 124:/usr/include/c++/7/bits/stl_vector.h ****       { return allocator_type(_M_get_Tp_allocator()); }
 125:/usr/include/c++/7/bits/stl_vector.h **** 
 126:/usr/include/c++/7/bits/stl_vector.h ****       _Vector_base()
 127:/usr/include/c++/7/bits/stl_vector.h ****       : _M_impl() { }
 128:/usr/include/c++/7/bits/stl_vector.h **** 
 129:/usr/include/c++/7/bits/stl_vector.h ****       _Vector_base(const allocator_type& __a) _GLIBCXX_NOEXCEPT
 130:/usr/include/c++/7/bits/stl_vector.h ****       : _M_impl(__a) { }
 131:/usr/include/c++/7/bits/stl_vector.h **** 
 132:/usr/include/c++/7/bits/stl_vector.h ****       _Vector_base(size_t __n)
 133:/usr/include/c++/7/bits/stl_vector.h ****       : _M_impl()
 134:/usr/include/c++/7/bits/stl_vector.h ****       { _M_create_storage(__n); }
 135:/usr/include/c++/7/bits/stl_vector.h **** 
 136:/usr/include/c++/7/bits/stl_vector.h ****       _Vector_base(size_t __n, const allocator_type& __a)
 137:/usr/include/c++/7/bits/stl_vector.h ****       : _M_impl(__a)
 138:/usr/include/c++/7/bits/stl_vector.h ****       { _M_create_storage(__n); }
 139:/usr/include/c++/7/bits/stl_vector.h **** 
 140:/usr/include/c++/7/bits/stl_vector.h **** #if __cplusplus >= 201103L
 141:/usr/include/c++/7/bits/stl_vector.h ****       _Vector_base(_Tp_alloc_type&& __a) noexcept
 142:/usr/include/c++/7/bits/stl_vector.h ****       : _M_impl(std::move(__a)) { }
 143:/usr/include/c++/7/bits/stl_vector.h **** 
 144:/usr/include/c++/7/bits/stl_vector.h ****       _Vector_base(_Vector_base&& __x) noexcept
 145:/usr/include/c++/7/bits/stl_vector.h ****       : _M_impl(std::move(__x._M_get_Tp_allocator()))
 146:/usr/include/c++/7/bits/stl_vector.h ****       { this->_M_impl._M_swap_data(__x._M_impl); }
 147:/usr/include/c++/7/bits/stl_vector.h **** 
 148:/usr/include/c++/7/bits/stl_vector.h ****       _Vector_base(_Vector_base&& __x, const allocator_type& __a)
 149:/usr/include/c++/7/bits/stl_vector.h ****       : _M_impl(__a)
 150:/usr/include/c++/7/bits/stl_vector.h ****       {
 151:/usr/include/c++/7/bits/stl_vector.h **** 	if (__x.get_allocator() == __a)
 152:/usr/include/c++/7/bits/stl_vector.h **** 	  this->_M_impl._M_swap_data(__x._M_impl);
 153:/usr/include/c++/7/bits/stl_vector.h **** 	else
 154:/usr/include/c++/7/bits/stl_vector.h **** 	  {
 155:/usr/include/c++/7/bits/stl_vector.h **** 	    size_t __n = __x._M_impl._M_finish - __x._M_impl._M_start;
 156:/usr/include/c++/7/bits/stl_vector.h **** 	    _M_create_storage(__n);
 157:/usr/include/c++/7/bits/stl_vector.h **** 	  }
 158:/usr/include/c++/7/bits/stl_vector.h ****       }
 159:/usr/include/c++/7/bits/stl_vector.h **** #endif
 160:/usr/include/c++/7/bits/stl_vector.h **** 
 161:/usr/include/c++/7/bits/stl_vector.h ****       ~_Vector_base() _GLIBCXX_NOEXCEPT
 162:/usr/include/c++/7/bits/stl_vector.h ****       { _M_deallocate(this->_M_impl._M_start, this->_M_impl._M_end_of_storage
 163:/usr/include/c++/7/bits/stl_vector.h **** 		      - this->_M_impl._M_start); }
 164:/usr/include/c++/7/bits/stl_vector.h **** 
 165:/usr/include/c++/7/bits/stl_vector.h ****     public:
 166:/usr/include/c++/7/bits/stl_vector.h ****       _Vector_impl _M_impl;
 167:/usr/include/c++/7/bits/stl_vector.h **** 
 168:/usr/include/c++/7/bits/stl_vector.h ****       pointer
 169:/usr/include/c++/7/bits/stl_vector.h ****       _M_allocate(size_t __n)
 170:/usr/include/c++/7/bits/stl_vector.h ****       {
 171:/usr/include/c++/7/bits/stl_vector.h **** 	typedef __gnu_cxx::__alloc_traits<_Tp_alloc_type> _Tr;
 172:/usr/include/c++/7/bits/stl_vector.h **** 	return __n != 0 ? _Tr::allocate(_M_impl, __n) : pointer();
 173:/usr/include/c++/7/bits/stl_vector.h ****       }
 174:/usr/include/c++/7/bits/stl_vector.h **** 
 175:/usr/include/c++/7/bits/stl_vector.h ****       void
 176:/usr/include/c++/7/bits/stl_vector.h ****       _M_deallocate(pointer __p, size_t __n)
 177:/usr/include/c++/7/bits/stl_vector.h ****       {
 178:/usr/include/c++/7/bits/stl_vector.h **** 	typedef __gnu_cxx::__alloc_traits<_Tp_alloc_type> _Tr;
 179:/usr/include/c++/7/bits/stl_vector.h **** 	if (__p)
 180:/usr/include/c++/7/bits/stl_vector.h **** 	  _Tr::deallocate(_M_impl, __p, __n);
 181:/usr/include/c++/7/bits/stl_vector.h ****       }
 182:/usr/include/c++/7/bits/stl_vector.h **** 
 183:/usr/include/c++/7/bits/stl_vector.h ****     private:
 184:/usr/include/c++/7/bits/stl_vector.h ****       void
 185:/usr/include/c++/7/bits/stl_vector.h ****       _M_create_storage(size_t __n)
 186:/usr/include/c++/7/bits/stl_vector.h ****       {
 187:/usr/include/c++/7/bits/stl_vector.h **** 	this->_M_impl._M_start = this->_M_allocate(__n);
 188:/usr/include/c++/7/bits/stl_vector.h **** 	this->_M_impl._M_finish = this->_M_impl._M_start;
 189:/usr/include/c++/7/bits/stl_vector.h **** 	this->_M_impl._M_end_of_storage = this->_M_impl._M_start + __n;
 190:/usr/include/c++/7/bits/stl_vector.h ****       }
 191:/usr/include/c++/7/bits/stl_vector.h ****     };
 192:/usr/include/c++/7/bits/stl_vector.h **** 
 193:/usr/include/c++/7/bits/stl_vector.h **** 
 194:/usr/include/c++/7/bits/stl_vector.h ****   /**
 195:/usr/include/c++/7/bits/stl_vector.h ****    *  @brief A standard container which offers fixed time access to
 196:/usr/include/c++/7/bits/stl_vector.h ****    *  individual elements in any order.
 197:/usr/include/c++/7/bits/stl_vector.h ****    *
 198:/usr/include/c++/7/bits/stl_vector.h ****    *  @ingroup sequences
 199:/usr/include/c++/7/bits/stl_vector.h ****    *
 200:/usr/include/c++/7/bits/stl_vector.h ****    *  @tparam _Tp  Type of element.
 201:/usr/include/c++/7/bits/stl_vector.h ****    *  @tparam _Alloc  Allocator type, defaults to allocator<_Tp>.
 202:/usr/include/c++/7/bits/stl_vector.h ****    *
 203:/usr/include/c++/7/bits/stl_vector.h ****    *  Meets the requirements of a <a href="tables.html#65">container</a>, a
 204:/usr/include/c++/7/bits/stl_vector.h ****    *  <a href="tables.html#66">reversible container</a>, and a
 205:/usr/include/c++/7/bits/stl_vector.h ****    *  <a href="tables.html#67">sequence</a>, including the
 206:/usr/include/c++/7/bits/stl_vector.h ****    *  <a href="tables.html#68">optional sequence requirements</a> with the
 207:/usr/include/c++/7/bits/stl_vector.h ****    *  %exception of @c push_front and @c pop_front.
 208:/usr/include/c++/7/bits/stl_vector.h ****    *
 209:/usr/include/c++/7/bits/stl_vector.h ****    *  In some terminology a %vector can be described as a dynamic
 210:/usr/include/c++/7/bits/stl_vector.h ****    *  C-style array, it offers fast and efficient access to individual
 211:/usr/include/c++/7/bits/stl_vector.h ****    *  elements in any order and saves the user from worrying about
 212:/usr/include/c++/7/bits/stl_vector.h ****    *  memory and size allocation.  Subscripting ( @c [] ) access is
 213:/usr/include/c++/7/bits/stl_vector.h ****    *  also provided as with C-style arrays.
 214:/usr/include/c++/7/bits/stl_vector.h ****   */
 215:/usr/include/c++/7/bits/stl_vector.h ****   template<typename _Tp, typename _Alloc = std::allocator<_Tp> >
 216:/usr/include/c++/7/bits/stl_vector.h ****     class vector : protected _Vector_base<_Tp, _Alloc>
 217:/usr/include/c++/7/bits/stl_vector.h ****     {
 218:/usr/include/c++/7/bits/stl_vector.h **** #ifdef _GLIBCXX_CONCEPT_CHECKS
 219:/usr/include/c++/7/bits/stl_vector.h ****       // Concept requirements.
 220:/usr/include/c++/7/bits/stl_vector.h ****       typedef typename _Alloc::value_type		_Alloc_value_type;
 221:/usr/include/c++/7/bits/stl_vector.h **** # if __cplusplus < 201103L
 222:/usr/include/c++/7/bits/stl_vector.h ****       __glibcxx_class_requires(_Tp, _SGIAssignableConcept)
 223:/usr/include/c++/7/bits/stl_vector.h **** # endif
 224:/usr/include/c++/7/bits/stl_vector.h ****       __glibcxx_class_requires2(_Tp, _Alloc_value_type, _SameTypeConcept)
 225:/usr/include/c++/7/bits/stl_vector.h **** #endif
 226:/usr/include/c++/7/bits/stl_vector.h **** 
 227:/usr/include/c++/7/bits/stl_vector.h ****       typedef _Vector_base<_Tp, _Alloc>			_Base;
 228:/usr/include/c++/7/bits/stl_vector.h ****       typedef typename _Base::_Tp_alloc_type		_Tp_alloc_type;
 229:/usr/include/c++/7/bits/stl_vector.h ****       typedef __gnu_cxx::__alloc_traits<_Tp_alloc_type>	_Alloc_traits;
 230:/usr/include/c++/7/bits/stl_vector.h **** 
 231:/usr/include/c++/7/bits/stl_vector.h ****     public:
 232:/usr/include/c++/7/bits/stl_vector.h ****       typedef _Tp					value_type;
 233:/usr/include/c++/7/bits/stl_vector.h ****       typedef typename _Base::pointer			pointer;
 234:/usr/include/c++/7/bits/stl_vector.h ****       typedef typename _Alloc_traits::const_pointer	const_pointer;
 235:/usr/include/c++/7/bits/stl_vector.h ****       typedef typename _Alloc_traits::reference		reference;
 236:/usr/include/c++/7/bits/stl_vector.h ****       typedef typename _Alloc_traits::const_reference	const_reference;
 237:/usr/include/c++/7/bits/stl_vector.h ****       typedef __gnu_cxx::__normal_iterator<pointer, vector> iterator;
 238:/usr/include/c++/7/bits/stl_vector.h ****       typedef __gnu_cxx::__normal_iterator<const_pointer, vector>
 239:/usr/include/c++/7/bits/stl_vector.h ****       const_iterator;
 240:/usr/include/c++/7/bits/stl_vector.h ****       typedef std::reverse_iterator<const_iterator>	const_reverse_iterator;
 241:/usr/include/c++/7/bits/stl_vector.h ****       typedef std::reverse_iterator<iterator>		reverse_iterator;
 242:/usr/include/c++/7/bits/stl_vector.h ****       typedef size_t					size_type;
 243:/usr/include/c++/7/bits/stl_vector.h ****       typedef ptrdiff_t					difference_type;
 244:/usr/include/c++/7/bits/stl_vector.h ****       typedef _Alloc					allocator_type;
 245:/usr/include/c++/7/bits/stl_vector.h **** 
 246:/usr/include/c++/7/bits/stl_vector.h ****     protected:
 247:/usr/include/c++/7/bits/stl_vector.h ****       using _Base::_M_allocate;
 248:/usr/include/c++/7/bits/stl_vector.h ****       using _Base::_M_deallocate;
 249:/usr/include/c++/7/bits/stl_vector.h ****       using _Base::_M_impl;
 250:/usr/include/c++/7/bits/stl_vector.h ****       using _Base::_M_get_Tp_allocator;
 251:/usr/include/c++/7/bits/stl_vector.h **** 
 252:/usr/include/c++/7/bits/stl_vector.h ****     public:
 253:/usr/include/c++/7/bits/stl_vector.h ****       // [23.2.4.1] construct/copy/destroy
 254:/usr/include/c++/7/bits/stl_vector.h ****       // (assign() and get_allocator() are also listed in this section)
 255:/usr/include/c++/7/bits/stl_vector.h **** 
 256:/usr/include/c++/7/bits/stl_vector.h ****       /**
 257:/usr/include/c++/7/bits/stl_vector.h ****        *  @brief  Creates a %vector with no elements.
 258:/usr/include/c++/7/bits/stl_vector.h ****        */
 259:/usr/include/c++/7/bits/stl_vector.h ****       vector()
 1373              		.loc 2 259 0
 1374              		.cfi_startproc
 1375              		.cfi_personality 0x9b,DW.ref.__gxx_personality_v0
 1376              		.cfi_lsda 0x1b,.LLSDA2098
 1377 0000 55       		pushq	%rbp
 1378              		.cfi_def_cfa_offset 16
 1379              		.cfi_offset 6, -16
 1380 0001 4889E5   		movq	%rsp, %rbp
 1381              		.cfi_def_cfa_register 6
 1382 0004 4883EC10 		subq	$16, %rsp
 1383 0008 48897DF8 		movq	%rdi, -8(%rbp)
 1384              	.LBB20:
 260:/usr/include/c++/7/bits/stl_vector.h **** #if __cplusplus >= 201103L
 261:/usr/include/c++/7/bits/stl_vector.h ****       noexcept(is_nothrow_default_constructible<_Alloc>::value)
 262:/usr/include/c++/7/bits/stl_vector.h **** #endif
 263:/usr/include/c++/7/bits/stl_vector.h ****       : _Base() { }
 1385              		.loc 2 263 0
 1386 000c 488B45F8 		movq	-8(%rbp), %rax
 1387 0010 4889C7   		movq	%rax, %rdi
 1388 0013 E8000000 		call	_ZNSt12_Vector_baseIdSaIdEEC2Ev
 1388      00
 1389              	.LBE20:
 1390 0018 90       		nop
 1391 0019 C9       		leave
 1392              		.cfi_def_cfa 7, 8
 1393 001a C3       		ret
 1394              		.cfi_endproc
 1395              	.LFE2098:
 1396              		.section	.gcc_except_table
 1397              	.LLSDA2098:
 1398 002d FF       		.byte	0xff
 1399 002e FF       		.byte	0xff
 1400 002f 01       		.byte	0x1
 1401 0030 00       		.uleb128 .LLSDACSE2098-.LLSDACSB2098
 1402              	.LLSDACSB2098:
 1403              	.LLSDACSE2098:
 1404              		.section	.text._ZNSt6vectorIdSaIdEEC2Ev,"axG",@progbits,_ZNSt6vectorIdSaIdEEC5Ev,comdat
 1406              		.weak	_ZNSt6vectorIdSaIdEEC1Ev
 1407              		.set	_ZNSt6vectorIdSaIdEEC1Ev,_ZNSt6vectorIdSaIdEEC2Ev
 1408              		.section	.text._ZNSt6vectorIdSaIdEED2Ev,"axG",@progbits,_ZNSt6vectorIdSaIdEED5Ev,comdat
 1409              		.align 2
 1410              		.weak	_ZNSt6vectorIdSaIdEED2Ev
 1412              	_ZNSt6vectorIdSaIdEED2Ev:
 1413              	.LFB2101:
 264:/usr/include/c++/7/bits/stl_vector.h **** 
 265:/usr/include/c++/7/bits/stl_vector.h ****       /**
 266:/usr/include/c++/7/bits/stl_vector.h ****        *  @brief  Creates a %vector with no elements.
 267:/usr/include/c++/7/bits/stl_vector.h ****        *  @param  __a  An allocator object.
 268:/usr/include/c++/7/bits/stl_vector.h ****        */
 269:/usr/include/c++/7/bits/stl_vector.h ****       explicit
 270:/usr/include/c++/7/bits/stl_vector.h ****       vector(const allocator_type& __a) _GLIBCXX_NOEXCEPT
 271:/usr/include/c++/7/bits/stl_vector.h ****       : _Base(__a) { }
 272:/usr/include/c++/7/bits/stl_vector.h **** 
 273:/usr/include/c++/7/bits/stl_vector.h **** #if __cplusplus >= 201103L
 274:/usr/include/c++/7/bits/stl_vector.h ****       /**
 275:/usr/include/c++/7/bits/stl_vector.h ****        *  @brief  Creates a %vector with default constructed elements.
 276:/usr/include/c++/7/bits/stl_vector.h ****        *  @param  __n  The number of elements to initially create.
 277:/usr/include/c++/7/bits/stl_vector.h ****        *  @param  __a  An allocator.
 278:/usr/include/c++/7/bits/stl_vector.h ****        *
 279:/usr/include/c++/7/bits/stl_vector.h ****        *  This constructor fills the %vector with @a __n default
 280:/usr/include/c++/7/bits/stl_vector.h ****        *  constructed elements.
 281:/usr/include/c++/7/bits/stl_vector.h ****        */
 282:/usr/include/c++/7/bits/stl_vector.h ****       explicit
 283:/usr/include/c++/7/bits/stl_vector.h ****       vector(size_type __n, const allocator_type& __a = allocator_type())
 284:/usr/include/c++/7/bits/stl_vector.h ****       : _Base(__n, __a)
 285:/usr/include/c++/7/bits/stl_vector.h ****       { _M_default_initialize(__n); }
 286:/usr/include/c++/7/bits/stl_vector.h **** 
 287:/usr/include/c++/7/bits/stl_vector.h ****       /**
 288:/usr/include/c++/7/bits/stl_vector.h ****        *  @brief  Creates a %vector with copies of an exemplar element.
 289:/usr/include/c++/7/bits/stl_vector.h ****        *  @param  __n  The number of elements to initially create.
 290:/usr/include/c++/7/bits/stl_vector.h ****        *  @param  __value  An element to copy.
 291:/usr/include/c++/7/bits/stl_vector.h ****        *  @param  __a  An allocator.
 292:/usr/include/c++/7/bits/stl_vector.h ****        *
 293:/usr/include/c++/7/bits/stl_vector.h ****        *  This constructor fills the %vector with @a __n copies of @a __value.
 294:/usr/include/c++/7/bits/stl_vector.h ****        */
 295:/usr/include/c++/7/bits/stl_vector.h ****       vector(size_type __n, const value_type& __value,
 296:/usr/include/c++/7/bits/stl_vector.h **** 	     const allocator_type& __a = allocator_type())
 297:/usr/include/c++/7/bits/stl_vector.h ****       : _Base(__n, __a)
 298:/usr/include/c++/7/bits/stl_vector.h ****       { _M_fill_initialize(__n, __value); }
 299:/usr/include/c++/7/bits/stl_vector.h **** #else
 300:/usr/include/c++/7/bits/stl_vector.h ****       /**
 301:/usr/include/c++/7/bits/stl_vector.h ****        *  @brief  Creates a %vector with copies of an exemplar element.
 302:/usr/include/c++/7/bits/stl_vector.h ****        *  @param  __n  The number of elements to initially create.
 303:/usr/include/c++/7/bits/stl_vector.h ****        *  @param  __value  An element to copy.
 304:/usr/include/c++/7/bits/stl_vector.h ****        *  @param  __a  An allocator.
 305:/usr/include/c++/7/bits/stl_vector.h ****        *
 306:/usr/include/c++/7/bits/stl_vector.h ****        *  This constructor fills the %vector with @a __n copies of @a __value.
 307:/usr/include/c++/7/bits/stl_vector.h ****        */
 308:/usr/include/c++/7/bits/stl_vector.h ****       explicit
 309:/usr/include/c++/7/bits/stl_vector.h ****       vector(size_type __n, const value_type& __value = value_type(),
 310:/usr/include/c++/7/bits/stl_vector.h **** 	     const allocator_type& __a = allocator_type())
 311:/usr/include/c++/7/bits/stl_vector.h ****       : _Base(__n, __a)
 312:/usr/include/c++/7/bits/stl_vector.h ****       { _M_fill_initialize(__n, __value); }
 313:/usr/include/c++/7/bits/stl_vector.h **** #endif
 314:/usr/include/c++/7/bits/stl_vector.h **** 
 315:/usr/include/c++/7/bits/stl_vector.h ****       /**
 316:/usr/include/c++/7/bits/stl_vector.h ****        *  @brief  %Vector copy constructor.
 317:/usr/include/c++/7/bits/stl_vector.h ****        *  @param  __x  A %vector of identical element and allocator types.
 318:/usr/include/c++/7/bits/stl_vector.h ****        *
 319:/usr/include/c++/7/bits/stl_vector.h ****        *  All the elements of @a __x are copied, but any unused capacity in
 320:/usr/include/c++/7/bits/stl_vector.h ****        *  @a __x  will not be copied
 321:/usr/include/c++/7/bits/stl_vector.h ****        *  (i.e. capacity() == size() in the new %vector).
 322:/usr/include/c++/7/bits/stl_vector.h ****        *
 323:/usr/include/c++/7/bits/stl_vector.h ****        *  The newly-created %vector uses a copy of the allocator object used
 324:/usr/include/c++/7/bits/stl_vector.h ****        *  by @a __x (unless the allocator traits dictate a different object).
 325:/usr/include/c++/7/bits/stl_vector.h ****        */
 326:/usr/include/c++/7/bits/stl_vector.h ****       vector(const vector& __x)
 327:/usr/include/c++/7/bits/stl_vector.h ****       : _Base(__x.size(),
 328:/usr/include/c++/7/bits/stl_vector.h **** 	_Alloc_traits::_S_select_on_copy(__x._M_get_Tp_allocator()))
 329:/usr/include/c++/7/bits/stl_vector.h ****       {
 330:/usr/include/c++/7/bits/stl_vector.h **** 	this->_M_impl._M_finish =
 331:/usr/include/c++/7/bits/stl_vector.h **** 	  std::__uninitialized_copy_a(__x.begin(), __x.end(),
 332:/usr/include/c++/7/bits/stl_vector.h **** 				      this->_M_impl._M_start,
 333:/usr/include/c++/7/bits/stl_vector.h **** 				      _M_get_Tp_allocator());
 334:/usr/include/c++/7/bits/stl_vector.h ****       }
 335:/usr/include/c++/7/bits/stl_vector.h **** 
 336:/usr/include/c++/7/bits/stl_vector.h **** #if __cplusplus >= 201103L
 337:/usr/include/c++/7/bits/stl_vector.h ****       /**
 338:/usr/include/c++/7/bits/stl_vector.h ****        *  @brief  %Vector move constructor.
 339:/usr/include/c++/7/bits/stl_vector.h ****        *  @param  __x  A %vector of identical element and allocator types.
 340:/usr/include/c++/7/bits/stl_vector.h ****        *
 341:/usr/include/c++/7/bits/stl_vector.h ****        *  The newly-created %vector contains the exact contents of @a __x.
 342:/usr/include/c++/7/bits/stl_vector.h ****        *  The contents of @a __x are a valid, but unspecified %vector.
 343:/usr/include/c++/7/bits/stl_vector.h ****        */
 344:/usr/include/c++/7/bits/stl_vector.h ****       vector(vector&& __x) noexcept
 345:/usr/include/c++/7/bits/stl_vector.h ****       : _Base(std::move(__x)) { }
 346:/usr/include/c++/7/bits/stl_vector.h **** 
 347:/usr/include/c++/7/bits/stl_vector.h ****       /// Copy constructor with alternative allocator
 348:/usr/include/c++/7/bits/stl_vector.h ****       vector(const vector& __x, const allocator_type& __a)
 349:/usr/include/c++/7/bits/stl_vector.h ****       : _Base(__x.size(), __a)
 350:/usr/include/c++/7/bits/stl_vector.h ****       {
 351:/usr/include/c++/7/bits/stl_vector.h **** 	this->_M_impl._M_finish =
 352:/usr/include/c++/7/bits/stl_vector.h **** 	  std::__uninitialized_copy_a(__x.begin(), __x.end(),
 353:/usr/include/c++/7/bits/stl_vector.h **** 				      this->_M_impl._M_start,
 354:/usr/include/c++/7/bits/stl_vector.h **** 				      _M_get_Tp_allocator());
 355:/usr/include/c++/7/bits/stl_vector.h ****       }
 356:/usr/include/c++/7/bits/stl_vector.h **** 
 357:/usr/include/c++/7/bits/stl_vector.h ****       /// Move constructor with alternative allocator
 358:/usr/include/c++/7/bits/stl_vector.h ****       vector(vector&& __rv, const allocator_type& __m)
 359:/usr/include/c++/7/bits/stl_vector.h ****       noexcept(_Alloc_traits::_S_always_equal())
 360:/usr/include/c++/7/bits/stl_vector.h ****       : _Base(std::move(__rv), __m)
 361:/usr/include/c++/7/bits/stl_vector.h ****       {
 362:/usr/include/c++/7/bits/stl_vector.h **** 	if (__rv.get_allocator() != __m)
 363:/usr/include/c++/7/bits/stl_vector.h **** 	  {
 364:/usr/include/c++/7/bits/stl_vector.h **** 	    this->_M_impl._M_finish =
 365:/usr/include/c++/7/bits/stl_vector.h **** 	      std::__uninitialized_move_a(__rv.begin(), __rv.end(),
 366:/usr/include/c++/7/bits/stl_vector.h **** 					  this->_M_impl._M_start,
 367:/usr/include/c++/7/bits/stl_vector.h **** 					  _M_get_Tp_allocator());
 368:/usr/include/c++/7/bits/stl_vector.h **** 	    __rv.clear();
 369:/usr/include/c++/7/bits/stl_vector.h **** 	  }
 370:/usr/include/c++/7/bits/stl_vector.h ****       }
 371:/usr/include/c++/7/bits/stl_vector.h **** 
 372:/usr/include/c++/7/bits/stl_vector.h ****       /**
 373:/usr/include/c++/7/bits/stl_vector.h ****        *  @brief  Builds a %vector from an initializer list.
 374:/usr/include/c++/7/bits/stl_vector.h ****        *  @param  __l  An initializer_list.
 375:/usr/include/c++/7/bits/stl_vector.h ****        *  @param  __a  An allocator.
 376:/usr/include/c++/7/bits/stl_vector.h ****        *
 377:/usr/include/c++/7/bits/stl_vector.h ****        *  Create a %vector consisting of copies of the elements in the
 378:/usr/include/c++/7/bits/stl_vector.h ****        *  initializer_list @a __l.
 379:/usr/include/c++/7/bits/stl_vector.h ****        *
 380:/usr/include/c++/7/bits/stl_vector.h ****        *  This will call the element type's copy constructor N times
 381:/usr/include/c++/7/bits/stl_vector.h ****        *  (where N is @a __l.size()) and do no memory reallocation.
 382:/usr/include/c++/7/bits/stl_vector.h ****        */
 383:/usr/include/c++/7/bits/stl_vector.h ****       vector(initializer_list<value_type> __l,
 384:/usr/include/c++/7/bits/stl_vector.h **** 	     const allocator_type& __a = allocator_type())
 385:/usr/include/c++/7/bits/stl_vector.h ****       : _Base(__a)
 386:/usr/include/c++/7/bits/stl_vector.h ****       {
 387:/usr/include/c++/7/bits/stl_vector.h **** 	_M_range_initialize(__l.begin(), __l.end(),
 388:/usr/include/c++/7/bits/stl_vector.h **** 			    random_access_iterator_tag());
 389:/usr/include/c++/7/bits/stl_vector.h ****       }
 390:/usr/include/c++/7/bits/stl_vector.h **** #endif
 391:/usr/include/c++/7/bits/stl_vector.h **** 
 392:/usr/include/c++/7/bits/stl_vector.h ****       /**
 393:/usr/include/c++/7/bits/stl_vector.h ****        *  @brief  Builds a %vector from a range.
 394:/usr/include/c++/7/bits/stl_vector.h ****        *  @param  __first  An input iterator.
 395:/usr/include/c++/7/bits/stl_vector.h ****        *  @param  __last  An input iterator.
 396:/usr/include/c++/7/bits/stl_vector.h ****        *  @param  __a  An allocator.
 397:/usr/include/c++/7/bits/stl_vector.h ****        *
 398:/usr/include/c++/7/bits/stl_vector.h ****        *  Create a %vector consisting of copies of the elements from
 399:/usr/include/c++/7/bits/stl_vector.h ****        *  [first,last).
 400:/usr/include/c++/7/bits/stl_vector.h ****        *
 401:/usr/include/c++/7/bits/stl_vector.h ****        *  If the iterators are forward, bidirectional, or
 402:/usr/include/c++/7/bits/stl_vector.h ****        *  random-access, then this will call the elements' copy
 403:/usr/include/c++/7/bits/stl_vector.h ****        *  constructor N times (where N is distance(first,last)) and do
 404:/usr/include/c++/7/bits/stl_vector.h ****        *  no memory reallocation.  But if only input iterators are
 405:/usr/include/c++/7/bits/stl_vector.h ****        *  used, then this will do at most 2N calls to the copy
 406:/usr/include/c++/7/bits/stl_vector.h ****        *  constructor, and logN memory reallocations.
 407:/usr/include/c++/7/bits/stl_vector.h ****        */
 408:/usr/include/c++/7/bits/stl_vector.h **** #if __cplusplus >= 201103L
 409:/usr/include/c++/7/bits/stl_vector.h ****       template<typename _InputIterator,
 410:/usr/include/c++/7/bits/stl_vector.h **** 	       typename = std::_RequireInputIter<_InputIterator>>
 411:/usr/include/c++/7/bits/stl_vector.h **** 	vector(_InputIterator __first, _InputIterator __last,
 412:/usr/include/c++/7/bits/stl_vector.h **** 	       const allocator_type& __a = allocator_type())
 413:/usr/include/c++/7/bits/stl_vector.h **** 	: _Base(__a)
 414:/usr/include/c++/7/bits/stl_vector.h **** 	{ _M_initialize_dispatch(__first, __last, __false_type()); }
 415:/usr/include/c++/7/bits/stl_vector.h **** #else
 416:/usr/include/c++/7/bits/stl_vector.h ****       template<typename _InputIterator>
 417:/usr/include/c++/7/bits/stl_vector.h **** 	vector(_InputIterator __first, _InputIterator __last,
 418:/usr/include/c++/7/bits/stl_vector.h **** 	       const allocator_type& __a = allocator_type())
 419:/usr/include/c++/7/bits/stl_vector.h **** 	: _Base(__a)
 420:/usr/include/c++/7/bits/stl_vector.h **** 	{
 421:/usr/include/c++/7/bits/stl_vector.h **** 	  // Check whether it's an integral type.  If so, it's not an iterator.
 422:/usr/include/c++/7/bits/stl_vector.h **** 	  typedef typename std::__is_integer<_InputIterator>::__type _Integral;
 423:/usr/include/c++/7/bits/stl_vector.h **** 	  _M_initialize_dispatch(__first, __last, _Integral());
 424:/usr/include/c++/7/bits/stl_vector.h **** 	}
 425:/usr/include/c++/7/bits/stl_vector.h **** #endif
 426:/usr/include/c++/7/bits/stl_vector.h **** 
 427:/usr/include/c++/7/bits/stl_vector.h ****       /**
 428:/usr/include/c++/7/bits/stl_vector.h ****        *  The dtor only erases the elements, and note that if the
 429:/usr/include/c++/7/bits/stl_vector.h ****        *  elements themselves are pointers, the pointed-to memory is
 430:/usr/include/c++/7/bits/stl_vector.h ****        *  not touched in any way.  Managing the pointer is the user's
 431:/usr/include/c++/7/bits/stl_vector.h ****        *  responsibility.
 432:/usr/include/c++/7/bits/stl_vector.h ****        */
 433:/usr/include/c++/7/bits/stl_vector.h ****       ~vector() _GLIBCXX_NOEXCEPT
 1414              		.loc 2 433 0
 1415              		.cfi_startproc
 1416              		.cfi_personality 0x9b,DW.ref.__gxx_personality_v0
 1417              		.cfi_lsda 0x1b,.LLSDA2101
 1418 0000 55       		pushq	%rbp
 1419              		.cfi_def_cfa_offset 16
 1420              		.cfi_offset 6, -16
 1421 0001 4889E5   		movq	%rsp, %rbp
 1422              		.cfi_def_cfa_register 6
 1423 0004 4883EC10 		subq	$16, %rsp
 1424 0008 48897DF8 		movq	%rdi, -8(%rbp)
 1425              	.LBB21:
 434:/usr/include/c++/7/bits/stl_vector.h ****       { std::_Destroy(this->_M_impl._M_start, this->_M_impl._M_finish,
 435:/usr/include/c++/7/bits/stl_vector.h **** 		      _M_get_Tp_allocator()); }
 1426              		.loc 2 435 0
 1427 000c 488B45F8 		movq	-8(%rbp), %rax
 1428 0010 4889C7   		movq	%rax, %rdi
 1429 0013 E8000000 		call	_ZNSt12_Vector_baseIdSaIdEE19_M_get_Tp_allocatorEv
 1429      00
 1430 0018 4889C2   		movq	%rax, %rdx
 434:/usr/include/c++/7/bits/stl_vector.h ****       { std::_Destroy(this->_M_impl._M_start, this->_M_impl._M_finish,
 1431              		.loc 2 434 0
 1432 001b 488B45F8 		movq	-8(%rbp), %rax
 1433 001f 488B4808 		movq	8(%rax), %rcx
 1434 0023 488B45F8 		movq	-8(%rbp), %rax
 1435 0027 488B00   		movq	(%rax), %rax
 1436 002a 4889CE   		movq	%rcx, %rsi
 1437 002d 4889C7   		movq	%rax, %rdi
 1438 0030 E8000000 		call	_ZSt8_DestroyIPddEvT_S1_RSaIT0_E
 1438      00
 1439              		.loc 2 435 0
 1440 0035 488B45F8 		movq	-8(%rbp), %rax
 1441 0039 4889C7   		movq	%rax, %rdi
 1442 003c E8000000 		call	_ZNSt12_Vector_baseIdSaIdEED2Ev
 1442      00
 1443              	.LBE21:
 1444 0041 90       		nop
 1445 0042 C9       		leave
 1446              		.cfi_def_cfa 7, 8
 1447 0043 C3       		ret
 1448              		.cfi_endproc
 1449              	.LFE2101:
 1450              		.section	.gcc_except_table
 1451              	.LLSDA2101:
 1452 0031 FF       		.byte	0xff
 1453 0032 FF       		.byte	0xff
 1454 0033 01       		.byte	0x1
 1455 0034 00       		.uleb128 .LLSDACSE2101-.LLSDACSB2101
 1456              	.LLSDACSB2101:
 1457              	.LLSDACSE2101:
 1458              		.section	.text._ZNSt6vectorIdSaIdEED2Ev,"axG",@progbits,_ZNSt6vectorIdSaIdEED5Ev,comdat
 1460              		.weak	_ZNSt6vectorIdSaIdEED1Ev
 1461              		.set	_ZNSt6vectorIdSaIdEED1Ev,_ZNSt6vectorIdSaIdEED2Ev
 1462              		.section	.text._ZNSt6vectorIdSaIdEE6resizeEm,"axG",@progbits,_ZNSt6vectorIdSaIdEE6resizeEm,comdat
 1463              		.align 2
 1464              		.weak	_ZNSt6vectorIdSaIdEE6resizeEm
 1466              	_ZNSt6vectorIdSaIdEE6resizeEm:
 1467              	.LFB2111:
 436:/usr/include/c++/7/bits/stl_vector.h **** 
 437:/usr/include/c++/7/bits/stl_vector.h ****       /**
 438:/usr/include/c++/7/bits/stl_vector.h ****        *  @brief  %Vector assignment operator.
 439:/usr/include/c++/7/bits/stl_vector.h ****        *  @param  __x  A %vector of identical element and allocator types.
 440:/usr/include/c++/7/bits/stl_vector.h ****        *
 441:/usr/include/c++/7/bits/stl_vector.h ****        *  All the elements of @a __x are copied, but any unused capacity in
 442:/usr/include/c++/7/bits/stl_vector.h ****        *  @a __x will not be copied.
 443:/usr/include/c++/7/bits/stl_vector.h ****        *
 444:/usr/include/c++/7/bits/stl_vector.h ****        *  Whether the allocator is copied depends on the allocator traits.
 445:/usr/include/c++/7/bits/stl_vector.h ****        */
 446:/usr/include/c++/7/bits/stl_vector.h ****       vector&
 447:/usr/include/c++/7/bits/stl_vector.h ****       operator=(const vector& __x);
 448:/usr/include/c++/7/bits/stl_vector.h **** 
 449:/usr/include/c++/7/bits/stl_vector.h **** #if __cplusplus >= 201103L
 450:/usr/include/c++/7/bits/stl_vector.h ****       /**
 451:/usr/include/c++/7/bits/stl_vector.h ****        *  @brief  %Vector move assignment operator.
 452:/usr/include/c++/7/bits/stl_vector.h ****        *  @param  __x  A %vector of identical element and allocator types.
 453:/usr/include/c++/7/bits/stl_vector.h ****        *
 454:/usr/include/c++/7/bits/stl_vector.h ****        *  The contents of @a __x are moved into this %vector (without copying,
 455:/usr/include/c++/7/bits/stl_vector.h ****        *  if the allocators permit it).
 456:/usr/include/c++/7/bits/stl_vector.h ****        *  Afterwards @a __x is a valid, but unspecified %vector.
 457:/usr/include/c++/7/bits/stl_vector.h ****        *
 458:/usr/include/c++/7/bits/stl_vector.h ****        *  Whether the allocator is moved depends on the allocator traits.
 459:/usr/include/c++/7/bits/stl_vector.h ****        */
 460:/usr/include/c++/7/bits/stl_vector.h ****       vector&
 461:/usr/include/c++/7/bits/stl_vector.h ****       operator=(vector&& __x) noexcept(_Alloc_traits::_S_nothrow_move())
 462:/usr/include/c++/7/bits/stl_vector.h ****       {
 463:/usr/include/c++/7/bits/stl_vector.h **** 	constexpr bool __move_storage =
 464:/usr/include/c++/7/bits/stl_vector.h **** 	  _Alloc_traits::_S_propagate_on_move_assign()
 465:/usr/include/c++/7/bits/stl_vector.h **** 	  || _Alloc_traits::_S_always_equal();
 466:/usr/include/c++/7/bits/stl_vector.h **** 	_M_move_assign(std::move(__x), __bool_constant<__move_storage>());
 467:/usr/include/c++/7/bits/stl_vector.h **** 	return *this;
 468:/usr/include/c++/7/bits/stl_vector.h ****       }
 469:/usr/include/c++/7/bits/stl_vector.h **** 
 470:/usr/include/c++/7/bits/stl_vector.h ****       /**
 471:/usr/include/c++/7/bits/stl_vector.h ****        *  @brief  %Vector list assignment operator.
 472:/usr/include/c++/7/bits/stl_vector.h ****        *  @param  __l  An initializer_list.
 473:/usr/include/c++/7/bits/stl_vector.h ****        *
 474:/usr/include/c++/7/bits/stl_vector.h ****        *  This function fills a %vector with copies of the elements in the
 475:/usr/include/c++/7/bits/stl_vector.h ****        *  initializer list @a __l.
 476:/usr/include/c++/7/bits/stl_vector.h ****        *
 477:/usr/include/c++/7/bits/stl_vector.h ****        *  Note that the assignment completely changes the %vector and
 478:/usr/include/c++/7/bits/stl_vector.h ****        *  that the resulting %vector's size is the same as the number
 479:/usr/include/c++/7/bits/stl_vector.h ****        *  of elements assigned.
 480:/usr/include/c++/7/bits/stl_vector.h ****        */
 481:/usr/include/c++/7/bits/stl_vector.h ****       vector&
 482:/usr/include/c++/7/bits/stl_vector.h ****       operator=(initializer_list<value_type> __l)
 483:/usr/include/c++/7/bits/stl_vector.h ****       {
 484:/usr/include/c++/7/bits/stl_vector.h **** 	this->_M_assign_aux(__l.begin(), __l.end(),
 485:/usr/include/c++/7/bits/stl_vector.h **** 			    random_access_iterator_tag());
 486:/usr/include/c++/7/bits/stl_vector.h **** 	return *this;
 487:/usr/include/c++/7/bits/stl_vector.h ****       }
 488:/usr/include/c++/7/bits/stl_vector.h **** #endif
 489:/usr/include/c++/7/bits/stl_vector.h **** 
 490:/usr/include/c++/7/bits/stl_vector.h ****       /**
 491:/usr/include/c++/7/bits/stl_vector.h ****        *  @brief  Assigns a given value to a %vector.
 492:/usr/include/c++/7/bits/stl_vector.h ****        *  @param  __n  Number of elements to be assigned.
 493:/usr/include/c++/7/bits/stl_vector.h ****        *  @param  __val  Value to be assigned.
 494:/usr/include/c++/7/bits/stl_vector.h ****        *
 495:/usr/include/c++/7/bits/stl_vector.h ****        *  This function fills a %vector with @a __n copies of the given
 496:/usr/include/c++/7/bits/stl_vector.h ****        *  value.  Note that the assignment completely changes the
 497:/usr/include/c++/7/bits/stl_vector.h ****        *  %vector and that the resulting %vector's size is the same as
 498:/usr/include/c++/7/bits/stl_vector.h ****        *  the number of elements assigned.
 499:/usr/include/c++/7/bits/stl_vector.h ****        */
 500:/usr/include/c++/7/bits/stl_vector.h ****       void
 501:/usr/include/c++/7/bits/stl_vector.h ****       assign(size_type __n, const value_type& __val)
 502:/usr/include/c++/7/bits/stl_vector.h ****       { _M_fill_assign(__n, __val); }
 503:/usr/include/c++/7/bits/stl_vector.h **** 
 504:/usr/include/c++/7/bits/stl_vector.h ****       /**
 505:/usr/include/c++/7/bits/stl_vector.h ****        *  @brief  Assigns a range to a %vector.
 506:/usr/include/c++/7/bits/stl_vector.h ****        *  @param  __first  An input iterator.
 507:/usr/include/c++/7/bits/stl_vector.h ****        *  @param  __last   An input iterator.
 508:/usr/include/c++/7/bits/stl_vector.h ****        *
 509:/usr/include/c++/7/bits/stl_vector.h ****        *  This function fills a %vector with copies of the elements in the
 510:/usr/include/c++/7/bits/stl_vector.h ****        *  range [__first,__last).
 511:/usr/include/c++/7/bits/stl_vector.h ****        *
 512:/usr/include/c++/7/bits/stl_vector.h ****        *  Note that the assignment completely changes the %vector and
 513:/usr/include/c++/7/bits/stl_vector.h ****        *  that the resulting %vector's size is the same as the number
 514:/usr/include/c++/7/bits/stl_vector.h ****        *  of elements assigned.
 515:/usr/include/c++/7/bits/stl_vector.h ****        */
 516:/usr/include/c++/7/bits/stl_vector.h **** #if __cplusplus >= 201103L
 517:/usr/include/c++/7/bits/stl_vector.h ****       template<typename _InputIterator,
 518:/usr/include/c++/7/bits/stl_vector.h **** 	       typename = std::_RequireInputIter<_InputIterator>>
 519:/usr/include/c++/7/bits/stl_vector.h **** 	void
 520:/usr/include/c++/7/bits/stl_vector.h **** 	assign(_InputIterator __first, _InputIterator __last)
 521:/usr/include/c++/7/bits/stl_vector.h **** 	{ _M_assign_dispatch(__first, __last, __false_type()); }
 522:/usr/include/c++/7/bits/stl_vector.h **** #else
 523:/usr/include/c++/7/bits/stl_vector.h ****       template<typename _InputIterator>
 524:/usr/include/c++/7/bits/stl_vector.h **** 	void
 525:/usr/include/c++/7/bits/stl_vector.h **** 	assign(_InputIterator __first, _InputIterator __last)
 526:/usr/include/c++/7/bits/stl_vector.h **** 	{
 527:/usr/include/c++/7/bits/stl_vector.h **** 	  // Check whether it's an integral type.  If so, it's not an iterator.
 528:/usr/include/c++/7/bits/stl_vector.h **** 	  typedef typename std::__is_integer<_InputIterator>::__type _Integral;
 529:/usr/include/c++/7/bits/stl_vector.h **** 	  _M_assign_dispatch(__first, __last, _Integral());
 530:/usr/include/c++/7/bits/stl_vector.h **** 	}
 531:/usr/include/c++/7/bits/stl_vector.h **** #endif
 532:/usr/include/c++/7/bits/stl_vector.h **** 
 533:/usr/include/c++/7/bits/stl_vector.h **** #if __cplusplus >= 201103L
 534:/usr/include/c++/7/bits/stl_vector.h ****       /**
 535:/usr/include/c++/7/bits/stl_vector.h ****        *  @brief  Assigns an initializer list to a %vector.
 536:/usr/include/c++/7/bits/stl_vector.h ****        *  @param  __l  An initializer_list.
 537:/usr/include/c++/7/bits/stl_vector.h ****        *
 538:/usr/include/c++/7/bits/stl_vector.h ****        *  This function fills a %vector with copies of the elements in the
 539:/usr/include/c++/7/bits/stl_vector.h ****        *  initializer list @a __l.
 540:/usr/include/c++/7/bits/stl_vector.h ****        *
 541:/usr/include/c++/7/bits/stl_vector.h ****        *  Note that the assignment completely changes the %vector and
 542:/usr/include/c++/7/bits/stl_vector.h ****        *  that the resulting %vector's size is the same as the number
 543:/usr/include/c++/7/bits/stl_vector.h ****        *  of elements assigned.
 544:/usr/include/c++/7/bits/stl_vector.h ****        */
 545:/usr/include/c++/7/bits/stl_vector.h ****       void
 546:/usr/include/c++/7/bits/stl_vector.h ****       assign(initializer_list<value_type> __l)
 547:/usr/include/c++/7/bits/stl_vector.h ****       {
 548:/usr/include/c++/7/bits/stl_vector.h **** 	this->_M_assign_aux(__l.begin(), __l.end(),
 549:/usr/include/c++/7/bits/stl_vector.h **** 			    random_access_iterator_tag());
 550:/usr/include/c++/7/bits/stl_vector.h ****       }
 551:/usr/include/c++/7/bits/stl_vector.h **** #endif
 552:/usr/include/c++/7/bits/stl_vector.h **** 
 553:/usr/include/c++/7/bits/stl_vector.h ****       /// Get a copy of the memory allocation object.
 554:/usr/include/c++/7/bits/stl_vector.h ****       using _Base::get_allocator;
 555:/usr/include/c++/7/bits/stl_vector.h **** 
 556:/usr/include/c++/7/bits/stl_vector.h ****       // iterators
 557:/usr/include/c++/7/bits/stl_vector.h ****       /**
 558:/usr/include/c++/7/bits/stl_vector.h ****        *  Returns a read/write iterator that points to the first
 559:/usr/include/c++/7/bits/stl_vector.h ****        *  element in the %vector.  Iteration is done in ordinary
 560:/usr/include/c++/7/bits/stl_vector.h ****        *  element order.
 561:/usr/include/c++/7/bits/stl_vector.h ****        */
 562:/usr/include/c++/7/bits/stl_vector.h ****       iterator
 563:/usr/include/c++/7/bits/stl_vector.h ****       begin() _GLIBCXX_NOEXCEPT
 564:/usr/include/c++/7/bits/stl_vector.h ****       { return iterator(this->_M_impl._M_start); }
 565:/usr/include/c++/7/bits/stl_vector.h **** 
 566:/usr/include/c++/7/bits/stl_vector.h ****       /**
 567:/usr/include/c++/7/bits/stl_vector.h ****        *  Returns a read-only (constant) iterator that points to the
 568:/usr/include/c++/7/bits/stl_vector.h ****        *  first element in the %vector.  Iteration is done in ordinary
 569:/usr/include/c++/7/bits/stl_vector.h ****        *  element order.
 570:/usr/include/c++/7/bits/stl_vector.h ****        */
 571:/usr/include/c++/7/bits/stl_vector.h ****       const_iterator
 572:/usr/include/c++/7/bits/stl_vector.h ****       begin() const _GLIBCXX_NOEXCEPT
 573:/usr/include/c++/7/bits/stl_vector.h ****       { return const_iterator(this->_M_impl._M_start); }
 574:/usr/include/c++/7/bits/stl_vector.h **** 
 575:/usr/include/c++/7/bits/stl_vector.h ****       /**
 576:/usr/include/c++/7/bits/stl_vector.h ****        *  Returns a read/write iterator that points one past the last
 577:/usr/include/c++/7/bits/stl_vector.h ****        *  element in the %vector.  Iteration is done in ordinary
 578:/usr/include/c++/7/bits/stl_vector.h ****        *  element order.
 579:/usr/include/c++/7/bits/stl_vector.h ****        */
 580:/usr/include/c++/7/bits/stl_vector.h ****       iterator
 581:/usr/include/c++/7/bits/stl_vector.h ****       end() _GLIBCXX_NOEXCEPT
 582:/usr/include/c++/7/bits/stl_vector.h ****       { return iterator(this->_M_impl._M_finish); }
 583:/usr/include/c++/7/bits/stl_vector.h **** 
 584:/usr/include/c++/7/bits/stl_vector.h ****       /**
 585:/usr/include/c++/7/bits/stl_vector.h ****        *  Returns a read-only (constant) iterator that points one past
 586:/usr/include/c++/7/bits/stl_vector.h ****        *  the last element in the %vector.  Iteration is done in
 587:/usr/include/c++/7/bits/stl_vector.h ****        *  ordinary element order.
 588:/usr/include/c++/7/bits/stl_vector.h ****        */
 589:/usr/include/c++/7/bits/stl_vector.h ****       const_iterator
 590:/usr/include/c++/7/bits/stl_vector.h ****       end() const _GLIBCXX_NOEXCEPT
 591:/usr/include/c++/7/bits/stl_vector.h ****       { return const_iterator(this->_M_impl._M_finish); }
 592:/usr/include/c++/7/bits/stl_vector.h **** 
 593:/usr/include/c++/7/bits/stl_vector.h ****       /**
 594:/usr/include/c++/7/bits/stl_vector.h ****        *  Returns a read/write reverse iterator that points to the
 595:/usr/include/c++/7/bits/stl_vector.h ****        *  last element in the %vector.  Iteration is done in reverse
 596:/usr/include/c++/7/bits/stl_vector.h ****        *  element order.
 597:/usr/include/c++/7/bits/stl_vector.h ****        */
 598:/usr/include/c++/7/bits/stl_vector.h ****       reverse_iterator
 599:/usr/include/c++/7/bits/stl_vector.h ****       rbegin() _GLIBCXX_NOEXCEPT
 600:/usr/include/c++/7/bits/stl_vector.h ****       { return reverse_iterator(end()); }
 601:/usr/include/c++/7/bits/stl_vector.h **** 
 602:/usr/include/c++/7/bits/stl_vector.h ****       /**
 603:/usr/include/c++/7/bits/stl_vector.h ****        *  Returns a read-only (constant) reverse iterator that points
 604:/usr/include/c++/7/bits/stl_vector.h ****        *  to the last element in the %vector.  Iteration is done in
 605:/usr/include/c++/7/bits/stl_vector.h ****        *  reverse element order.
 606:/usr/include/c++/7/bits/stl_vector.h ****        */
 607:/usr/include/c++/7/bits/stl_vector.h ****       const_reverse_iterator
 608:/usr/include/c++/7/bits/stl_vector.h ****       rbegin() const _GLIBCXX_NOEXCEPT
 609:/usr/include/c++/7/bits/stl_vector.h ****       { return const_reverse_iterator(end()); }
 610:/usr/include/c++/7/bits/stl_vector.h **** 
 611:/usr/include/c++/7/bits/stl_vector.h ****       /**
 612:/usr/include/c++/7/bits/stl_vector.h ****        *  Returns a read/write reverse iterator that points to one
 613:/usr/include/c++/7/bits/stl_vector.h ****        *  before the first element in the %vector.  Iteration is done
 614:/usr/include/c++/7/bits/stl_vector.h ****        *  in reverse element order.
 615:/usr/include/c++/7/bits/stl_vector.h ****        */
 616:/usr/include/c++/7/bits/stl_vector.h ****       reverse_iterator
 617:/usr/include/c++/7/bits/stl_vector.h ****       rend() _GLIBCXX_NOEXCEPT
 618:/usr/include/c++/7/bits/stl_vector.h ****       { return reverse_iterator(begin()); }
 619:/usr/include/c++/7/bits/stl_vector.h **** 
 620:/usr/include/c++/7/bits/stl_vector.h ****       /**
 621:/usr/include/c++/7/bits/stl_vector.h ****        *  Returns a read-only (constant) reverse iterator that points
 622:/usr/include/c++/7/bits/stl_vector.h ****        *  to one before the first element in the %vector.  Iteration
 623:/usr/include/c++/7/bits/stl_vector.h ****        *  is done in reverse element order.
 624:/usr/include/c++/7/bits/stl_vector.h ****        */
 625:/usr/include/c++/7/bits/stl_vector.h ****       const_reverse_iterator
 626:/usr/include/c++/7/bits/stl_vector.h ****       rend() const _GLIBCXX_NOEXCEPT
 627:/usr/include/c++/7/bits/stl_vector.h ****       { return const_reverse_iterator(begin()); }
 628:/usr/include/c++/7/bits/stl_vector.h **** 
 629:/usr/include/c++/7/bits/stl_vector.h **** #if __cplusplus >= 201103L
 630:/usr/include/c++/7/bits/stl_vector.h ****       /**
 631:/usr/include/c++/7/bits/stl_vector.h ****        *  Returns a read-only (constant) iterator that points to the
 632:/usr/include/c++/7/bits/stl_vector.h ****        *  first element in the %vector.  Iteration is done in ordinary
 633:/usr/include/c++/7/bits/stl_vector.h ****        *  element order.
 634:/usr/include/c++/7/bits/stl_vector.h ****        */
 635:/usr/include/c++/7/bits/stl_vector.h ****       const_iterator
 636:/usr/include/c++/7/bits/stl_vector.h ****       cbegin() const noexcept
 637:/usr/include/c++/7/bits/stl_vector.h ****       { return const_iterator(this->_M_impl._M_start); }
 638:/usr/include/c++/7/bits/stl_vector.h **** 
 639:/usr/include/c++/7/bits/stl_vector.h ****       /**
 640:/usr/include/c++/7/bits/stl_vector.h ****        *  Returns a read-only (constant) iterator that points one past
 641:/usr/include/c++/7/bits/stl_vector.h ****        *  the last element in the %vector.  Iteration is done in
 642:/usr/include/c++/7/bits/stl_vector.h ****        *  ordinary element order.
 643:/usr/include/c++/7/bits/stl_vector.h ****        */
 644:/usr/include/c++/7/bits/stl_vector.h ****       const_iterator
 645:/usr/include/c++/7/bits/stl_vector.h ****       cend() const noexcept
 646:/usr/include/c++/7/bits/stl_vector.h ****       { return const_iterator(this->_M_impl._M_finish); }
 647:/usr/include/c++/7/bits/stl_vector.h **** 
 648:/usr/include/c++/7/bits/stl_vector.h ****       /**
 649:/usr/include/c++/7/bits/stl_vector.h ****        *  Returns a read-only (constant) reverse iterator that points
 650:/usr/include/c++/7/bits/stl_vector.h ****        *  to the last element in the %vector.  Iteration is done in
 651:/usr/include/c++/7/bits/stl_vector.h ****        *  reverse element order.
 652:/usr/include/c++/7/bits/stl_vector.h ****        */
 653:/usr/include/c++/7/bits/stl_vector.h ****       const_reverse_iterator
 654:/usr/include/c++/7/bits/stl_vector.h ****       crbegin() const noexcept
 655:/usr/include/c++/7/bits/stl_vector.h ****       { return const_reverse_iterator(end()); }
 656:/usr/include/c++/7/bits/stl_vector.h **** 
 657:/usr/include/c++/7/bits/stl_vector.h ****       /**
 658:/usr/include/c++/7/bits/stl_vector.h ****        *  Returns a read-only (constant) reverse iterator that points
 659:/usr/include/c++/7/bits/stl_vector.h ****        *  to one before the first element in the %vector.  Iteration
 660:/usr/include/c++/7/bits/stl_vector.h ****        *  is done in reverse element order.
 661:/usr/include/c++/7/bits/stl_vector.h ****        */
 662:/usr/include/c++/7/bits/stl_vector.h ****       const_reverse_iterator
 663:/usr/include/c++/7/bits/stl_vector.h ****       crend() const noexcept
 664:/usr/include/c++/7/bits/stl_vector.h ****       { return const_reverse_iterator(begin()); }
 665:/usr/include/c++/7/bits/stl_vector.h **** #endif
 666:/usr/include/c++/7/bits/stl_vector.h **** 
 667:/usr/include/c++/7/bits/stl_vector.h ****       // [23.2.4.2] capacity
 668:/usr/include/c++/7/bits/stl_vector.h ****       /**  Returns the number of elements in the %vector.  */
 669:/usr/include/c++/7/bits/stl_vector.h ****       size_type
 670:/usr/include/c++/7/bits/stl_vector.h ****       size() const _GLIBCXX_NOEXCEPT
 671:/usr/include/c++/7/bits/stl_vector.h ****       { return size_type(this->_M_impl._M_finish - this->_M_impl._M_start); }
 672:/usr/include/c++/7/bits/stl_vector.h **** 
 673:/usr/include/c++/7/bits/stl_vector.h ****       /**  Returns the size() of the largest possible %vector.  */
 674:/usr/include/c++/7/bits/stl_vector.h ****       size_type
 675:/usr/include/c++/7/bits/stl_vector.h ****       max_size() const _GLIBCXX_NOEXCEPT
 676:/usr/include/c++/7/bits/stl_vector.h ****       { return _Alloc_traits::max_size(_M_get_Tp_allocator()); }
 677:/usr/include/c++/7/bits/stl_vector.h **** 
 678:/usr/include/c++/7/bits/stl_vector.h **** #if __cplusplus >= 201103L
 679:/usr/include/c++/7/bits/stl_vector.h ****       /**
 680:/usr/include/c++/7/bits/stl_vector.h ****        *  @brief  Resizes the %vector to the specified number of elements.
 681:/usr/include/c++/7/bits/stl_vector.h ****        *  @param  __new_size  Number of elements the %vector should contain.
 682:/usr/include/c++/7/bits/stl_vector.h ****        *
 683:/usr/include/c++/7/bits/stl_vector.h ****        *  This function will %resize the %vector to the specified
 684:/usr/include/c++/7/bits/stl_vector.h ****        *  number of elements.  If the number is smaller than the
 685:/usr/include/c++/7/bits/stl_vector.h ****        *  %vector's current size the %vector is truncated, otherwise
 686:/usr/include/c++/7/bits/stl_vector.h ****        *  default constructed elements are appended.
 687:/usr/include/c++/7/bits/stl_vector.h ****        */
 688:/usr/include/c++/7/bits/stl_vector.h ****       void
 689:/usr/include/c++/7/bits/stl_vector.h ****       resize(size_type __new_size)
 1468              		.loc 2 689 0
 1469              		.cfi_startproc
 1470 0000 55       		pushq	%rbp
 1471              		.cfi_def_cfa_offset 16
 1472              		.cfi_offset 6, -16
 1473 0001 4889E5   		movq	%rsp, %rbp
 1474              		.cfi_def_cfa_register 6
 1475 0004 4883EC10 		subq	$16, %rsp
 1476 0008 48897DF8 		movq	%rdi, -8(%rbp)
 1477 000c 488975F0 		movq	%rsi, -16(%rbp)
 690:/usr/include/c++/7/bits/stl_vector.h ****       {
 691:/usr/include/c++/7/bits/stl_vector.h **** 	if (__new_size > size())
 1478              		.loc 2 691 0
 1479 0010 488B45F8 		movq	-8(%rbp), %rax
 1480 0014 4889C7   		movq	%rax, %rdi
 1481 0017 E8000000 		call	_ZNKSt6vectorIdSaIdEE4sizeEv
 1481      00
 1482 001c 483945F0 		cmpq	%rax, -16(%rbp)
 1483 0020 0F97C0   		seta	%al
 1484 0023 84C0     		testb	%al, %al
 1485 0025 742A     		je	.L58
 692:/usr/include/c++/7/bits/stl_vector.h **** 	  _M_default_append(__new_size - size());
 1486              		.loc 2 692 0
 1487 0027 488B45F8 		movq	-8(%rbp), %rax
 1488 002b 4889C7   		movq	%rax, %rdi
 1489 002e E8000000 		call	_ZNKSt6vectorIdSaIdEE4sizeEv
 1489      00
 1490 0033 4889C2   		movq	%rax, %rdx
 1491 0036 488B45F0 		movq	-16(%rbp), %rax
 1492 003a 4829D0   		subq	%rdx, %rax
 1493 003d 4889C2   		movq	%rax, %rdx
 1494 0040 488B45F8 		movq	-8(%rbp), %rax
 1495 0044 4889D6   		movq	%rdx, %rsi
 1496 0047 4889C7   		movq	%rax, %rdi
 1497 004a E8000000 		call	_ZNSt6vectorIdSaIdEE17_M_default_appendEm
 1497      00
 693:/usr/include/c++/7/bits/stl_vector.h **** 	else if (__new_size < size())
 694:/usr/include/c++/7/bits/stl_vector.h **** 	  _M_erase_at_end(this->_M_impl._M_start + __new_size);
 695:/usr/include/c++/7/bits/stl_vector.h ****       }
 1498              		.loc 2 695 0
 1499 004f EB38     		jmp	.L60
 1500              	.L58:
 693:/usr/include/c++/7/bits/stl_vector.h **** 	else if (__new_size < size())
 1501              		.loc 2 693 0
 1502 0051 488B45F8 		movq	-8(%rbp), %rax
 1503 0055 4889C7   		movq	%rax, %rdi
 1504 0058 E8000000 		call	_ZNKSt6vectorIdSaIdEE4sizeEv
 1504      00
 1505 005d 483945F0 		cmpq	%rax, -16(%rbp)
 1506 0061 0F92C0   		setb	%al
 1507 0064 84C0     		testb	%al, %al
 1508 0066 7421     		je	.L60
 694:/usr/include/c++/7/bits/stl_vector.h ****       }
 1509              		.loc 2 694 0
 1510 0068 488B45F8 		movq	-8(%rbp), %rax
 1511 006c 488B00   		movq	(%rax), %rax
 1512 006f 488B55F0 		movq	-16(%rbp), %rdx
 1513 0073 48C1E203 		salq	$3, %rdx
 1514 0077 4801C2   		addq	%rax, %rdx
 1515 007a 488B45F8 		movq	-8(%rbp), %rax
 1516 007e 4889D6   		movq	%rdx, %rsi
 1517 0081 4889C7   		movq	%rax, %rdi
 1518 0084 E8000000 		call	_ZNSt6vectorIdSaIdEE15_M_erase_at_endEPd
 1518      00
 1519              	.L60:
 1520              		.loc 2 695 0
 1521 0089 90       		nop
 1522 008a C9       		leave
 1523              		.cfi_def_cfa 7, 8
 1524 008b C3       		ret
 1525              		.cfi_endproc
 1526              	.LFE2111:
 1528              		.section	.text._ZNKSt6vectorIdSaIdEE4sizeEv,"axG",@progbits,_ZNKSt6vectorIdSaIdEE4sizeEv,comdat
 1529              		.align 2
 1530              		.weak	_ZNKSt6vectorIdSaIdEE4sizeEv
 1532              	_ZNKSt6vectorIdSaIdEE4sizeEv:
 1533              	.LFB2112:
 670:/usr/include/c++/7/bits/stl_vector.h ****       { return size_type(this->_M_impl._M_finish - this->_M_impl._M_start); }
 1534              		.loc 2 670 0
 1535              		.cfi_startproc
 1536 0000 55       		pushq	%rbp
 1537              		.cfi_def_cfa_offset 16
 1538              		.cfi_offset 6, -16
 1539 0001 4889E5   		movq	%rsp, %rbp
 1540              		.cfi_def_cfa_register 6
 1541 0004 48897DF8 		movq	%rdi, -8(%rbp)
 671:/usr/include/c++/7/bits/stl_vector.h **** 
 1542              		.loc 2 671 0
 1543 0008 488B45F8 		movq	-8(%rbp), %rax
 1544 000c 488B4008 		movq	8(%rax), %rax
 1545 0010 4889C2   		movq	%rax, %rdx
 1546 0013 488B45F8 		movq	-8(%rbp), %rax
 1547 0017 488B00   		movq	(%rax), %rax
 1548 001a 4829C2   		subq	%rax, %rdx
 1549 001d 4889D0   		movq	%rdx, %rax
 1550 0020 48C1F803 		sarq	$3, %rax
 1551 0024 5D       		popq	%rbp
 1552              		.cfi_def_cfa 7, 8
 1553 0025 C3       		ret
 1554              		.cfi_endproc
 1555              	.LFE2112:
 1557              		.section	.text._ZNSt6vectorIdSaIdEEixEm,"axG",@progbits,_ZNSt6vectorIdSaIdEEixEm,comdat
 1558              		.align 2
 1559              		.weak	_ZNSt6vectorIdSaIdEEixEm
 1561              	_ZNSt6vectorIdSaIdEEixEm:
 1562              	.LFB2113:
 696:/usr/include/c++/7/bits/stl_vector.h **** 
 697:/usr/include/c++/7/bits/stl_vector.h ****       /**
 698:/usr/include/c++/7/bits/stl_vector.h ****        *  @brief  Resizes the %vector to the specified number of elements.
 699:/usr/include/c++/7/bits/stl_vector.h ****        *  @param  __new_size  Number of elements the %vector should contain.
 700:/usr/include/c++/7/bits/stl_vector.h ****        *  @param  __x  Data with which new elements should be populated.
 701:/usr/include/c++/7/bits/stl_vector.h ****        *
 702:/usr/include/c++/7/bits/stl_vector.h ****        *  This function will %resize the %vector to the specified
 703:/usr/include/c++/7/bits/stl_vector.h ****        *  number of elements.  If the number is smaller than the
 704:/usr/include/c++/7/bits/stl_vector.h ****        *  %vector's current size the %vector is truncated, otherwise
 705:/usr/include/c++/7/bits/stl_vector.h ****        *  the %vector is extended and new elements are populated with
 706:/usr/include/c++/7/bits/stl_vector.h ****        *  given data.
 707:/usr/include/c++/7/bits/stl_vector.h ****        */
 708:/usr/include/c++/7/bits/stl_vector.h ****       void
 709:/usr/include/c++/7/bits/stl_vector.h ****       resize(size_type __new_size, const value_type& __x)
 710:/usr/include/c++/7/bits/stl_vector.h ****       {
 711:/usr/include/c++/7/bits/stl_vector.h **** 	if (__new_size > size())
 712:/usr/include/c++/7/bits/stl_vector.h **** 	  _M_fill_insert(end(), __new_size - size(), __x);
 713:/usr/include/c++/7/bits/stl_vector.h **** 	else if (__new_size < size())
 714:/usr/include/c++/7/bits/stl_vector.h **** 	  _M_erase_at_end(this->_M_impl._M_start + __new_size);
 715:/usr/include/c++/7/bits/stl_vector.h ****       }
 716:/usr/include/c++/7/bits/stl_vector.h **** #else
 717:/usr/include/c++/7/bits/stl_vector.h ****       /**
 718:/usr/include/c++/7/bits/stl_vector.h ****        *  @brief  Resizes the %vector to the specified number of elements.
 719:/usr/include/c++/7/bits/stl_vector.h ****        *  @param  __new_size  Number of elements the %vector should contain.
 720:/usr/include/c++/7/bits/stl_vector.h ****        *  @param  __x  Data with which new elements should be populated.
 721:/usr/include/c++/7/bits/stl_vector.h ****        *
 722:/usr/include/c++/7/bits/stl_vector.h ****        *  This function will %resize the %vector to the specified
 723:/usr/include/c++/7/bits/stl_vector.h ****        *  number of elements.  If the number is smaller than the
 724:/usr/include/c++/7/bits/stl_vector.h ****        *  %vector's current size the %vector is truncated, otherwise
 725:/usr/include/c++/7/bits/stl_vector.h ****        *  the %vector is extended and new elements are populated with
 726:/usr/include/c++/7/bits/stl_vector.h ****        *  given data.
 727:/usr/include/c++/7/bits/stl_vector.h ****        */
 728:/usr/include/c++/7/bits/stl_vector.h ****       void
 729:/usr/include/c++/7/bits/stl_vector.h ****       resize(size_type __new_size, value_type __x = value_type())
 730:/usr/include/c++/7/bits/stl_vector.h ****       {
 731:/usr/include/c++/7/bits/stl_vector.h **** 	if (__new_size > size())
 732:/usr/include/c++/7/bits/stl_vector.h **** 	  _M_fill_insert(end(), __new_size - size(), __x);
 733:/usr/include/c++/7/bits/stl_vector.h **** 	else if (__new_size < size())
 734:/usr/include/c++/7/bits/stl_vector.h **** 	  _M_erase_at_end(this->_M_impl._M_start + __new_size);
 735:/usr/include/c++/7/bits/stl_vector.h ****       }
 736:/usr/include/c++/7/bits/stl_vector.h **** #endif
 737:/usr/include/c++/7/bits/stl_vector.h **** 
 738:/usr/include/c++/7/bits/stl_vector.h **** #if __cplusplus >= 201103L
 739:/usr/include/c++/7/bits/stl_vector.h ****       /**  A non-binding request to reduce capacity() to size().  */
 740:/usr/include/c++/7/bits/stl_vector.h ****       void
 741:/usr/include/c++/7/bits/stl_vector.h ****       shrink_to_fit()
 742:/usr/include/c++/7/bits/stl_vector.h ****       { _M_shrink_to_fit(); }
 743:/usr/include/c++/7/bits/stl_vector.h **** #endif
 744:/usr/include/c++/7/bits/stl_vector.h **** 
 745:/usr/include/c++/7/bits/stl_vector.h ****       /**
 746:/usr/include/c++/7/bits/stl_vector.h ****        *  Returns the total number of elements that the %vector can
 747:/usr/include/c++/7/bits/stl_vector.h ****        *  hold before needing to allocate more memory.
 748:/usr/include/c++/7/bits/stl_vector.h ****        */
 749:/usr/include/c++/7/bits/stl_vector.h ****       size_type
 750:/usr/include/c++/7/bits/stl_vector.h ****       capacity() const _GLIBCXX_NOEXCEPT
 751:/usr/include/c++/7/bits/stl_vector.h ****       { return size_type(this->_M_impl._M_end_of_storage
 752:/usr/include/c++/7/bits/stl_vector.h **** 			 - this->_M_impl._M_start); }
 753:/usr/include/c++/7/bits/stl_vector.h **** 
 754:/usr/include/c++/7/bits/stl_vector.h ****       /**
 755:/usr/include/c++/7/bits/stl_vector.h ****        *  Returns true if the %vector is empty.  (Thus begin() would
 756:/usr/include/c++/7/bits/stl_vector.h ****        *  equal end().)
 757:/usr/include/c++/7/bits/stl_vector.h ****        */
 758:/usr/include/c++/7/bits/stl_vector.h ****       bool
 759:/usr/include/c++/7/bits/stl_vector.h ****       empty() const _GLIBCXX_NOEXCEPT
 760:/usr/include/c++/7/bits/stl_vector.h ****       { return begin() == end(); }
 761:/usr/include/c++/7/bits/stl_vector.h **** 
 762:/usr/include/c++/7/bits/stl_vector.h ****       /**
 763:/usr/include/c++/7/bits/stl_vector.h ****        *  @brief  Attempt to preallocate enough memory for specified number of
 764:/usr/include/c++/7/bits/stl_vector.h ****        *          elements.
 765:/usr/include/c++/7/bits/stl_vector.h ****        *  @param  __n  Number of elements required.
 766:/usr/include/c++/7/bits/stl_vector.h ****        *  @throw  std::length_error  If @a n exceeds @c max_size().
 767:/usr/include/c++/7/bits/stl_vector.h ****        *
 768:/usr/include/c++/7/bits/stl_vector.h ****        *  This function attempts to reserve enough memory for the
 769:/usr/include/c++/7/bits/stl_vector.h ****        *  %vector to hold the specified number of elements.  If the
 770:/usr/include/c++/7/bits/stl_vector.h ****        *  number requested is more than max_size(), length_error is
 771:/usr/include/c++/7/bits/stl_vector.h ****        *  thrown.
 772:/usr/include/c++/7/bits/stl_vector.h ****        *
 773:/usr/include/c++/7/bits/stl_vector.h ****        *  The advantage of this function is that if optimal code is a
 774:/usr/include/c++/7/bits/stl_vector.h ****        *  necessity and the user can determine the number of elements
 775:/usr/include/c++/7/bits/stl_vector.h ****        *  that will be required, the user can reserve the memory in
 776:/usr/include/c++/7/bits/stl_vector.h ****        *  %advance, and thus prevent a possible reallocation of memory
 777:/usr/include/c++/7/bits/stl_vector.h ****        *  and copying of %vector data.
 778:/usr/include/c++/7/bits/stl_vector.h ****        */
 779:/usr/include/c++/7/bits/stl_vector.h ****       void
 780:/usr/include/c++/7/bits/stl_vector.h ****       reserve(size_type __n);
 781:/usr/include/c++/7/bits/stl_vector.h **** 
 782:/usr/include/c++/7/bits/stl_vector.h ****       // element access
 783:/usr/include/c++/7/bits/stl_vector.h ****       /**
 784:/usr/include/c++/7/bits/stl_vector.h ****        *  @brief  Subscript access to the data contained in the %vector.
 785:/usr/include/c++/7/bits/stl_vector.h ****        *  @param __n The index of the element for which data should be
 786:/usr/include/c++/7/bits/stl_vector.h ****        *  accessed.
 787:/usr/include/c++/7/bits/stl_vector.h ****        *  @return  Read/write reference to data.
 788:/usr/include/c++/7/bits/stl_vector.h ****        *
 789:/usr/include/c++/7/bits/stl_vector.h ****        *  This operator allows for easy, array-style, data access.
 790:/usr/include/c++/7/bits/stl_vector.h ****        *  Note that data access with this operator is unchecked and
 791:/usr/include/c++/7/bits/stl_vector.h ****        *  out_of_range lookups are not defined. (For checked lookups
 792:/usr/include/c++/7/bits/stl_vector.h ****        *  see at().)
 793:/usr/include/c++/7/bits/stl_vector.h ****        */
 794:/usr/include/c++/7/bits/stl_vector.h ****       reference
 795:/usr/include/c++/7/bits/stl_vector.h ****       operator[](size_type __n) _GLIBCXX_NOEXCEPT
 1563              		.loc 2 795 0
 1564              		.cfi_startproc
 1565 0000 55       		pushq	%rbp
 1566              		.cfi_def_cfa_offset 16
 1567              		.cfi_offset 6, -16
 1568 0001 4889E5   		movq	%rsp, %rbp
 1569              		.cfi_def_cfa_register 6
 1570 0004 48897DF8 		movq	%rdi, -8(%rbp)
 1571 0008 488975F0 		movq	%rsi, -16(%rbp)
 796:/usr/include/c++/7/bits/stl_vector.h ****       {
 797:/usr/include/c++/7/bits/stl_vector.h **** 	__glibcxx_requires_subscript(__n);
 798:/usr/include/c++/7/bits/stl_vector.h **** 	return *(this->_M_impl._M_start + __n);
 1572              		.loc 2 798 0
 1573 000c 488B45F8 		movq	-8(%rbp), %rax
 1574 0010 488B00   		movq	(%rax), %rax
 1575 0013 488B55F0 		movq	-16(%rbp), %rdx
 1576 0017 48C1E203 		salq	$3, %rdx
 1577 001b 4801D0   		addq	%rdx, %rax
 799:/usr/include/c++/7/bits/stl_vector.h ****       }
 1578              		.loc 2 799 0
 1579 001e 5D       		popq	%rbp
 1580              		.cfi_def_cfa 7, 8
 1581 001f C3       		ret
 1582              		.cfi_endproc
 1583              	.LFE2113:
 1585              		.section	.text._ZNKSt6vectorIdSaIdEEixEm,"axG",@progbits,_ZNKSt6vectorIdSaIdEEixEm,comdat
 1586              		.align 2
 1587              		.weak	_ZNKSt6vectorIdSaIdEEixEm
 1589              	_ZNKSt6vectorIdSaIdEEixEm:
 1590              	.LFB2114:
 800:/usr/include/c++/7/bits/stl_vector.h **** 
 801:/usr/include/c++/7/bits/stl_vector.h ****       /**
 802:/usr/include/c++/7/bits/stl_vector.h ****        *  @brief  Subscript access to the data contained in the %vector.
 803:/usr/include/c++/7/bits/stl_vector.h ****        *  @param __n The index of the element for which data should be
 804:/usr/include/c++/7/bits/stl_vector.h ****        *  accessed.
 805:/usr/include/c++/7/bits/stl_vector.h ****        *  @return  Read-only (constant) reference to data.
 806:/usr/include/c++/7/bits/stl_vector.h ****        *
 807:/usr/include/c++/7/bits/stl_vector.h ****        *  This operator allows for easy, array-style, data access.
 808:/usr/include/c++/7/bits/stl_vector.h ****        *  Note that data access with this operator is unchecked and
 809:/usr/include/c++/7/bits/stl_vector.h ****        *  out_of_range lookups are not defined. (For checked lookups
 810:/usr/include/c++/7/bits/stl_vector.h ****        *  see at().)
 811:/usr/include/c++/7/bits/stl_vector.h ****        */
 812:/usr/include/c++/7/bits/stl_vector.h ****       const_reference
 813:/usr/include/c++/7/bits/stl_vector.h ****       operator[](size_type __n) const _GLIBCXX_NOEXCEPT
 1591              		.loc 2 813 0
 1592              		.cfi_startproc
 1593 0000 55       		pushq	%rbp
 1594              		.cfi_def_cfa_offset 16
 1595              		.cfi_offset 6, -16
 1596 0001 4889E5   		movq	%rsp, %rbp
 1597              		.cfi_def_cfa_register 6
 1598 0004 48897DF8 		movq	%rdi, -8(%rbp)
 1599 0008 488975F0 		movq	%rsi, -16(%rbp)
 814:/usr/include/c++/7/bits/stl_vector.h ****       {
 815:/usr/include/c++/7/bits/stl_vector.h **** 	__glibcxx_requires_subscript(__n);
 816:/usr/include/c++/7/bits/stl_vector.h **** 	return *(this->_M_impl._M_start + __n);
 1600              		.loc 2 816 0
 1601 000c 488B45F8 		movq	-8(%rbp), %rax
 1602 0010 488B00   		movq	(%rax), %rax
 1603 0013 488B55F0 		movq	-16(%rbp), %rdx
 1604 0017 48C1E203 		salq	$3, %rdx
 1605 001b 4801D0   		addq	%rdx, %rax
 817:/usr/include/c++/7/bits/stl_vector.h ****       }
 1606              		.loc 2 817 0
 1607 001e 5D       		popq	%rbp
 1608              		.cfi_def_cfa 7, 8
 1609 001f C3       		ret
 1610              		.cfi_endproc
 1611              	.LFE2114:
 1613              		.section	.text._ZNSt12_Vector_baseIdSaIdEE12_Vector_implD2Ev,"axG",@progbits,_ZNSt12_Vector_baseId
 1614              		.align 2
 1615              		.weak	_ZNSt12_Vector_baseIdSaIdEE12_Vector_implD2Ev
 1617              	_ZNSt12_Vector_baseIdSaIdEE12_Vector_implD2Ev:
 1618              	.LFB2237:
  81:/usr/include/c++/7/bits/stl_vector.h ****       : public _Tp_alloc_type
 1619              		.loc 2 81 0
 1620              		.cfi_startproc
 1621 0000 55       		pushq	%rbp
 1622              		.cfi_def_cfa_offset 16
 1623              		.cfi_offset 6, -16
 1624 0001 4889E5   		movq	%rsp, %rbp
 1625              		.cfi_def_cfa_register 6
 1626 0004 4883EC10 		subq	$16, %rsp
 1627 0008 48897DF8 		movq	%rdi, -8(%rbp)
 1628              	.LBB22:
  81:/usr/include/c++/7/bits/stl_vector.h ****       : public _Tp_alloc_type
 1629              		.loc 2 81 0
 1630 000c 488B45F8 		movq	-8(%rbp), %rax
 1631 0010 4889C7   		movq	%rax, %rdi
 1632 0013 E8000000 		call	_ZNSaIdED2Ev
 1632      00
 1633              	.LBE22:
 1634 0018 90       		nop
 1635 0019 C9       		leave
 1636              		.cfi_def_cfa 7, 8
 1637 001a C3       		ret
 1638              		.cfi_endproc
 1639              	.LFE2237:
 1641              		.weak	_ZNSt12_Vector_baseIdSaIdEE12_Vector_implD1Ev
 1642              		.set	_ZNSt12_Vector_baseIdSaIdEE12_Vector_implD1Ev,_ZNSt12_Vector_baseIdSaIdEE12_Vector_implD2Ev
 1643              		.section	.text._ZNSt12_Vector_baseIdSaIdEEC2Ev,"axG",@progbits,_ZNSt12_Vector_baseIdSaIdEEC5Ev,com
 1644              		.align 2
 1645              		.weak	_ZNSt12_Vector_baseIdSaIdEEC2Ev
 1647              	_ZNSt12_Vector_baseIdSaIdEEC2Ev:
 1648              	.LFB2239:
 126:/usr/include/c++/7/bits/stl_vector.h ****       : _M_impl() { }
 1649              		.loc 2 126 0
 1650              		.cfi_startproc
 1651 0000 55       		pushq	%rbp
 1652              		.cfi_def_cfa_offset 16
 1653              		.cfi_offset 6, -16
 1654 0001 4889E5   		movq	%rsp, %rbp
 1655              		.cfi_def_cfa_register 6
 1656 0004 4883EC10 		subq	$16, %rsp
 1657 0008 48897DF8 		movq	%rdi, -8(%rbp)
 1658              	.LBB23:
 127:/usr/include/c++/7/bits/stl_vector.h **** 
 1659              		.loc 2 127 0
 1660 000c 488B45F8 		movq	-8(%rbp), %rax
 1661 0010 4889C7   		movq	%rax, %rdi
 1662 0013 E8000000 		call	_ZNSt12_Vector_baseIdSaIdEE12_Vector_implC1Ev
 1662      00
 1663              	.LBE23:
 1664 0018 90       		nop
 1665 0019 C9       		leave
 1666              		.cfi_def_cfa 7, 8
 1667 001a C3       		ret
 1668              		.cfi_endproc
 1669              	.LFE2239:
 1671              		.weak	_ZNSt12_Vector_baseIdSaIdEEC1Ev
 1672              		.set	_ZNSt12_Vector_baseIdSaIdEEC1Ev,_ZNSt12_Vector_baseIdSaIdEEC2Ev
 1673              		.section	.text._ZNSt12_Vector_baseIdSaIdEED2Ev,"axG",@progbits,_ZNSt12_Vector_baseIdSaIdEED5Ev,com
 1674              		.align 2
 1675              		.weak	_ZNSt12_Vector_baseIdSaIdEED2Ev
 1677              	_ZNSt12_Vector_baseIdSaIdEED2Ev:
 1678              	.LFB2242:
 161:/usr/include/c++/7/bits/stl_vector.h ****       { _M_deallocate(this->_M_impl._M_start, this->_M_impl._M_end_of_storage
 1679              		.loc 2 161 0
 1680              		.cfi_startproc
 1681              		.cfi_personality 0x9b,DW.ref.__gxx_personality_v0
 1682              		.cfi_lsda 0x1b,.LLSDA2242
 1683 0000 55       		pushq	%rbp
 1684              		.cfi_def_cfa_offset 16
 1685              		.cfi_offset 6, -16
 1686 0001 4889E5   		movq	%rsp, %rbp
 1687              		.cfi_def_cfa_register 6
 1688 0004 4883EC10 		subq	$16, %rsp
 1689 0008 48897DF8 		movq	%rdi, -8(%rbp)
 1690              	.LBB24:
 162:/usr/include/c++/7/bits/stl_vector.h **** 		      - this->_M_impl._M_start); }
 1691              		.loc 2 162 0
 1692 000c 488B45F8 		movq	-8(%rbp), %rax
 1693 0010 488B4010 		movq	16(%rax), %rax
 163:/usr/include/c++/7/bits/stl_vector.h **** 
 1694              		.loc 2 163 0
 1695 0014 4889C2   		movq	%rax, %rdx
 1696 0017 488B45F8 		movq	-8(%rbp), %rax
 1697 001b 488B00   		movq	(%rax), %rax
 1698 001e 4829C2   		subq	%rax, %rdx
 1699 0021 4889D0   		movq	%rdx, %rax
 1700 0024 48C1F803 		sarq	$3, %rax
 162:/usr/include/c++/7/bits/stl_vector.h **** 		      - this->_M_impl._M_start); }
 1701              		.loc 2 162 0
 1702 0028 4889C2   		movq	%rax, %rdx
 1703 002b 488B45F8 		movq	-8(%rbp), %rax
 1704 002f 488B08   		movq	(%rax), %rcx
 1705 0032 488B45F8 		movq	-8(%rbp), %rax
 1706 0036 4889CE   		movq	%rcx, %rsi
 1707 0039 4889C7   		movq	%rax, %rdi
 1708 003c E8000000 		call	_ZNSt12_Vector_baseIdSaIdEE13_M_deallocateEPdm
 1708      00
 163:/usr/include/c++/7/bits/stl_vector.h **** 
 1709              		.loc 2 163 0
 1710 0041 488B45F8 		movq	-8(%rbp), %rax
 1711 0045 4889C7   		movq	%rax, %rdi
 1712 0048 E8000000 		call	_ZNSt12_Vector_baseIdSaIdEE12_Vector_implD1Ev
 1712      00
 1713              	.LBE24:
 1714 004d 90       		nop
 1715 004e C9       		leave
 1716              		.cfi_def_cfa 7, 8
 1717 004f C3       		ret
 1718              		.cfi_endproc
 1719              	.LFE2242:
 1720              		.section	.gcc_except_table
 1721              	.LLSDA2242:
 1722 0035 FF       		.byte	0xff
 1723 0036 FF       		.byte	0xff
 1724 0037 01       		.byte	0x1
 1725 0038 00       		.uleb128 .LLSDACSE2242-.LLSDACSB2242
 1726              	.LLSDACSB2242:
 1727              	.LLSDACSE2242:
 1728              		.section	.text._ZNSt12_Vector_baseIdSaIdEED2Ev,"axG",@progbits,_ZNSt12_Vector_baseIdSaIdEED5Ev,com
 1730              		.weak	_ZNSt12_Vector_baseIdSaIdEED1Ev
 1731              		.set	_ZNSt12_Vector_baseIdSaIdEED1Ev,_ZNSt12_Vector_baseIdSaIdEED2Ev
 1732              		.section	.text._ZNSt12_Vector_baseIdSaIdEE19_M_get_Tp_allocatorEv,"axG",@progbits,_ZNSt12_Vector_b
 1733              		.align 2
 1734              		.weak	_ZNSt12_Vector_baseIdSaIdEE19_M_get_Tp_allocatorEv
 1736              	_ZNSt12_Vector_baseIdSaIdEE19_M_get_Tp_allocatorEv:
 1737              	.LFB2244:
 115:/usr/include/c++/7/bits/stl_vector.h ****       { return *static_cast<_Tp_alloc_type*>(&this->_M_impl); }
 1738              		.loc 2 115 0
 1739              		.cfi_startproc
 1740 0000 55       		pushq	%rbp
 1741              		.cfi_def_cfa_offset 16
 1742              		.cfi_offset 6, -16
 1743 0001 4889E5   		movq	%rsp, %rbp
 1744              		.cfi_def_cfa_register 6
 1745 0004 48897DF8 		movq	%rdi, -8(%rbp)
 116:/usr/include/c++/7/bits/stl_vector.h **** 
 1746              		.loc 2 116 0
 1747 0008 488B45F8 		movq	-8(%rbp), %rax
 1748 000c 5D       		popq	%rbp
 1749              		.cfi_def_cfa 7, 8
 1750 000d C3       		ret
 1751              		.cfi_endproc
 1752              	.LFE2244:
 1754              		.section	.text._ZSt8_DestroyIPddEvT_S1_RSaIT0_E,"axG",@progbits,_ZSt8_DestroyIPddEvT_S1_RSaIT0_E,c
 1755              		.weak	_ZSt8_DestroyIPddEvT_S1_RSaIT0_E
 1757              	_ZSt8_DestroyIPddEvT_S1_RSaIT0_E:
 1758              	.LFB2245:
 1759              		.file 3 "/usr/include/c++/7/bits/stl_construct.h"
   1:/usr/include/c++/7/bits/stl_construct.h **** // nonstandard construct and destroy functions -*- C++ -*-
   2:/usr/include/c++/7/bits/stl_construct.h **** 
   3:/usr/include/c++/7/bits/stl_construct.h **** // Copyright (C) 2001-2017 Free Software Foundation, Inc.
   4:/usr/include/c++/7/bits/stl_construct.h **** //
   5:/usr/include/c++/7/bits/stl_construct.h **** // This file is part of the GNU ISO C++ Library.  This library is free
   6:/usr/include/c++/7/bits/stl_construct.h **** // software; you can redistribute it and/or modify it under the
   7:/usr/include/c++/7/bits/stl_construct.h **** // terms of the GNU General Public License as published by the
   8:/usr/include/c++/7/bits/stl_construct.h **** // Free Software Foundation; either version 3, or (at your option)
   9:/usr/include/c++/7/bits/stl_construct.h **** // any later version.
  10:/usr/include/c++/7/bits/stl_construct.h **** 
  11:/usr/include/c++/7/bits/stl_construct.h **** // This library is distributed in the hope that it will be useful,
  12:/usr/include/c++/7/bits/stl_construct.h **** // but WITHOUT ANY WARRANTY; without even the implied warranty of
  13:/usr/include/c++/7/bits/stl_construct.h **** // MERCHANTABILITY or FITNESS FOR A PARTICULAR PURPOSE.  See the
  14:/usr/include/c++/7/bits/stl_construct.h **** // GNU General Public License for more details.
  15:/usr/include/c++/7/bits/stl_construct.h **** 
  16:/usr/include/c++/7/bits/stl_construct.h **** // Under Section 7 of GPL version 3, you are granted additional
  17:/usr/include/c++/7/bits/stl_construct.h **** // permissions described in the GCC Runtime Library Exception, version
  18:/usr/include/c++/7/bits/stl_construct.h **** // 3.1, as published by the Free Software Foundation.
  19:/usr/include/c++/7/bits/stl_construct.h **** 
  20:/usr/include/c++/7/bits/stl_construct.h **** // You should have received a copy of the GNU General Public License and
  21:/usr/include/c++/7/bits/stl_construct.h **** // a copy of the GCC Runtime Library Exception along with this program;
  22:/usr/include/c++/7/bits/stl_construct.h **** // see the files COPYING3 and COPYING.RUNTIME respectively.  If not, see
  23:/usr/include/c++/7/bits/stl_construct.h **** // <http://www.gnu.org/licenses/>.
  24:/usr/include/c++/7/bits/stl_construct.h **** 
  25:/usr/include/c++/7/bits/stl_construct.h **** /*
  26:/usr/include/c++/7/bits/stl_construct.h ****  *
  27:/usr/include/c++/7/bits/stl_construct.h ****  * Copyright (c) 1994
  28:/usr/include/c++/7/bits/stl_construct.h ****  * Hewlett-Packard Company
  29:/usr/include/c++/7/bits/stl_construct.h ****  *
  30:/usr/include/c++/7/bits/stl_construct.h ****  * Permission to use, copy, modify, distribute and sell this software
  31:/usr/include/c++/7/bits/stl_construct.h ****  * and its documentation for any purpose is hereby granted without fee,
  32:/usr/include/c++/7/bits/stl_construct.h ****  * provided that the above copyright notice appear in all copies and
  33:/usr/include/c++/7/bits/stl_construct.h ****  * that both that copyright notice and this permission notice appear
  34:/usr/include/c++/7/bits/stl_construct.h ****  * in supporting documentation.  Hewlett-Packard Company makes no
  35:/usr/include/c++/7/bits/stl_construct.h ****  * representations about the suitability of this software for any
  36:/usr/include/c++/7/bits/stl_construct.h ****  * purpose.  It is provided "as is" without express or implied warranty.
  37:/usr/include/c++/7/bits/stl_construct.h ****  *
  38:/usr/include/c++/7/bits/stl_construct.h ****  *
  39:/usr/include/c++/7/bits/stl_construct.h ****  * Copyright (c) 1996,1997
  40:/usr/include/c++/7/bits/stl_construct.h ****  * Silicon Graphics Computer Systems, Inc.
  41:/usr/include/c++/7/bits/stl_construct.h ****  *
  42:/usr/include/c++/7/bits/stl_construct.h ****  * Permission to use, copy, modify, distribute and sell this software
  43:/usr/include/c++/7/bits/stl_construct.h ****  * and its documentation for any purpose is hereby granted without fee,
  44:/usr/include/c++/7/bits/stl_construct.h ****  * provided that the above copyright notice appear in all copies and
  45:/usr/include/c++/7/bits/stl_construct.h ****  * that both that copyright notice and this permission notice appear
  46:/usr/include/c++/7/bits/stl_construct.h ****  * in supporting documentation.  Silicon Graphics makes no
  47:/usr/include/c++/7/bits/stl_construct.h ****  * representations about the suitability of this software for any
  48:/usr/include/c++/7/bits/stl_construct.h ****  * purpose.  It is provided "as is" without express or implied warranty.
  49:/usr/include/c++/7/bits/stl_construct.h ****  */
  50:/usr/include/c++/7/bits/stl_construct.h **** 
  51:/usr/include/c++/7/bits/stl_construct.h **** /** @file bits/stl_construct.h
  52:/usr/include/c++/7/bits/stl_construct.h ****  *  This is an internal header file, included by other library headers.
  53:/usr/include/c++/7/bits/stl_construct.h ****  *  Do not attempt to use it directly. @headername{memory}
  54:/usr/include/c++/7/bits/stl_construct.h ****  */
  55:/usr/include/c++/7/bits/stl_construct.h **** 
  56:/usr/include/c++/7/bits/stl_construct.h **** #ifndef _STL_CONSTRUCT_H
  57:/usr/include/c++/7/bits/stl_construct.h **** #define _STL_CONSTRUCT_H 1
  58:/usr/include/c++/7/bits/stl_construct.h **** 
  59:/usr/include/c++/7/bits/stl_construct.h **** #include <new>
  60:/usr/include/c++/7/bits/stl_construct.h **** #include <bits/move.h>
  61:/usr/include/c++/7/bits/stl_construct.h **** #include <ext/alloc_traits.h>
  62:/usr/include/c++/7/bits/stl_construct.h **** 
  63:/usr/include/c++/7/bits/stl_construct.h **** namespace std _GLIBCXX_VISIBILITY(default)
  64:/usr/include/c++/7/bits/stl_construct.h **** {
  65:/usr/include/c++/7/bits/stl_construct.h **** _GLIBCXX_BEGIN_NAMESPACE_VERSION
  66:/usr/include/c++/7/bits/stl_construct.h **** 
  67:/usr/include/c++/7/bits/stl_construct.h ****   /**
  68:/usr/include/c++/7/bits/stl_construct.h ****    * Constructs an object in existing memory by invoking an allocated
  69:/usr/include/c++/7/bits/stl_construct.h ****    * object's constructor with an initializer.
  70:/usr/include/c++/7/bits/stl_construct.h ****    */
  71:/usr/include/c++/7/bits/stl_construct.h **** #if __cplusplus >= 201103L
  72:/usr/include/c++/7/bits/stl_construct.h ****   template<typename _T1, typename... _Args>
  73:/usr/include/c++/7/bits/stl_construct.h ****     inline void
  74:/usr/include/c++/7/bits/stl_construct.h ****     _Construct(_T1* __p, _Args&&... __args)
  75:/usr/include/c++/7/bits/stl_construct.h ****     { ::new(static_cast<void*>(__p)) _T1(std::forward<_Args>(__args)...); }
  76:/usr/include/c++/7/bits/stl_construct.h **** #else
  77:/usr/include/c++/7/bits/stl_construct.h ****   template<typename _T1, typename _T2>
  78:/usr/include/c++/7/bits/stl_construct.h ****     inline void
  79:/usr/include/c++/7/bits/stl_construct.h ****     _Construct(_T1* __p, const _T2& __value)
  80:/usr/include/c++/7/bits/stl_construct.h ****     {
  81:/usr/include/c++/7/bits/stl_construct.h ****       // _GLIBCXX_RESOLVE_LIB_DEFECTS
  82:/usr/include/c++/7/bits/stl_construct.h ****       // 402. wrong new expression in [some_]allocator::construct
  83:/usr/include/c++/7/bits/stl_construct.h ****       ::new(static_cast<void*>(__p)) _T1(__value);
  84:/usr/include/c++/7/bits/stl_construct.h ****     }
  85:/usr/include/c++/7/bits/stl_construct.h **** #endif
  86:/usr/include/c++/7/bits/stl_construct.h **** 
  87:/usr/include/c++/7/bits/stl_construct.h ****   template<typename _T1>
  88:/usr/include/c++/7/bits/stl_construct.h ****     inline void
  89:/usr/include/c++/7/bits/stl_construct.h ****     _Construct_novalue(_T1* __p)
  90:/usr/include/c++/7/bits/stl_construct.h ****     { ::new(static_cast<void*>(__p)) _T1; }
  91:/usr/include/c++/7/bits/stl_construct.h **** 
  92:/usr/include/c++/7/bits/stl_construct.h ****   /**
  93:/usr/include/c++/7/bits/stl_construct.h ****    * Destroy the object pointed to by a pointer type.
  94:/usr/include/c++/7/bits/stl_construct.h ****    */
  95:/usr/include/c++/7/bits/stl_construct.h ****   template<typename _Tp>
  96:/usr/include/c++/7/bits/stl_construct.h ****     inline void
  97:/usr/include/c++/7/bits/stl_construct.h ****     _Destroy(_Tp* __pointer)
  98:/usr/include/c++/7/bits/stl_construct.h ****     { __pointer->~_Tp(); }
  99:/usr/include/c++/7/bits/stl_construct.h **** 
 100:/usr/include/c++/7/bits/stl_construct.h ****   template<bool>
 101:/usr/include/c++/7/bits/stl_construct.h ****     struct _Destroy_aux
 102:/usr/include/c++/7/bits/stl_construct.h ****     {
 103:/usr/include/c++/7/bits/stl_construct.h ****       template<typename _ForwardIterator>
 104:/usr/include/c++/7/bits/stl_construct.h ****         static void
 105:/usr/include/c++/7/bits/stl_construct.h ****         __destroy(_ForwardIterator __first, _ForwardIterator __last)
 106:/usr/include/c++/7/bits/stl_construct.h **** 	{
 107:/usr/include/c++/7/bits/stl_construct.h **** 	  for (; __first != __last; ++__first)
 108:/usr/include/c++/7/bits/stl_construct.h **** 	    std::_Destroy(std::__addressof(*__first));
 109:/usr/include/c++/7/bits/stl_construct.h **** 	}
 110:/usr/include/c++/7/bits/stl_construct.h ****     };
 111:/usr/include/c++/7/bits/stl_construct.h **** 
 112:/usr/include/c++/7/bits/stl_construct.h ****   template<>
 113:/usr/include/c++/7/bits/stl_construct.h ****     struct _Destroy_aux<true>
 114:/usr/include/c++/7/bits/stl_construct.h ****     {
 115:/usr/include/c++/7/bits/stl_construct.h ****       template<typename _ForwardIterator>
 116:/usr/include/c++/7/bits/stl_construct.h ****         static void
 117:/usr/include/c++/7/bits/stl_construct.h ****         __destroy(_ForwardIterator, _ForwardIterator) { }
 118:/usr/include/c++/7/bits/stl_construct.h ****     };
 119:/usr/include/c++/7/bits/stl_construct.h **** 
 120:/usr/include/c++/7/bits/stl_construct.h ****   /**
 121:/usr/include/c++/7/bits/stl_construct.h ****    * Destroy a range of objects.  If the value_type of the object has
 122:/usr/include/c++/7/bits/stl_construct.h ****    * a trivial destructor, the compiler should optimize all of this
 123:/usr/include/c++/7/bits/stl_construct.h ****    * away, otherwise the objects' destructors must be invoked.
 124:/usr/include/c++/7/bits/stl_construct.h ****    */
 125:/usr/include/c++/7/bits/stl_construct.h ****   template<typename _ForwardIterator>
 126:/usr/include/c++/7/bits/stl_construct.h ****     inline void
 127:/usr/include/c++/7/bits/stl_construct.h ****     _Destroy(_ForwardIterator __first, _ForwardIterator __last)
 128:/usr/include/c++/7/bits/stl_construct.h ****     {
 129:/usr/include/c++/7/bits/stl_construct.h ****       typedef typename iterator_traits<_ForwardIterator>::value_type
 130:/usr/include/c++/7/bits/stl_construct.h ****                        _Value_type;
 131:/usr/include/c++/7/bits/stl_construct.h **** #if __cplusplus >= 201103L
 132:/usr/include/c++/7/bits/stl_construct.h ****       // A deleted destructor is trivial, this ensures we reject such types:
 133:/usr/include/c++/7/bits/stl_construct.h ****       static_assert(is_destructible<_Value_type>::value,
 134:/usr/include/c++/7/bits/stl_construct.h **** 		    "value type is destructible");
 135:/usr/include/c++/7/bits/stl_construct.h **** #endif
 136:/usr/include/c++/7/bits/stl_construct.h ****       std::_Destroy_aux<__has_trivial_destructor(_Value_type)>::
 137:/usr/include/c++/7/bits/stl_construct.h **** 	__destroy(__first, __last);
 138:/usr/include/c++/7/bits/stl_construct.h ****     }
 139:/usr/include/c++/7/bits/stl_construct.h **** 
 140:/usr/include/c++/7/bits/stl_construct.h ****   template<bool>
 141:/usr/include/c++/7/bits/stl_construct.h ****     struct _Destroy_n_aux
 142:/usr/include/c++/7/bits/stl_construct.h ****     {
 143:/usr/include/c++/7/bits/stl_construct.h ****       template<typename _ForwardIterator, typename _Size>
 144:/usr/include/c++/7/bits/stl_construct.h ****         static _ForwardIterator
 145:/usr/include/c++/7/bits/stl_construct.h ****         __destroy_n(_ForwardIterator __first, _Size __count)
 146:/usr/include/c++/7/bits/stl_construct.h **** 	{
 147:/usr/include/c++/7/bits/stl_construct.h **** 	  for (; __count > 0; (void)++__first, --__count)
 148:/usr/include/c++/7/bits/stl_construct.h **** 	    std::_Destroy(std::__addressof(*__first));
 149:/usr/include/c++/7/bits/stl_construct.h **** 	  return __first;
 150:/usr/include/c++/7/bits/stl_construct.h **** 	}
 151:/usr/include/c++/7/bits/stl_construct.h ****     };
 152:/usr/include/c++/7/bits/stl_construct.h **** 
 153:/usr/include/c++/7/bits/stl_construct.h ****   template<>
 154:/usr/include/c++/7/bits/stl_construct.h ****     struct _Destroy_n_aux<true>
 155:/usr/include/c++/7/bits/stl_construct.h ****     {
 156:/usr/include/c++/7/bits/stl_construct.h ****       template<typename _ForwardIterator, typename _Size>
 157:/usr/include/c++/7/bits/stl_construct.h ****         static _ForwardIterator
 158:/usr/include/c++/7/bits/stl_construct.h ****         __destroy_n(_ForwardIterator __first, _Size __count)
 159:/usr/include/c++/7/bits/stl_construct.h **** 	{
 160:/usr/include/c++/7/bits/stl_construct.h **** 	  std::advance(__first, __count);
 161:/usr/include/c++/7/bits/stl_construct.h **** 	  return __first;
 162:/usr/include/c++/7/bits/stl_construct.h **** 	}
 163:/usr/include/c++/7/bits/stl_construct.h ****     };
 164:/usr/include/c++/7/bits/stl_construct.h **** 
 165:/usr/include/c++/7/bits/stl_construct.h ****   /**
 166:/usr/include/c++/7/bits/stl_construct.h ****    * Destroy a range of objects.  If the value_type of the object has
 167:/usr/include/c++/7/bits/stl_construct.h ****    * a trivial destructor, the compiler should optimize all of this
 168:/usr/include/c++/7/bits/stl_construct.h ****    * away, otherwise the objects' destructors must be invoked.
 169:/usr/include/c++/7/bits/stl_construct.h ****    */
 170:/usr/include/c++/7/bits/stl_construct.h ****   template<typename _ForwardIterator, typename _Size>
 171:/usr/include/c++/7/bits/stl_construct.h ****     inline _ForwardIterator
 172:/usr/include/c++/7/bits/stl_construct.h ****     _Destroy_n(_ForwardIterator __first, _Size __count)
 173:/usr/include/c++/7/bits/stl_construct.h ****     {
 174:/usr/include/c++/7/bits/stl_construct.h ****       typedef typename iterator_traits<_ForwardIterator>::value_type
 175:/usr/include/c++/7/bits/stl_construct.h ****                        _Value_type;
 176:/usr/include/c++/7/bits/stl_construct.h **** #if __cplusplus >= 201103L
 177:/usr/include/c++/7/bits/stl_construct.h ****       // A deleted destructor is trivial, this ensures we reject such types:
 178:/usr/include/c++/7/bits/stl_construct.h ****       static_assert(is_destructible<_Value_type>::value,
 179:/usr/include/c++/7/bits/stl_construct.h **** 		    "value type is destructible");
 180:/usr/include/c++/7/bits/stl_construct.h **** #endif
 181:/usr/include/c++/7/bits/stl_construct.h ****       return std::_Destroy_n_aux<__has_trivial_destructor(_Value_type)>::
 182:/usr/include/c++/7/bits/stl_construct.h **** 	__destroy_n(__first, __count);
 183:/usr/include/c++/7/bits/stl_construct.h ****     }
 184:/usr/include/c++/7/bits/stl_construct.h **** 
 185:/usr/include/c++/7/bits/stl_construct.h ****   /**
 186:/usr/include/c++/7/bits/stl_construct.h ****    * Destroy a range of objects using the supplied allocator.  For
 187:/usr/include/c++/7/bits/stl_construct.h ****    * nondefault allocators we do not optimize away invocation of 
 188:/usr/include/c++/7/bits/stl_construct.h ****    * destroy() even if _Tp has a trivial destructor.
 189:/usr/include/c++/7/bits/stl_construct.h ****    */
 190:/usr/include/c++/7/bits/stl_construct.h **** 
 191:/usr/include/c++/7/bits/stl_construct.h ****   template<typename _ForwardIterator, typename _Allocator>
 192:/usr/include/c++/7/bits/stl_construct.h ****     void
 193:/usr/include/c++/7/bits/stl_construct.h ****     _Destroy(_ForwardIterator __first, _ForwardIterator __last,
 194:/usr/include/c++/7/bits/stl_construct.h **** 	     _Allocator& __alloc)
 195:/usr/include/c++/7/bits/stl_construct.h ****     {
 196:/usr/include/c++/7/bits/stl_construct.h ****       typedef __gnu_cxx::__alloc_traits<_Allocator> __traits;
 197:/usr/include/c++/7/bits/stl_construct.h ****       for (; __first != __last; ++__first)
 198:/usr/include/c++/7/bits/stl_construct.h **** 	__traits::destroy(__alloc, std::__addressof(*__first));
 199:/usr/include/c++/7/bits/stl_construct.h ****     }
 200:/usr/include/c++/7/bits/stl_construct.h **** 
 201:/usr/include/c++/7/bits/stl_construct.h ****   template<typename _ForwardIterator, typename _Tp>
 202:/usr/include/c++/7/bits/stl_construct.h ****     inline void
 203:/usr/include/c++/7/bits/stl_construct.h ****     _Destroy(_ForwardIterator __first, _ForwardIterator __last,
 1760              		.loc 3 203 0
 1761              		.cfi_startproc
 1762 0000 55       		pushq	%rbp
 1763              		.cfi_def_cfa_offset 16
 1764              		.cfi_offset 6, -16
 1765 0001 4889E5   		movq	%rsp, %rbp
 1766              		.cfi_def_cfa_register 6
 1767 0004 4883EC20 		subq	$32, %rsp
 1768 0008 48897DF8 		movq	%rdi, -8(%rbp)
 1769 000c 488975F0 		movq	%rsi, -16(%rbp)
 1770 0010 488955E8 		movq	%rdx, -24(%rbp)
 204:/usr/include/c++/7/bits/stl_construct.h **** 	     allocator<_Tp>&)
 205:/usr/include/c++/7/bits/stl_construct.h ****     {
 206:/usr/include/c++/7/bits/stl_construct.h ****       _Destroy(__first, __last);
 1771              		.loc 3 206 0
 1772 0014 488B55F0 		movq	-16(%rbp), %rdx
 1773 0018 488B45F8 		movq	-8(%rbp), %rax
 1774 001c 4889D6   		movq	%rdx, %rsi
 1775 001f 4889C7   		movq	%rax, %rdi
 1776 0022 E8000000 		call	_ZSt8_DestroyIPdEvT_S1_
 1776      00
 207:/usr/include/c++/7/bits/stl_construct.h ****     }
 1777              		.loc 3 207 0
 1778 0027 90       		nop
 1779 0028 C9       		leave
 1780              		.cfi_def_cfa 7, 8
 1781 0029 C3       		ret
 1782              		.cfi_endproc
 1783              	.LFE2245:
 1785              		.section	.rodata
 1786              	.LC28:
 1787 01a6 76656374 		.string	"vector::_M_default_append"
 1787      6F723A3A 
 1787      5F4D5F64 
 1787      65666175 
 1787      6C745F61 
 1788              		.section	.text._ZNSt6vectorIdSaIdEE17_M_default_appendEm,"axG",@progbits,_ZNSt6vectorIdSaIdEE17_M_
 1789              		.align 2
 1790              		.weak	_ZNSt6vectorIdSaIdEE17_M_default_appendEm
 1792              	_ZNSt6vectorIdSaIdEE17_M_default_appendEm:
 1793              	.LFB2248:
 1794              		.file 4 "/usr/include/c++/7/bits/vector.tcc"
   1:/usr/include/c++/7/bits/vector.tcc **** // Vector implementation (out of line) -*- C++ -*-
   2:/usr/include/c++/7/bits/vector.tcc **** 
   3:/usr/include/c++/7/bits/vector.tcc **** // Copyright (C) 2001-2017 Free Software Foundation, Inc.
   4:/usr/include/c++/7/bits/vector.tcc **** //
   5:/usr/include/c++/7/bits/vector.tcc **** // This file is part of the GNU ISO C++ Library.  This library is free
   6:/usr/include/c++/7/bits/vector.tcc **** // software; you can redistribute it and/or modify it under the
   7:/usr/include/c++/7/bits/vector.tcc **** // terms of the GNU General Public License as published by the
   8:/usr/include/c++/7/bits/vector.tcc **** // Free Software Foundation; either version 3, or (at your option)
   9:/usr/include/c++/7/bits/vector.tcc **** // any later version.
  10:/usr/include/c++/7/bits/vector.tcc **** 
  11:/usr/include/c++/7/bits/vector.tcc **** // This library is distributed in the hope that it will be useful,
  12:/usr/include/c++/7/bits/vector.tcc **** // but WITHOUT ANY WARRANTY; without even the implied warranty of
  13:/usr/include/c++/7/bits/vector.tcc **** // MERCHANTABILITY or FITNESS FOR A PARTICULAR PURPOSE.  See the
  14:/usr/include/c++/7/bits/vector.tcc **** // GNU General Public License for more details.
  15:/usr/include/c++/7/bits/vector.tcc **** 
  16:/usr/include/c++/7/bits/vector.tcc **** // Under Section 7 of GPL version 3, you are granted additional
  17:/usr/include/c++/7/bits/vector.tcc **** // permissions described in the GCC Runtime Library Exception, version
  18:/usr/include/c++/7/bits/vector.tcc **** // 3.1, as published by the Free Software Foundation.
  19:/usr/include/c++/7/bits/vector.tcc **** 
  20:/usr/include/c++/7/bits/vector.tcc **** // You should have received a copy of the GNU General Public License and
  21:/usr/include/c++/7/bits/vector.tcc **** // a copy of the GCC Runtime Library Exception along with this program;
  22:/usr/include/c++/7/bits/vector.tcc **** // see the files COPYING3 and COPYING.RUNTIME respectively.  If not, see
  23:/usr/include/c++/7/bits/vector.tcc **** // <http://www.gnu.org/licenses/>.
  24:/usr/include/c++/7/bits/vector.tcc **** 
  25:/usr/include/c++/7/bits/vector.tcc **** /*
  26:/usr/include/c++/7/bits/vector.tcc ****  *
  27:/usr/include/c++/7/bits/vector.tcc ****  * Copyright (c) 1994
  28:/usr/include/c++/7/bits/vector.tcc ****  * Hewlett-Packard Company
  29:/usr/include/c++/7/bits/vector.tcc ****  *
  30:/usr/include/c++/7/bits/vector.tcc ****  * Permission to use, copy, modify, distribute and sell this software
  31:/usr/include/c++/7/bits/vector.tcc ****  * and its documentation for any purpose is hereby granted without fee,
  32:/usr/include/c++/7/bits/vector.tcc ****  * provided that the above copyright notice appear in all copies and
  33:/usr/include/c++/7/bits/vector.tcc ****  * that both that copyright notice and this permission notice appear
  34:/usr/include/c++/7/bits/vector.tcc ****  * in supporting documentation.  Hewlett-Packard Company makes no
  35:/usr/include/c++/7/bits/vector.tcc ****  * representations about the suitability of this software for any
  36:/usr/include/c++/7/bits/vector.tcc ****  * purpose.  It is provided "as is" without express or implied warranty.
  37:/usr/include/c++/7/bits/vector.tcc ****  *
  38:/usr/include/c++/7/bits/vector.tcc ****  *
  39:/usr/include/c++/7/bits/vector.tcc ****  * Copyright (c) 1996
  40:/usr/include/c++/7/bits/vector.tcc ****  * Silicon Graphics Computer Systems, Inc.
  41:/usr/include/c++/7/bits/vector.tcc ****  *
  42:/usr/include/c++/7/bits/vector.tcc ****  * Permission to use, copy, modify, distribute and sell this software
  43:/usr/include/c++/7/bits/vector.tcc ****  * and its documentation for any purpose is hereby granted without fee,
  44:/usr/include/c++/7/bits/vector.tcc ****  * provided that the above copyright notice appear in all copies and
  45:/usr/include/c++/7/bits/vector.tcc ****  * that both that copyright notice and this permission notice appear
  46:/usr/include/c++/7/bits/vector.tcc ****  * in supporting documentation.  Silicon Graphics makes no
  47:/usr/include/c++/7/bits/vector.tcc ****  * representations about the suitability of this  software for any
  48:/usr/include/c++/7/bits/vector.tcc ****  * purpose.  It is provided "as is" without express or implied warranty.
  49:/usr/include/c++/7/bits/vector.tcc ****  */
  50:/usr/include/c++/7/bits/vector.tcc **** 
  51:/usr/include/c++/7/bits/vector.tcc **** /** @file bits/vector.tcc
  52:/usr/include/c++/7/bits/vector.tcc ****  *  This is an internal header file, included by other library headers.
  53:/usr/include/c++/7/bits/vector.tcc ****  *  Do not attempt to use it directly. @headername{vector}
  54:/usr/include/c++/7/bits/vector.tcc ****  */
  55:/usr/include/c++/7/bits/vector.tcc **** 
  56:/usr/include/c++/7/bits/vector.tcc **** #ifndef _VECTOR_TCC
  57:/usr/include/c++/7/bits/vector.tcc **** #define _VECTOR_TCC 1
  58:/usr/include/c++/7/bits/vector.tcc **** 
  59:/usr/include/c++/7/bits/vector.tcc **** namespace std _GLIBCXX_VISIBILITY(default)
  60:/usr/include/c++/7/bits/vector.tcc **** {
  61:/usr/include/c++/7/bits/vector.tcc **** _GLIBCXX_BEGIN_NAMESPACE_CONTAINER
  62:/usr/include/c++/7/bits/vector.tcc **** 
  63:/usr/include/c++/7/bits/vector.tcc ****   template<typename _Tp, typename _Alloc>
  64:/usr/include/c++/7/bits/vector.tcc ****     void
  65:/usr/include/c++/7/bits/vector.tcc ****     vector<_Tp, _Alloc>::
  66:/usr/include/c++/7/bits/vector.tcc ****     reserve(size_type __n)
  67:/usr/include/c++/7/bits/vector.tcc ****     {
  68:/usr/include/c++/7/bits/vector.tcc ****       if (__n > this->max_size())
  69:/usr/include/c++/7/bits/vector.tcc **** 	__throw_length_error(__N("vector::reserve"));
  70:/usr/include/c++/7/bits/vector.tcc ****       if (this->capacity() < __n)
  71:/usr/include/c++/7/bits/vector.tcc **** 	{
  72:/usr/include/c++/7/bits/vector.tcc **** 	  const size_type __old_size = size();
  73:/usr/include/c++/7/bits/vector.tcc **** 	  pointer __tmp = _M_allocate_and_copy(__n,
  74:/usr/include/c++/7/bits/vector.tcc **** 	    _GLIBCXX_MAKE_MOVE_IF_NOEXCEPT_ITERATOR(this->_M_impl._M_start),
  75:/usr/include/c++/7/bits/vector.tcc **** 	    _GLIBCXX_MAKE_MOVE_IF_NOEXCEPT_ITERATOR(this->_M_impl._M_finish));
  76:/usr/include/c++/7/bits/vector.tcc **** 	  std::_Destroy(this->_M_impl._M_start, this->_M_impl._M_finish,
  77:/usr/include/c++/7/bits/vector.tcc **** 			_M_get_Tp_allocator());
  78:/usr/include/c++/7/bits/vector.tcc **** 	  _M_deallocate(this->_M_impl._M_start,
  79:/usr/include/c++/7/bits/vector.tcc **** 			this->_M_impl._M_end_of_storage
  80:/usr/include/c++/7/bits/vector.tcc **** 			- this->_M_impl._M_start);
  81:/usr/include/c++/7/bits/vector.tcc **** 	  this->_M_impl._M_start = __tmp;
  82:/usr/include/c++/7/bits/vector.tcc **** 	  this->_M_impl._M_finish = __tmp + __old_size;
  83:/usr/include/c++/7/bits/vector.tcc **** 	  this->_M_impl._M_end_of_storage = this->_M_impl._M_start + __n;
  84:/usr/include/c++/7/bits/vector.tcc **** 	}
  85:/usr/include/c++/7/bits/vector.tcc ****     }
  86:/usr/include/c++/7/bits/vector.tcc **** 
  87:/usr/include/c++/7/bits/vector.tcc **** #if __cplusplus >= 201103L
  88:/usr/include/c++/7/bits/vector.tcc ****   template<typename _Tp, typename _Alloc>
  89:/usr/include/c++/7/bits/vector.tcc ****     template<typename... _Args>
  90:/usr/include/c++/7/bits/vector.tcc **** #if __cplusplus > 201402L
  91:/usr/include/c++/7/bits/vector.tcc ****       typename vector<_Tp, _Alloc>::reference
  92:/usr/include/c++/7/bits/vector.tcc **** #else
  93:/usr/include/c++/7/bits/vector.tcc ****       void
  94:/usr/include/c++/7/bits/vector.tcc **** #endif
  95:/usr/include/c++/7/bits/vector.tcc ****       vector<_Tp, _Alloc>::
  96:/usr/include/c++/7/bits/vector.tcc ****       emplace_back(_Args&&... __args)
  97:/usr/include/c++/7/bits/vector.tcc ****       {
  98:/usr/include/c++/7/bits/vector.tcc **** 	if (this->_M_impl._M_finish != this->_M_impl._M_end_of_storage)
  99:/usr/include/c++/7/bits/vector.tcc **** 	  {
 100:/usr/include/c++/7/bits/vector.tcc **** 	    _Alloc_traits::construct(this->_M_impl, this->_M_impl._M_finish,
 101:/usr/include/c++/7/bits/vector.tcc **** 				     std::forward<_Args>(__args)...);
 102:/usr/include/c++/7/bits/vector.tcc **** 	    ++this->_M_impl._M_finish;
 103:/usr/include/c++/7/bits/vector.tcc **** 	  }
 104:/usr/include/c++/7/bits/vector.tcc **** 	else
 105:/usr/include/c++/7/bits/vector.tcc **** 	  _M_realloc_insert(end(), std::forward<_Args>(__args)...);
 106:/usr/include/c++/7/bits/vector.tcc **** #if __cplusplus > 201402L
 107:/usr/include/c++/7/bits/vector.tcc **** 	return back();
 108:/usr/include/c++/7/bits/vector.tcc **** #endif
 109:/usr/include/c++/7/bits/vector.tcc ****       }
 110:/usr/include/c++/7/bits/vector.tcc **** #endif
 111:/usr/include/c++/7/bits/vector.tcc **** 
 112:/usr/include/c++/7/bits/vector.tcc ****   template<typename _Tp, typename _Alloc>
 113:/usr/include/c++/7/bits/vector.tcc ****     typename vector<_Tp, _Alloc>::iterator
 114:/usr/include/c++/7/bits/vector.tcc ****     vector<_Tp, _Alloc>::
 115:/usr/include/c++/7/bits/vector.tcc **** #if __cplusplus >= 201103L
 116:/usr/include/c++/7/bits/vector.tcc ****     insert(const_iterator __position, const value_type& __x)
 117:/usr/include/c++/7/bits/vector.tcc **** #else
 118:/usr/include/c++/7/bits/vector.tcc ****     insert(iterator __position, const value_type& __x)
 119:/usr/include/c++/7/bits/vector.tcc **** #endif
 120:/usr/include/c++/7/bits/vector.tcc ****     {
 121:/usr/include/c++/7/bits/vector.tcc ****       const size_type __n = __position - begin();
 122:/usr/include/c++/7/bits/vector.tcc ****       if (this->_M_impl._M_finish != this->_M_impl._M_end_of_storage)
 123:/usr/include/c++/7/bits/vector.tcc **** 	if (__position == end())
 124:/usr/include/c++/7/bits/vector.tcc **** 	  {
 125:/usr/include/c++/7/bits/vector.tcc **** 	    _Alloc_traits::construct(this->_M_impl, this->_M_impl._M_finish,
 126:/usr/include/c++/7/bits/vector.tcc **** 				     __x);
 127:/usr/include/c++/7/bits/vector.tcc **** 	    ++this->_M_impl._M_finish;
 128:/usr/include/c++/7/bits/vector.tcc **** 	  }
 129:/usr/include/c++/7/bits/vector.tcc **** 	else
 130:/usr/include/c++/7/bits/vector.tcc **** 	  {
 131:/usr/include/c++/7/bits/vector.tcc **** #if __cplusplus >= 201103L
 132:/usr/include/c++/7/bits/vector.tcc **** 	    const auto __pos = begin() + (__position - cbegin());
 133:/usr/include/c++/7/bits/vector.tcc **** 	    // __x could be an existing element of this vector, so make a
 134:/usr/include/c++/7/bits/vector.tcc **** 	    // copy of it before _M_insert_aux moves elements around.
 135:/usr/include/c++/7/bits/vector.tcc **** 	    _Temporary_value __x_copy(this, __x);
 136:/usr/include/c++/7/bits/vector.tcc **** 	    _M_insert_aux(__pos, std::move(__x_copy._M_val()));
 137:/usr/include/c++/7/bits/vector.tcc **** #else
 138:/usr/include/c++/7/bits/vector.tcc **** 	    _M_insert_aux(__position, __x);
 139:/usr/include/c++/7/bits/vector.tcc **** #endif
 140:/usr/include/c++/7/bits/vector.tcc **** 	  }
 141:/usr/include/c++/7/bits/vector.tcc ****       else
 142:/usr/include/c++/7/bits/vector.tcc **** #if __cplusplus >= 201103L
 143:/usr/include/c++/7/bits/vector.tcc **** 	_M_realloc_insert(begin() + (__position - cbegin()), __x);
 144:/usr/include/c++/7/bits/vector.tcc **** #else
 145:/usr/include/c++/7/bits/vector.tcc **** 	_M_realloc_insert(__position, __x);
 146:/usr/include/c++/7/bits/vector.tcc **** #endif
 147:/usr/include/c++/7/bits/vector.tcc **** 
 148:/usr/include/c++/7/bits/vector.tcc ****       return iterator(this->_M_impl._M_start + __n);
 149:/usr/include/c++/7/bits/vector.tcc ****     }
 150:/usr/include/c++/7/bits/vector.tcc **** 
 151:/usr/include/c++/7/bits/vector.tcc ****   template<typename _Tp, typename _Alloc>
 152:/usr/include/c++/7/bits/vector.tcc ****     typename vector<_Tp, _Alloc>::iterator
 153:/usr/include/c++/7/bits/vector.tcc ****     vector<_Tp, _Alloc>::
 154:/usr/include/c++/7/bits/vector.tcc ****     _M_erase(iterator __position)
 155:/usr/include/c++/7/bits/vector.tcc ****     {
 156:/usr/include/c++/7/bits/vector.tcc ****       if (__position + 1 != end())
 157:/usr/include/c++/7/bits/vector.tcc **** 	_GLIBCXX_MOVE3(__position + 1, end(), __position);
 158:/usr/include/c++/7/bits/vector.tcc ****       --this->_M_impl._M_finish;
 159:/usr/include/c++/7/bits/vector.tcc ****       _Alloc_traits::destroy(this->_M_impl, this->_M_impl._M_finish);
 160:/usr/include/c++/7/bits/vector.tcc ****       return __position;
 161:/usr/include/c++/7/bits/vector.tcc ****     }
 162:/usr/include/c++/7/bits/vector.tcc **** 
 163:/usr/include/c++/7/bits/vector.tcc ****   template<typename _Tp, typename _Alloc>
 164:/usr/include/c++/7/bits/vector.tcc ****     typename vector<_Tp, _Alloc>::iterator
 165:/usr/include/c++/7/bits/vector.tcc ****     vector<_Tp, _Alloc>::
 166:/usr/include/c++/7/bits/vector.tcc ****     _M_erase(iterator __first, iterator __last)
 167:/usr/include/c++/7/bits/vector.tcc ****     {
 168:/usr/include/c++/7/bits/vector.tcc ****       if (__first != __last)
 169:/usr/include/c++/7/bits/vector.tcc **** 	{
 170:/usr/include/c++/7/bits/vector.tcc **** 	  if (__last != end())
 171:/usr/include/c++/7/bits/vector.tcc **** 	    _GLIBCXX_MOVE3(__last, end(), __first);
 172:/usr/include/c++/7/bits/vector.tcc **** 	  _M_erase_at_end(__first.base() + (end() - __last));
 173:/usr/include/c++/7/bits/vector.tcc **** 	}
 174:/usr/include/c++/7/bits/vector.tcc ****       return __first;
 175:/usr/include/c++/7/bits/vector.tcc ****     }
 176:/usr/include/c++/7/bits/vector.tcc **** 
 177:/usr/include/c++/7/bits/vector.tcc ****   template<typename _Tp, typename _Alloc>
 178:/usr/include/c++/7/bits/vector.tcc ****     vector<_Tp, _Alloc>&
 179:/usr/include/c++/7/bits/vector.tcc ****     vector<_Tp, _Alloc>::
 180:/usr/include/c++/7/bits/vector.tcc ****     operator=(const vector<_Tp, _Alloc>& __x)
 181:/usr/include/c++/7/bits/vector.tcc ****     {
 182:/usr/include/c++/7/bits/vector.tcc ****       if (&__x != this)
 183:/usr/include/c++/7/bits/vector.tcc **** 	{
 184:/usr/include/c++/7/bits/vector.tcc **** #if __cplusplus >= 201103L
 185:/usr/include/c++/7/bits/vector.tcc **** 	  if (_Alloc_traits::_S_propagate_on_copy_assign())
 186:/usr/include/c++/7/bits/vector.tcc **** 	    {
 187:/usr/include/c++/7/bits/vector.tcc **** 	      if (!_Alloc_traits::_S_always_equal()
 188:/usr/include/c++/7/bits/vector.tcc **** 	          && _M_get_Tp_allocator() != __x._M_get_Tp_allocator())
 189:/usr/include/c++/7/bits/vector.tcc **** 	        {
 190:/usr/include/c++/7/bits/vector.tcc **** 		  // replacement allocator cannot free existing storage
 191:/usr/include/c++/7/bits/vector.tcc **** 		  this->clear();
 192:/usr/include/c++/7/bits/vector.tcc **** 		  _M_deallocate(this->_M_impl._M_start,
 193:/usr/include/c++/7/bits/vector.tcc **** 				this->_M_impl._M_end_of_storage
 194:/usr/include/c++/7/bits/vector.tcc **** 				- this->_M_impl._M_start);
 195:/usr/include/c++/7/bits/vector.tcc **** 		  this->_M_impl._M_start = nullptr;
 196:/usr/include/c++/7/bits/vector.tcc **** 		  this->_M_impl._M_finish = nullptr;
 197:/usr/include/c++/7/bits/vector.tcc **** 		  this->_M_impl._M_end_of_storage = nullptr;
 198:/usr/include/c++/7/bits/vector.tcc **** 		}
 199:/usr/include/c++/7/bits/vector.tcc **** 	      std::__alloc_on_copy(_M_get_Tp_allocator(),
 200:/usr/include/c++/7/bits/vector.tcc **** 				   __x._M_get_Tp_allocator());
 201:/usr/include/c++/7/bits/vector.tcc **** 	    }
 202:/usr/include/c++/7/bits/vector.tcc **** #endif
 203:/usr/include/c++/7/bits/vector.tcc **** 	  const size_type __xlen = __x.size();
 204:/usr/include/c++/7/bits/vector.tcc **** 	  if (__xlen > capacity())
 205:/usr/include/c++/7/bits/vector.tcc **** 	    {
 206:/usr/include/c++/7/bits/vector.tcc **** 	      pointer __tmp = _M_allocate_and_copy(__xlen, __x.begin(),
 207:/usr/include/c++/7/bits/vector.tcc **** 						   __x.end());
 208:/usr/include/c++/7/bits/vector.tcc **** 	      std::_Destroy(this->_M_impl._M_start, this->_M_impl._M_finish,
 209:/usr/include/c++/7/bits/vector.tcc **** 			    _M_get_Tp_allocator());
 210:/usr/include/c++/7/bits/vector.tcc **** 	      _M_deallocate(this->_M_impl._M_start,
 211:/usr/include/c++/7/bits/vector.tcc **** 			    this->_M_impl._M_end_of_storage
 212:/usr/include/c++/7/bits/vector.tcc **** 			    - this->_M_impl._M_start);
 213:/usr/include/c++/7/bits/vector.tcc **** 	      this->_M_impl._M_start = __tmp;
 214:/usr/include/c++/7/bits/vector.tcc **** 	      this->_M_impl._M_end_of_storage = this->_M_impl._M_start + __xlen;
 215:/usr/include/c++/7/bits/vector.tcc **** 	    }
 216:/usr/include/c++/7/bits/vector.tcc **** 	  else if (size() >= __xlen)
 217:/usr/include/c++/7/bits/vector.tcc **** 	    {
 218:/usr/include/c++/7/bits/vector.tcc **** 	      std::_Destroy(std::copy(__x.begin(), __x.end(), begin()),
 219:/usr/include/c++/7/bits/vector.tcc **** 			    end(), _M_get_Tp_allocator());
 220:/usr/include/c++/7/bits/vector.tcc **** 	    }
 221:/usr/include/c++/7/bits/vector.tcc **** 	  else
 222:/usr/include/c++/7/bits/vector.tcc **** 	    {
 223:/usr/include/c++/7/bits/vector.tcc **** 	      std::copy(__x._M_impl._M_start, __x._M_impl._M_start + size(),
 224:/usr/include/c++/7/bits/vector.tcc **** 			this->_M_impl._M_start);
 225:/usr/include/c++/7/bits/vector.tcc **** 	      std::__uninitialized_copy_a(__x._M_impl._M_start + size(),
 226:/usr/include/c++/7/bits/vector.tcc **** 					  __x._M_impl._M_finish,
 227:/usr/include/c++/7/bits/vector.tcc **** 					  this->_M_impl._M_finish,
 228:/usr/include/c++/7/bits/vector.tcc **** 					  _M_get_Tp_allocator());
 229:/usr/include/c++/7/bits/vector.tcc **** 	    }
 230:/usr/include/c++/7/bits/vector.tcc **** 	  this->_M_impl._M_finish = this->_M_impl._M_start + __xlen;
 231:/usr/include/c++/7/bits/vector.tcc **** 	}
 232:/usr/include/c++/7/bits/vector.tcc ****       return *this;
 233:/usr/include/c++/7/bits/vector.tcc ****     }
 234:/usr/include/c++/7/bits/vector.tcc **** 
 235:/usr/include/c++/7/bits/vector.tcc ****   template<typename _Tp, typename _Alloc>
 236:/usr/include/c++/7/bits/vector.tcc ****     void
 237:/usr/include/c++/7/bits/vector.tcc ****     vector<_Tp, _Alloc>::
 238:/usr/include/c++/7/bits/vector.tcc ****     _M_fill_assign(size_t __n, const value_type& __val)
 239:/usr/include/c++/7/bits/vector.tcc ****     {
 240:/usr/include/c++/7/bits/vector.tcc ****       if (__n > capacity())
 241:/usr/include/c++/7/bits/vector.tcc **** 	{
 242:/usr/include/c++/7/bits/vector.tcc **** 	  vector __tmp(__n, __val, _M_get_Tp_allocator());
 243:/usr/include/c++/7/bits/vector.tcc **** 	  __tmp._M_impl._M_swap_data(this->_M_impl);
 244:/usr/include/c++/7/bits/vector.tcc **** 	}
 245:/usr/include/c++/7/bits/vector.tcc ****       else if (__n > size())
 246:/usr/include/c++/7/bits/vector.tcc **** 	{
 247:/usr/include/c++/7/bits/vector.tcc **** 	  std::fill(begin(), end(), __val);
 248:/usr/include/c++/7/bits/vector.tcc **** 	  this->_M_impl._M_finish =
 249:/usr/include/c++/7/bits/vector.tcc **** 	    std::__uninitialized_fill_n_a(this->_M_impl._M_finish,
 250:/usr/include/c++/7/bits/vector.tcc **** 					  __n - size(), __val,
 251:/usr/include/c++/7/bits/vector.tcc **** 					  _M_get_Tp_allocator());
 252:/usr/include/c++/7/bits/vector.tcc **** 	}
 253:/usr/include/c++/7/bits/vector.tcc ****       else
 254:/usr/include/c++/7/bits/vector.tcc ****         _M_erase_at_end(std::fill_n(this->_M_impl._M_start, __n, __val));
 255:/usr/include/c++/7/bits/vector.tcc ****     }
 256:/usr/include/c++/7/bits/vector.tcc **** 
 257:/usr/include/c++/7/bits/vector.tcc ****   template<typename _Tp, typename _Alloc>
 258:/usr/include/c++/7/bits/vector.tcc ****     template<typename _InputIterator>
 259:/usr/include/c++/7/bits/vector.tcc ****       void
 260:/usr/include/c++/7/bits/vector.tcc ****       vector<_Tp, _Alloc>::
 261:/usr/include/c++/7/bits/vector.tcc ****       _M_assign_aux(_InputIterator __first, _InputIterator __last,
 262:/usr/include/c++/7/bits/vector.tcc **** 		    std::input_iterator_tag)
 263:/usr/include/c++/7/bits/vector.tcc ****       {
 264:/usr/include/c++/7/bits/vector.tcc **** 	pointer __cur(this->_M_impl._M_start);
 265:/usr/include/c++/7/bits/vector.tcc **** 	for (; __first != __last && __cur != this->_M_impl._M_finish;
 266:/usr/include/c++/7/bits/vector.tcc **** 	     ++__cur, ++__first)
 267:/usr/include/c++/7/bits/vector.tcc **** 	  *__cur = *__first;
 268:/usr/include/c++/7/bits/vector.tcc **** 	if (__first == __last)
 269:/usr/include/c++/7/bits/vector.tcc **** 	  _M_erase_at_end(__cur);
 270:/usr/include/c++/7/bits/vector.tcc **** 	else
 271:/usr/include/c++/7/bits/vector.tcc **** 	  _M_range_insert(end(), __first, __last,
 272:/usr/include/c++/7/bits/vector.tcc **** 			  std::__iterator_category(__first));
 273:/usr/include/c++/7/bits/vector.tcc ****       }
 274:/usr/include/c++/7/bits/vector.tcc **** 
 275:/usr/include/c++/7/bits/vector.tcc ****   template<typename _Tp, typename _Alloc>
 276:/usr/include/c++/7/bits/vector.tcc ****     template<typename _ForwardIterator>
 277:/usr/include/c++/7/bits/vector.tcc ****       void
 278:/usr/include/c++/7/bits/vector.tcc ****       vector<_Tp, _Alloc>::
 279:/usr/include/c++/7/bits/vector.tcc ****       _M_assign_aux(_ForwardIterator __first, _ForwardIterator __last,
 280:/usr/include/c++/7/bits/vector.tcc **** 		    std::forward_iterator_tag)
 281:/usr/include/c++/7/bits/vector.tcc ****       {
 282:/usr/include/c++/7/bits/vector.tcc **** 	const size_type __len = std::distance(__first, __last);
 283:/usr/include/c++/7/bits/vector.tcc **** 
 284:/usr/include/c++/7/bits/vector.tcc **** 	if (__len > capacity())
 285:/usr/include/c++/7/bits/vector.tcc **** 	  {
 286:/usr/include/c++/7/bits/vector.tcc **** 	    pointer __tmp(_M_allocate_and_copy(__len, __first, __last));
 287:/usr/include/c++/7/bits/vector.tcc **** 	    std::_Destroy(this->_M_impl._M_start, this->_M_impl._M_finish,
 288:/usr/include/c++/7/bits/vector.tcc **** 			  _M_get_Tp_allocator());
 289:/usr/include/c++/7/bits/vector.tcc **** 	    _M_deallocate(this->_M_impl._M_start,
 290:/usr/include/c++/7/bits/vector.tcc **** 			  this->_M_impl._M_end_of_storage
 291:/usr/include/c++/7/bits/vector.tcc **** 			  - this->_M_impl._M_start);
 292:/usr/include/c++/7/bits/vector.tcc **** 	    this->_M_impl._M_start = __tmp;
 293:/usr/include/c++/7/bits/vector.tcc **** 	    this->_M_impl._M_finish = this->_M_impl._M_start + __len;
 294:/usr/include/c++/7/bits/vector.tcc **** 	    this->_M_impl._M_end_of_storage = this->_M_impl._M_finish;
 295:/usr/include/c++/7/bits/vector.tcc **** 	  }
 296:/usr/include/c++/7/bits/vector.tcc **** 	else if (size() >= __len)
 297:/usr/include/c++/7/bits/vector.tcc **** 	  _M_erase_at_end(std::copy(__first, __last, this->_M_impl._M_start));
 298:/usr/include/c++/7/bits/vector.tcc **** 	else
 299:/usr/include/c++/7/bits/vector.tcc **** 	  {
 300:/usr/include/c++/7/bits/vector.tcc **** 	    _ForwardIterator __mid = __first;
 301:/usr/include/c++/7/bits/vector.tcc **** 	    std::advance(__mid, size());
 302:/usr/include/c++/7/bits/vector.tcc **** 	    std::copy(__first, __mid, this->_M_impl._M_start);
 303:/usr/include/c++/7/bits/vector.tcc **** 	    this->_M_impl._M_finish =
 304:/usr/include/c++/7/bits/vector.tcc **** 	      std::__uninitialized_copy_a(__mid, __last,
 305:/usr/include/c++/7/bits/vector.tcc **** 					  this->_M_impl._M_finish,
 306:/usr/include/c++/7/bits/vector.tcc **** 					  _M_get_Tp_allocator());
 307:/usr/include/c++/7/bits/vector.tcc **** 	  }
 308:/usr/include/c++/7/bits/vector.tcc ****       }
 309:/usr/include/c++/7/bits/vector.tcc **** 
 310:/usr/include/c++/7/bits/vector.tcc **** #if __cplusplus >= 201103L
 311:/usr/include/c++/7/bits/vector.tcc ****   template<typename _Tp, typename _Alloc>
 312:/usr/include/c++/7/bits/vector.tcc ****     auto
 313:/usr/include/c++/7/bits/vector.tcc ****     vector<_Tp, _Alloc>::
 314:/usr/include/c++/7/bits/vector.tcc ****     _M_insert_rval(const_iterator __position, value_type&& __v) -> iterator
 315:/usr/include/c++/7/bits/vector.tcc ****     {
 316:/usr/include/c++/7/bits/vector.tcc ****       const auto __n = __position - cbegin();
 317:/usr/include/c++/7/bits/vector.tcc ****       if (this->_M_impl._M_finish != this->_M_impl._M_end_of_storage)
 318:/usr/include/c++/7/bits/vector.tcc **** 	if (__position == cend())
 319:/usr/include/c++/7/bits/vector.tcc **** 	  {
 320:/usr/include/c++/7/bits/vector.tcc **** 	    _Alloc_traits::construct(this->_M_impl, this->_M_impl._M_finish,
 321:/usr/include/c++/7/bits/vector.tcc **** 				     std::move(__v));
 322:/usr/include/c++/7/bits/vector.tcc **** 	    ++this->_M_impl._M_finish;
 323:/usr/include/c++/7/bits/vector.tcc **** 	  }
 324:/usr/include/c++/7/bits/vector.tcc **** 	else
 325:/usr/include/c++/7/bits/vector.tcc **** 	  _M_insert_aux(begin() + __n, std::move(__v));
 326:/usr/include/c++/7/bits/vector.tcc ****       else
 327:/usr/include/c++/7/bits/vector.tcc **** 	_M_realloc_insert(begin() + __n, std::move(__v));
 328:/usr/include/c++/7/bits/vector.tcc **** 
 329:/usr/include/c++/7/bits/vector.tcc ****       return iterator(this->_M_impl._M_start + __n);
 330:/usr/include/c++/7/bits/vector.tcc ****     }
 331:/usr/include/c++/7/bits/vector.tcc **** 
 332:/usr/include/c++/7/bits/vector.tcc ****   template<typename _Tp, typename _Alloc>
 333:/usr/include/c++/7/bits/vector.tcc ****     template<typename... _Args>
 334:/usr/include/c++/7/bits/vector.tcc ****       auto
 335:/usr/include/c++/7/bits/vector.tcc ****       vector<_Tp, _Alloc>::
 336:/usr/include/c++/7/bits/vector.tcc ****       _M_emplace_aux(const_iterator __position, _Args&&... __args)
 337:/usr/include/c++/7/bits/vector.tcc ****       -> iterator
 338:/usr/include/c++/7/bits/vector.tcc ****       {
 339:/usr/include/c++/7/bits/vector.tcc **** 	const auto __n = __position - cbegin();
 340:/usr/include/c++/7/bits/vector.tcc **** 	if (this->_M_impl._M_finish != this->_M_impl._M_end_of_storage)
 341:/usr/include/c++/7/bits/vector.tcc **** 	  if (__position == cend())
 342:/usr/include/c++/7/bits/vector.tcc **** 	    {
 343:/usr/include/c++/7/bits/vector.tcc **** 	      _Alloc_traits::construct(this->_M_impl, this->_M_impl._M_finish,
 344:/usr/include/c++/7/bits/vector.tcc **** 				       std::forward<_Args>(__args)...);
 345:/usr/include/c++/7/bits/vector.tcc **** 	      ++this->_M_impl._M_finish;
 346:/usr/include/c++/7/bits/vector.tcc **** 	    }
 347:/usr/include/c++/7/bits/vector.tcc **** 	  else
 348:/usr/include/c++/7/bits/vector.tcc **** 	    {
 349:/usr/include/c++/7/bits/vector.tcc **** 	      // We need to construct a temporary because something in __args...
 350:/usr/include/c++/7/bits/vector.tcc **** 	      // could alias one of the elements of the container and so we
 351:/usr/include/c++/7/bits/vector.tcc **** 	      // need to use it before _M_insert_aux moves elements around.
 352:/usr/include/c++/7/bits/vector.tcc **** 	      _Temporary_value __tmp(this, std::forward<_Args>(__args)...);
 353:/usr/include/c++/7/bits/vector.tcc **** 	      _M_insert_aux(begin() + __n, std::move(__tmp._M_val()));
 354:/usr/include/c++/7/bits/vector.tcc **** 	    }
 355:/usr/include/c++/7/bits/vector.tcc **** 	else
 356:/usr/include/c++/7/bits/vector.tcc **** 	  _M_realloc_insert(begin() + __n, std::forward<_Args>(__args)...);
 357:/usr/include/c++/7/bits/vector.tcc **** 
 358:/usr/include/c++/7/bits/vector.tcc **** 	return iterator(this->_M_impl._M_start + __n);
 359:/usr/include/c++/7/bits/vector.tcc ****       }
 360:/usr/include/c++/7/bits/vector.tcc **** 
 361:/usr/include/c++/7/bits/vector.tcc ****   template<typename _Tp, typename _Alloc>
 362:/usr/include/c++/7/bits/vector.tcc ****     template<typename _Arg>
 363:/usr/include/c++/7/bits/vector.tcc ****       void
 364:/usr/include/c++/7/bits/vector.tcc ****       vector<_Tp, _Alloc>::
 365:/usr/include/c++/7/bits/vector.tcc ****       _M_insert_aux(iterator __position, _Arg&& __arg)
 366:/usr/include/c++/7/bits/vector.tcc **** #else
 367:/usr/include/c++/7/bits/vector.tcc ****   template<typename _Tp, typename _Alloc>
 368:/usr/include/c++/7/bits/vector.tcc ****     void
 369:/usr/include/c++/7/bits/vector.tcc ****     vector<_Tp, _Alloc>::
 370:/usr/include/c++/7/bits/vector.tcc ****     _M_insert_aux(iterator __position, const _Tp& __x)
 371:/usr/include/c++/7/bits/vector.tcc **** #endif
 372:/usr/include/c++/7/bits/vector.tcc ****     {
 373:/usr/include/c++/7/bits/vector.tcc ****       _Alloc_traits::construct(this->_M_impl, this->_M_impl._M_finish,
 374:/usr/include/c++/7/bits/vector.tcc **** 			       _GLIBCXX_MOVE(*(this->_M_impl._M_finish
 375:/usr/include/c++/7/bits/vector.tcc **** 					       - 1)));
 376:/usr/include/c++/7/bits/vector.tcc ****       ++this->_M_impl._M_finish;
 377:/usr/include/c++/7/bits/vector.tcc **** #if __cplusplus < 201103L
 378:/usr/include/c++/7/bits/vector.tcc ****       _Tp __x_copy = __x;
 379:/usr/include/c++/7/bits/vector.tcc **** #endif
 380:/usr/include/c++/7/bits/vector.tcc ****       _GLIBCXX_MOVE_BACKWARD3(__position.base(),
 381:/usr/include/c++/7/bits/vector.tcc **** 			      this->_M_impl._M_finish - 2,
 382:/usr/include/c++/7/bits/vector.tcc **** 			      this->_M_impl._M_finish - 1);
 383:/usr/include/c++/7/bits/vector.tcc **** #if __cplusplus < 201103L
 384:/usr/include/c++/7/bits/vector.tcc ****       *__position = __x_copy;
 385:/usr/include/c++/7/bits/vector.tcc **** #else
 386:/usr/include/c++/7/bits/vector.tcc ****       *__position = std::forward<_Arg>(__arg);
 387:/usr/include/c++/7/bits/vector.tcc **** #endif
 388:/usr/include/c++/7/bits/vector.tcc ****     }
 389:/usr/include/c++/7/bits/vector.tcc **** 
 390:/usr/include/c++/7/bits/vector.tcc **** #if __cplusplus >= 201103L
 391:/usr/include/c++/7/bits/vector.tcc ****   template<typename _Tp, typename _Alloc>
 392:/usr/include/c++/7/bits/vector.tcc ****     template<typename... _Args>
 393:/usr/include/c++/7/bits/vector.tcc ****       void
 394:/usr/include/c++/7/bits/vector.tcc ****       vector<_Tp, _Alloc>::
 395:/usr/include/c++/7/bits/vector.tcc ****       _M_realloc_insert(iterator __position, _Args&&... __args)
 396:/usr/include/c++/7/bits/vector.tcc **** #else
 397:/usr/include/c++/7/bits/vector.tcc ****   template<typename _Tp, typename _Alloc>
 398:/usr/include/c++/7/bits/vector.tcc ****     void
 399:/usr/include/c++/7/bits/vector.tcc ****     vector<_Tp, _Alloc>::
 400:/usr/include/c++/7/bits/vector.tcc ****     _M_realloc_insert(iterator __position, const _Tp& __x)
 401:/usr/include/c++/7/bits/vector.tcc **** #endif
 402:/usr/include/c++/7/bits/vector.tcc ****     {
 403:/usr/include/c++/7/bits/vector.tcc ****       const size_type __len =
 404:/usr/include/c++/7/bits/vector.tcc **** 	_M_check_len(size_type(1), "vector::_M_realloc_insert");
 405:/usr/include/c++/7/bits/vector.tcc ****       const size_type __elems_before = __position - begin();
 406:/usr/include/c++/7/bits/vector.tcc ****       pointer __new_start(this->_M_allocate(__len));
 407:/usr/include/c++/7/bits/vector.tcc ****       pointer __new_finish(__new_start);
 408:/usr/include/c++/7/bits/vector.tcc ****       __try
 409:/usr/include/c++/7/bits/vector.tcc **** 	{
 410:/usr/include/c++/7/bits/vector.tcc **** 	  // The order of the three operations is dictated by the C++11
 411:/usr/include/c++/7/bits/vector.tcc **** 	  // case, where the moves could alter a new element belonging
 412:/usr/include/c++/7/bits/vector.tcc **** 	  // to the existing vector.  This is an issue only for callers
 413:/usr/include/c++/7/bits/vector.tcc **** 	  // taking the element by lvalue ref (see last bullet of C++11
 414:/usr/include/c++/7/bits/vector.tcc **** 	  // [res.on.arguments]).
 415:/usr/include/c++/7/bits/vector.tcc **** 	  _Alloc_traits::construct(this->_M_impl,
 416:/usr/include/c++/7/bits/vector.tcc **** 				   __new_start + __elems_before,
 417:/usr/include/c++/7/bits/vector.tcc **** #if __cplusplus >= 201103L
 418:/usr/include/c++/7/bits/vector.tcc **** 				   std::forward<_Args>(__args)...);
 419:/usr/include/c++/7/bits/vector.tcc **** #else
 420:/usr/include/c++/7/bits/vector.tcc **** 				   __x);
 421:/usr/include/c++/7/bits/vector.tcc **** #endif
 422:/usr/include/c++/7/bits/vector.tcc **** 	  __new_finish = pointer();
 423:/usr/include/c++/7/bits/vector.tcc **** 
 424:/usr/include/c++/7/bits/vector.tcc **** 	  __new_finish
 425:/usr/include/c++/7/bits/vector.tcc **** 	    = std::__uninitialized_move_if_noexcept_a
 426:/usr/include/c++/7/bits/vector.tcc **** 	    (this->_M_impl._M_start, __position.base(),
 427:/usr/include/c++/7/bits/vector.tcc **** 	     __new_start, _M_get_Tp_allocator());
 428:/usr/include/c++/7/bits/vector.tcc **** 
 429:/usr/include/c++/7/bits/vector.tcc **** 	  ++__new_finish;
 430:/usr/include/c++/7/bits/vector.tcc **** 
 431:/usr/include/c++/7/bits/vector.tcc **** 	  __new_finish
 432:/usr/include/c++/7/bits/vector.tcc **** 	    = std::__uninitialized_move_if_noexcept_a
 433:/usr/include/c++/7/bits/vector.tcc **** 	    (__position.base(), this->_M_impl._M_finish,
 434:/usr/include/c++/7/bits/vector.tcc **** 	     __new_finish, _M_get_Tp_allocator());
 435:/usr/include/c++/7/bits/vector.tcc **** 	}
 436:/usr/include/c++/7/bits/vector.tcc ****       __catch(...)
 437:/usr/include/c++/7/bits/vector.tcc **** 	{
 438:/usr/include/c++/7/bits/vector.tcc **** 	  if (!__new_finish)
 439:/usr/include/c++/7/bits/vector.tcc **** 	    _Alloc_traits::destroy(this->_M_impl,
 440:/usr/include/c++/7/bits/vector.tcc **** 				   __new_start + __elems_before);
 441:/usr/include/c++/7/bits/vector.tcc **** 	  else
 442:/usr/include/c++/7/bits/vector.tcc **** 	    std::_Destroy(__new_start, __new_finish, _M_get_Tp_allocator());
 443:/usr/include/c++/7/bits/vector.tcc **** 	  _M_deallocate(__new_start, __len);
 444:/usr/include/c++/7/bits/vector.tcc **** 	  __throw_exception_again;
 445:/usr/include/c++/7/bits/vector.tcc **** 	}
 446:/usr/include/c++/7/bits/vector.tcc ****       std::_Destroy(this->_M_impl._M_start, this->_M_impl._M_finish,
 447:/usr/include/c++/7/bits/vector.tcc **** 		    _M_get_Tp_allocator());
 448:/usr/include/c++/7/bits/vector.tcc ****       _M_deallocate(this->_M_impl._M_start,
 449:/usr/include/c++/7/bits/vector.tcc **** 		    this->_M_impl._M_end_of_storage
 450:/usr/include/c++/7/bits/vector.tcc **** 		    - this->_M_impl._M_start);
 451:/usr/include/c++/7/bits/vector.tcc ****       this->_M_impl._M_start = __new_start;
 452:/usr/include/c++/7/bits/vector.tcc ****       this->_M_impl._M_finish = __new_finish;
 453:/usr/include/c++/7/bits/vector.tcc ****       this->_M_impl._M_end_of_storage = __new_start + __len;
 454:/usr/include/c++/7/bits/vector.tcc ****     }
 455:/usr/include/c++/7/bits/vector.tcc **** 
 456:/usr/include/c++/7/bits/vector.tcc ****   template<typename _Tp, typename _Alloc>
 457:/usr/include/c++/7/bits/vector.tcc ****     void
 458:/usr/include/c++/7/bits/vector.tcc ****     vector<_Tp, _Alloc>::
 459:/usr/include/c++/7/bits/vector.tcc ****     _M_fill_insert(iterator __position, size_type __n, const value_type& __x)
 460:/usr/include/c++/7/bits/vector.tcc ****     {
 461:/usr/include/c++/7/bits/vector.tcc ****       if (__n != 0)
 462:/usr/include/c++/7/bits/vector.tcc **** 	{
 463:/usr/include/c++/7/bits/vector.tcc **** 	  if (size_type(this->_M_impl._M_end_of_storage
 464:/usr/include/c++/7/bits/vector.tcc **** 			- this->_M_impl._M_finish) >= __n)
 465:/usr/include/c++/7/bits/vector.tcc **** 	    {
 466:/usr/include/c++/7/bits/vector.tcc **** #if __cplusplus < 201103L
 467:/usr/include/c++/7/bits/vector.tcc **** 	      value_type __x_copy = __x;
 468:/usr/include/c++/7/bits/vector.tcc **** #else
 469:/usr/include/c++/7/bits/vector.tcc **** 	      _Temporary_value __tmp(this, __x);
 470:/usr/include/c++/7/bits/vector.tcc **** 	      value_type& __x_copy = __tmp._M_val();
 471:/usr/include/c++/7/bits/vector.tcc **** #endif
 472:/usr/include/c++/7/bits/vector.tcc **** 	      const size_type __elems_after = end() - __position;
 473:/usr/include/c++/7/bits/vector.tcc **** 	      pointer __old_finish(this->_M_impl._M_finish);
 474:/usr/include/c++/7/bits/vector.tcc **** 	      if (__elems_after > __n)
 475:/usr/include/c++/7/bits/vector.tcc **** 		{
 476:/usr/include/c++/7/bits/vector.tcc **** 		  std::__uninitialized_move_a(this->_M_impl._M_finish - __n,
 477:/usr/include/c++/7/bits/vector.tcc **** 					      this->_M_impl._M_finish,
 478:/usr/include/c++/7/bits/vector.tcc **** 					      this->_M_impl._M_finish,
 479:/usr/include/c++/7/bits/vector.tcc **** 					      _M_get_Tp_allocator());
 480:/usr/include/c++/7/bits/vector.tcc **** 		  this->_M_impl._M_finish += __n;
 481:/usr/include/c++/7/bits/vector.tcc **** 		  _GLIBCXX_MOVE_BACKWARD3(__position.base(),
 482:/usr/include/c++/7/bits/vector.tcc **** 					  __old_finish - __n, __old_finish);
 483:/usr/include/c++/7/bits/vector.tcc **** 		  std::fill(__position.base(), __position.base() + __n,
 484:/usr/include/c++/7/bits/vector.tcc **** 			    __x_copy);
 485:/usr/include/c++/7/bits/vector.tcc **** 		}
 486:/usr/include/c++/7/bits/vector.tcc **** 	      else
 487:/usr/include/c++/7/bits/vector.tcc **** 		{
 488:/usr/include/c++/7/bits/vector.tcc **** 		  this->_M_impl._M_finish =
 489:/usr/include/c++/7/bits/vector.tcc **** 		    std::__uninitialized_fill_n_a(this->_M_impl._M_finish,
 490:/usr/include/c++/7/bits/vector.tcc **** 						  __n - __elems_after,
 491:/usr/include/c++/7/bits/vector.tcc **** 						  __x_copy,
 492:/usr/include/c++/7/bits/vector.tcc **** 						  _M_get_Tp_allocator());
 493:/usr/include/c++/7/bits/vector.tcc **** 		  std::__uninitialized_move_a(__position.base(), __old_finish,
 494:/usr/include/c++/7/bits/vector.tcc **** 					      this->_M_impl._M_finish,
 495:/usr/include/c++/7/bits/vector.tcc **** 					      _M_get_Tp_allocator());
 496:/usr/include/c++/7/bits/vector.tcc **** 		  this->_M_impl._M_finish += __elems_after;
 497:/usr/include/c++/7/bits/vector.tcc **** 		  std::fill(__position.base(), __old_finish, __x_copy);
 498:/usr/include/c++/7/bits/vector.tcc **** 		}
 499:/usr/include/c++/7/bits/vector.tcc **** 	    }
 500:/usr/include/c++/7/bits/vector.tcc **** 	  else
 501:/usr/include/c++/7/bits/vector.tcc **** 	    {
 502:/usr/include/c++/7/bits/vector.tcc **** 	      const size_type __len =
 503:/usr/include/c++/7/bits/vector.tcc **** 		_M_check_len(__n, "vector::_M_fill_insert");
 504:/usr/include/c++/7/bits/vector.tcc **** 	      const size_type __elems_before = __position - begin();
 505:/usr/include/c++/7/bits/vector.tcc **** 	      pointer __new_start(this->_M_allocate(__len));
 506:/usr/include/c++/7/bits/vector.tcc **** 	      pointer __new_finish(__new_start);
 507:/usr/include/c++/7/bits/vector.tcc **** 	      __try
 508:/usr/include/c++/7/bits/vector.tcc **** 		{
 509:/usr/include/c++/7/bits/vector.tcc **** 		  // See _M_realloc_insert above.
 510:/usr/include/c++/7/bits/vector.tcc **** 		  std::__uninitialized_fill_n_a(__new_start + __elems_before,
 511:/usr/include/c++/7/bits/vector.tcc **** 						__n, __x,
 512:/usr/include/c++/7/bits/vector.tcc **** 						_M_get_Tp_allocator());
 513:/usr/include/c++/7/bits/vector.tcc **** 		  __new_finish = pointer();
 514:/usr/include/c++/7/bits/vector.tcc **** 
 515:/usr/include/c++/7/bits/vector.tcc **** 		  __new_finish
 516:/usr/include/c++/7/bits/vector.tcc **** 		    = std::__uninitialized_move_if_noexcept_a
 517:/usr/include/c++/7/bits/vector.tcc **** 		    (this->_M_impl._M_start, __position.base(),
 518:/usr/include/c++/7/bits/vector.tcc **** 		     __new_start, _M_get_Tp_allocator());
 519:/usr/include/c++/7/bits/vector.tcc **** 
 520:/usr/include/c++/7/bits/vector.tcc **** 		  __new_finish += __n;
 521:/usr/include/c++/7/bits/vector.tcc **** 
 522:/usr/include/c++/7/bits/vector.tcc **** 		  __new_finish
 523:/usr/include/c++/7/bits/vector.tcc **** 		    = std::__uninitialized_move_if_noexcept_a
 524:/usr/include/c++/7/bits/vector.tcc **** 		    (__position.base(), this->_M_impl._M_finish,
 525:/usr/include/c++/7/bits/vector.tcc **** 		     __new_finish, _M_get_Tp_allocator());
 526:/usr/include/c++/7/bits/vector.tcc **** 		}
 527:/usr/include/c++/7/bits/vector.tcc **** 	      __catch(...)
 528:/usr/include/c++/7/bits/vector.tcc **** 		{
 529:/usr/include/c++/7/bits/vector.tcc **** 		  if (!__new_finish)
 530:/usr/include/c++/7/bits/vector.tcc **** 		    std::_Destroy(__new_start + __elems_before,
 531:/usr/include/c++/7/bits/vector.tcc **** 				  __new_start + __elems_before + __n,
 532:/usr/include/c++/7/bits/vector.tcc **** 				  _M_get_Tp_allocator());
 533:/usr/include/c++/7/bits/vector.tcc **** 		  else
 534:/usr/include/c++/7/bits/vector.tcc **** 		    std::_Destroy(__new_start, __new_finish,
 535:/usr/include/c++/7/bits/vector.tcc **** 				  _M_get_Tp_allocator());
 536:/usr/include/c++/7/bits/vector.tcc **** 		  _M_deallocate(__new_start, __len);
 537:/usr/include/c++/7/bits/vector.tcc **** 		  __throw_exception_again;
 538:/usr/include/c++/7/bits/vector.tcc **** 		}
 539:/usr/include/c++/7/bits/vector.tcc **** 	      std::_Destroy(this->_M_impl._M_start, this->_M_impl._M_finish,
 540:/usr/include/c++/7/bits/vector.tcc **** 			    _M_get_Tp_allocator());
 541:/usr/include/c++/7/bits/vector.tcc **** 	      _M_deallocate(this->_M_impl._M_start,
 542:/usr/include/c++/7/bits/vector.tcc **** 			    this->_M_impl._M_end_of_storage
 543:/usr/include/c++/7/bits/vector.tcc **** 			    - this->_M_impl._M_start);
 544:/usr/include/c++/7/bits/vector.tcc **** 	      this->_M_impl._M_start = __new_start;
 545:/usr/include/c++/7/bits/vector.tcc **** 	      this->_M_impl._M_finish = __new_finish;
 546:/usr/include/c++/7/bits/vector.tcc **** 	      this->_M_impl._M_end_of_storage = __new_start + __len;
 547:/usr/include/c++/7/bits/vector.tcc **** 	    }
 548:/usr/include/c++/7/bits/vector.tcc **** 	}
 549:/usr/include/c++/7/bits/vector.tcc ****     }
 550:/usr/include/c++/7/bits/vector.tcc **** 
 551:/usr/include/c++/7/bits/vector.tcc **** #if __cplusplus >= 201103L
 552:/usr/include/c++/7/bits/vector.tcc ****   template<typename _Tp, typename _Alloc>
 553:/usr/include/c++/7/bits/vector.tcc ****     void
 554:/usr/include/c++/7/bits/vector.tcc ****     vector<_Tp, _Alloc>::
 1795              		.loc 4 554 0
 1796              		.cfi_startproc
 1797              		.cfi_personality 0x9b,DW.ref.__gxx_personality_v0
 1798              		.cfi_lsda 0x1b,.LLSDA2248
 1799 0000 55       		pushq	%rbp
 1800              		.cfi_def_cfa_offset 16
 1801              		.cfi_offset 6, -16
 1802 0001 4889E5   		movq	%rsp, %rbp
 1803              		.cfi_def_cfa_register 6
 1804 0004 53       		pushq	%rbx
 1805 0005 4883EC38 		subq	$56, %rsp
 1806              		.cfi_offset 3, -24
 1807 0009 48897DC8 		movq	%rdi, -56(%rbp)
 1808 000d 488975C0 		movq	%rsi, -64(%rbp)
 1809              	.LBB25:
 555:/usr/include/c++/7/bits/vector.tcc ****     _M_default_append(size_type __n)
 556:/usr/include/c++/7/bits/vector.tcc ****     {
 557:/usr/include/c++/7/bits/vector.tcc ****       if (__n != 0)
 1810              		.loc 4 557 0
 1811 0011 48837DC0 		cmpq	$0, -64(%rbp)
 1811      00
 1812 0016 0F84E801 		je	.L81
 1812      0000
 1813              	.LBB26:
 1814              	.LBB27:
 558:/usr/include/c++/7/bits/vector.tcc **** 	{
 559:/usr/include/c++/7/bits/vector.tcc **** 	  if (size_type(this->_M_impl._M_end_of_storage
 1815              		.loc 4 559 0
 1816 001c 488B45C8 		movq	-56(%rbp), %rax
 1817 0020 488B4010 		movq	16(%rax), %rax
 560:/usr/include/c++/7/bits/vector.tcc **** 			- this->_M_impl._M_finish) >= __n)
 1818              		.loc 4 560 0
 1819 0024 4889C2   		movq	%rax, %rdx
 1820 0027 488B45C8 		movq	-56(%rbp), %rax
 1821 002b 488B4008 		movq	8(%rax), %rax
 1822 002f 4829C2   		subq	%rax, %rdx
 1823 0032 4889D0   		movq	%rdx, %rax
 1824 0035 48C1F803 		sarq	$3, %rax
 559:/usr/include/c++/7/bits/vector.tcc **** 			- this->_M_impl._M_finish) >= __n)
 1825              		.loc 4 559 0
 1826 0039 483945C0 		cmpq	%rax, -64(%rbp)
 1827 003d 7736     		ja	.L75
 561:/usr/include/c++/7/bits/vector.tcc **** 	    {
 562:/usr/include/c++/7/bits/vector.tcc **** 	      this->_M_impl._M_finish =
 563:/usr/include/c++/7/bits/vector.tcc **** 		std::__uninitialized_default_n_a(this->_M_impl._M_finish,
 564:/usr/include/c++/7/bits/vector.tcc **** 						 __n, _M_get_Tp_allocator());
 1828              		.loc 4 564 0
 1829 003f 488B45C8 		movq	-56(%rbp), %rax
 1830 0043 4889C7   		movq	%rax, %rdi
 1831 0046 E8000000 		call	_ZNSt12_Vector_baseIdSaIdEE19_M_get_Tp_allocatorEv
 1831      00
 1832 004b 4889C2   		movq	%rax, %rdx
 563:/usr/include/c++/7/bits/vector.tcc **** 						 __n, _M_get_Tp_allocator());
 1833              		.loc 4 563 0
 1834 004e 488B45C8 		movq	-56(%rbp), %rax
 1835 0052 488B4008 		movq	8(%rax), %rax
 1836 0056 488B4DC0 		movq	-64(%rbp), %rcx
 1837 005a 4889CE   		movq	%rcx, %rsi
 1838 005d 4889C7   		movq	%rax, %rdi
 1839              	.LEHB17:
 1840 0060 E8000000 		call	_ZSt27__uninitialized_default_n_aIPdmdET_S1_T0_RSaIT1_E
 1840      00
 1841 0065 4889C2   		movq	%rax, %rdx
 562:/usr/include/c++/7/bits/vector.tcc **** 		std::__uninitialized_default_n_a(this->_M_impl._M_finish,
 1842              		.loc 4 562 0
 1843 0068 488B45C8 		movq	-56(%rbp), %rax
 1844 006c 48895008 		movq	%rdx, 8(%rax)
 1845              	.LBE27:
 1846              	.LBE26:
 1847              	.LBE25:
 565:/usr/include/c++/7/bits/vector.tcc **** 	    }
 566:/usr/include/c++/7/bits/vector.tcc **** 	  else
 567:/usr/include/c++/7/bits/vector.tcc **** 	    {
 568:/usr/include/c++/7/bits/vector.tcc **** 	      const size_type __len =
 569:/usr/include/c++/7/bits/vector.tcc **** 		_M_check_len(__n, "vector::_M_default_append");
 570:/usr/include/c++/7/bits/vector.tcc **** 	      const size_type __old_size = this->size();
 571:/usr/include/c++/7/bits/vector.tcc **** 	      pointer __new_start(this->_M_allocate(__len));
 572:/usr/include/c++/7/bits/vector.tcc **** 	      pointer __new_finish(__new_start);
 573:/usr/include/c++/7/bits/vector.tcc **** 	      __try
 574:/usr/include/c++/7/bits/vector.tcc **** 		{
 575:/usr/include/c++/7/bits/vector.tcc **** 		  __new_finish
 576:/usr/include/c++/7/bits/vector.tcc **** 		    = std::__uninitialized_move_if_noexcept_a
 577:/usr/include/c++/7/bits/vector.tcc **** 		    (this->_M_impl._M_start, this->_M_impl._M_finish,
 578:/usr/include/c++/7/bits/vector.tcc **** 		     __new_start, _M_get_Tp_allocator());
 579:/usr/include/c++/7/bits/vector.tcc **** 		  __new_finish =
 580:/usr/include/c++/7/bits/vector.tcc **** 		    std::__uninitialized_default_n_a(__new_finish, __n,
 581:/usr/include/c++/7/bits/vector.tcc **** 						     _M_get_Tp_allocator());
 582:/usr/include/c++/7/bits/vector.tcc **** 		}
 583:/usr/include/c++/7/bits/vector.tcc **** 	      __catch(...)
 584:/usr/include/c++/7/bits/vector.tcc **** 		{
 585:/usr/include/c++/7/bits/vector.tcc **** 		  std::_Destroy(__new_start, __new_finish,
 586:/usr/include/c++/7/bits/vector.tcc **** 				_M_get_Tp_allocator());
 587:/usr/include/c++/7/bits/vector.tcc **** 		  _M_deallocate(__new_start, __len);
 588:/usr/include/c++/7/bits/vector.tcc **** 		  __throw_exception_again;
 589:/usr/include/c++/7/bits/vector.tcc **** 		}
 590:/usr/include/c++/7/bits/vector.tcc **** 	      std::_Destroy(this->_M_impl._M_start, this->_M_impl._M_finish,
 591:/usr/include/c++/7/bits/vector.tcc **** 			    _M_get_Tp_allocator());
 592:/usr/include/c++/7/bits/vector.tcc **** 	      _M_deallocate(this->_M_impl._M_start,
 593:/usr/include/c++/7/bits/vector.tcc **** 			    this->_M_impl._M_end_of_storage
 594:/usr/include/c++/7/bits/vector.tcc **** 			    - this->_M_impl._M_start);
 595:/usr/include/c++/7/bits/vector.tcc **** 	      this->_M_impl._M_start = __new_start;
 596:/usr/include/c++/7/bits/vector.tcc **** 	      this->_M_impl._M_finish = __new_finish;
 597:/usr/include/c++/7/bits/vector.tcc **** 	      this->_M_impl._M_end_of_storage = __new_start + __len;
 598:/usr/include/c++/7/bits/vector.tcc **** 	    }
 599:/usr/include/c++/7/bits/vector.tcc **** 	}
 600:/usr/include/c++/7/bits/vector.tcc ****     }
 1848              		.loc 4 600 0
 1849 0070 E98F0100 		jmp	.L81
 1849      00
 1850              	.L75:
 1851              	.LBB34:
 1852              	.LBB32:
 1853              	.LBB30:
 1854              	.LBB28:
 568:/usr/include/c++/7/bits/vector.tcc **** 		_M_check_len(__n, "vector::_M_default_append");
 1855              		.loc 4 568 0
 1856 0075 488B4DC0 		movq	-64(%rbp), %rcx
 1857 0079 488B45C8 		movq	-56(%rbp), %rax
 1858 007d 488D1500 		leaq	.LC28(%rip), %rdx
 1858      000000
 1859 0084 4889CE   		movq	%rcx, %rsi
 1860 0087 4889C7   		movq	%rax, %rdi
 1861 008a E8000000 		call	_ZNKSt6vectorIdSaIdEE12_M_check_lenEmPKc
 1861      00
 1862 008f 488945D8 		movq	%rax, -40(%rbp)
 570:/usr/include/c++/7/bits/vector.tcc **** 	      pointer __new_start(this->_M_allocate(__len));
 1863              		.loc 4 570 0
 1864 0093 488B45C8 		movq	-56(%rbp), %rax
 1865 0097 4889C7   		movq	%rax, %rdi
 1866 009a E8000000 		call	_ZNKSt6vectorIdSaIdEE4sizeEv
 1866      00
 1867 009f 488945E0 		movq	%rax, -32(%rbp)
 571:/usr/include/c++/7/bits/vector.tcc **** 	      pointer __new_finish(__new_start);
 1868              		.loc 4 571 0
 1869 00a3 488B45C8 		movq	-56(%rbp), %rax
 1870 00a7 488B55D8 		movq	-40(%rbp), %rdx
 1871 00ab 4889D6   		movq	%rdx, %rsi
 1872 00ae 4889C7   		movq	%rax, %rdi
 1873 00b1 E8000000 		call	_ZNSt12_Vector_baseIdSaIdEE11_M_allocateEm
 1873      00
 1874              	.LEHE17:
 1875 00b6 488945E8 		movq	%rax, -24(%rbp)
 572:/usr/include/c++/7/bits/vector.tcc **** 	      __try
 1876              		.loc 4 572 0
 1877 00ba 488B45E8 		movq	-24(%rbp), %rax
 1878 00be 488945D0 		movq	%rax, -48(%rbp)
 578:/usr/include/c++/7/bits/vector.tcc **** 		  __new_finish =
 1879              		.loc 4 578 0
 1880 00c2 488B45C8 		movq	-56(%rbp), %rax
 1881 00c6 4889C7   		movq	%rax, %rdi
 1882 00c9 E8000000 		call	_ZNSt12_Vector_baseIdSaIdEE19_M_get_Tp_allocatorEv
 1882      00
 1883 00ce 4889C1   		movq	%rax, %rcx
 577:/usr/include/c++/7/bits/vector.tcc **** 		     __new_start, _M_get_Tp_allocator());
 1884              		.loc 4 577 0
 1885 00d1 488B45C8 		movq	-56(%rbp), %rax
 1886 00d5 488B7008 		movq	8(%rax), %rsi
 1887 00d9 488B45C8 		movq	-56(%rbp), %rax
 1888 00dd 488B00   		movq	(%rax), %rax
 575:/usr/include/c++/7/bits/vector.tcc **** 		    = std::__uninitialized_move_if_noexcept_a
 1889              		.loc 4 575 0
 1890 00e0 488B55E8 		movq	-24(%rbp), %rdx
 1891 00e4 4889C7   		movq	%rax, %rdi
 1892              	.LEHB18:
 1893 00e7 E8000000 		call	_ZSt34__uninitialized_move_if_noexcept_aIPdS0_SaIdEET0_T_S3_S2_RT1_
 1893      00
 1894 00ec 488945D0 		movq	%rax, -48(%rbp)
 581:/usr/include/c++/7/bits/vector.tcc **** 		}
 1895              		.loc 4 581 0
 1896 00f0 488B45C8 		movq	-56(%rbp), %rax
 1897 00f4 4889C7   		movq	%rax, %rdi
 1898 00f7 E8000000 		call	_ZNSt12_Vector_baseIdSaIdEE19_M_get_Tp_allocatorEv
 1898      00
 1899 00fc 4889C2   		movq	%rax, %rdx
 579:/usr/include/c++/7/bits/vector.tcc **** 		    std::__uninitialized_default_n_a(__new_finish, __n,
 1900              		.loc 4 579 0
 1901 00ff 488B4DC0 		movq	-64(%rbp), %rcx
 1902 0103 488B45D0 		movq	-48(%rbp), %rax
 1903 0107 4889CE   		movq	%rcx, %rsi
 1904 010a 4889C7   		movq	%rax, %rdi
 1905 010d E8000000 		call	_ZSt27__uninitialized_default_n_aIPdmdET_S1_T0_RSaIT1_E
 1905      00
 1906              	.LEHE18:
 579:/usr/include/c++/7/bits/vector.tcc **** 		    std::__uninitialized_default_n_a(__new_finish, __n,
 1907              		.loc 4 579 0 is_stmt 0 discriminator 1
 1908 0112 488945D0 		movq	%rax, -48(%rbp)
 591:/usr/include/c++/7/bits/vector.tcc **** 	      _M_deallocate(this->_M_impl._M_start,
 1909              		.loc 4 591 0 is_stmt 1 discriminator 1
 1910 0116 488B45C8 		movq	-56(%rbp), %rax
 1911 011a 4889C7   		movq	%rax, %rdi
 1912 011d E8000000 		call	_ZNSt12_Vector_baseIdSaIdEE19_M_get_Tp_allocatorEv
 1912      00
 1913 0122 4889C2   		movq	%rax, %rdx
 590:/usr/include/c++/7/bits/vector.tcc **** 			    _M_get_Tp_allocator());
 1914              		.loc 4 590 0 discriminator 1
 1915 0125 488B45C8 		movq	-56(%rbp), %rax
 1916 0129 488B4808 		movq	8(%rax), %rcx
 1917 012d 488B45C8 		movq	-56(%rbp), %rax
 1918 0131 488B00   		movq	(%rax), %rax
 1919 0134 4889CE   		movq	%rcx, %rsi
 1920 0137 4889C7   		movq	%rax, %rdi
 1921              	.LEHB19:
 1922 013a E8000000 		call	_ZSt8_DestroyIPddEvT_S1_RSaIT0_E
 1922      00
 592:/usr/include/c++/7/bits/vector.tcc **** 			    this->_M_impl._M_end_of_storage
 1923              		.loc 4 592 0 discriminator 1
 1924 013f 488B45C8 		movq	-56(%rbp), %rax
 593:/usr/include/c++/7/bits/vector.tcc **** 			    - this->_M_impl._M_start);
 1925              		.loc 4 593 0 discriminator 1
 1926 0143 488B55C8 		movq	-56(%rbp), %rdx
 1927 0147 488B5210 		movq	16(%rdx), %rdx
 594:/usr/include/c++/7/bits/vector.tcc **** 	      this->_M_impl._M_start = __new_start;
 1928              		.loc 4 594 0 discriminator 1
 1929 014b 4889D1   		movq	%rdx, %rcx
 1930 014e 488B55C8 		movq	-56(%rbp), %rdx
 1931 0152 488B12   		movq	(%rdx), %rdx
 1932 0155 4829D1   		subq	%rdx, %rcx
 1933 0158 4889CA   		movq	%rcx, %rdx
 1934 015b 48C1FA03 		sarq	$3, %rdx
 592:/usr/include/c++/7/bits/vector.tcc **** 			    this->_M_impl._M_end_of_storage
 1935              		.loc 4 592 0 discriminator 1
 1936 015f 4889D6   		movq	%rdx, %rsi
 1937 0162 488B55C8 		movq	-56(%rbp), %rdx
 1938 0166 488B0A   		movq	(%rdx), %rcx
 1939 0169 4889F2   		movq	%rsi, %rdx
 1940 016c 4889CE   		movq	%rcx, %rsi
 1941 016f 4889C7   		movq	%rax, %rdi
 1942 0172 E8000000 		call	_ZNSt12_Vector_baseIdSaIdEE13_M_deallocateEPdm
 1942      00
 1943              	.LEHE19:
 595:/usr/include/c++/7/bits/vector.tcc **** 	      this->_M_impl._M_finish = __new_finish;
 1944              		.loc 4 595 0 discriminator 1
 1945 0177 488B45C8 		movq	-56(%rbp), %rax
 1946 017b 488B55E8 		movq	-24(%rbp), %rdx
 1947 017f 488910   		movq	%rdx, (%rax)
 596:/usr/include/c++/7/bits/vector.tcc **** 	      this->_M_impl._M_end_of_storage = __new_start + __len;
 1948              		.loc 4 596 0 discriminator 1
 1949 0182 488B45C8 		movq	-56(%rbp), %rax
 1950 0186 488B55D0 		movq	-48(%rbp), %rdx
 1951 018a 48895008 		movq	%rdx, 8(%rax)
 597:/usr/include/c++/7/bits/vector.tcc **** 	    }
 1952              		.loc 4 597 0 discriminator 1
 1953 018e 488B45D8 		movq	-40(%rbp), %rax
 1954 0192 488D14C5 		leaq	0(,%rax,8), %rdx
 1954      00000000 
 1955 019a 488B45E8 		movq	-24(%rbp), %rax
 1956 019e 4801C2   		addq	%rax, %rdx
 1957 01a1 488B45C8 		movq	-56(%rbp), %rax
 1958 01a5 48895010 		movq	%rdx, 16(%rax)
 1959              	.LBE28:
 1960              	.LBE30:
 1961              	.LBE32:
 1962              	.LBE34:
 1963              		.loc 4 600 0 discriminator 1
 1964 01a9 EB59     		jmp	.L81
 1965              	.L79:
 1966              	.LBB35:
 1967              	.LBB33:
 1968              	.LBB31:
 1969              	.LBB29:
 583:/usr/include/c++/7/bits/vector.tcc **** 		{
 1970              		.loc 4 583 0
 1971 01ab 4889C7   		movq	%rax, %rdi
 1972 01ae E8000000 		call	__cxa_begin_catch@PLT
 1972      00
 586:/usr/include/c++/7/bits/vector.tcc **** 		  _M_deallocate(__new_start, __len);
 1973              		.loc 4 586 0
 1974 01b3 488B45C8 		movq	-56(%rbp), %rax
 1975 01b7 4889C7   		movq	%rax, %rdi
 1976 01ba E8000000 		call	_ZNSt12_Vector_baseIdSaIdEE19_M_get_Tp_allocatorEv
 1976      00
 1977 01bf 4889C2   		movq	%rax, %rdx
 585:/usr/include/c++/7/bits/vector.tcc **** 				_M_get_Tp_allocator());
 1978              		.loc 4 585 0
 1979 01c2 488B4DD0 		movq	-48(%rbp), %rcx
 1980 01c6 488B45E8 		movq	-24(%rbp), %rax
 1981 01ca 4889CE   		movq	%rcx, %rsi
 1982 01cd 4889C7   		movq	%rax, %rdi
 1983              	.LEHB20:
 1984 01d0 E8000000 		call	_ZSt8_DestroyIPddEvT_S1_RSaIT0_E
 1984      00
 587:/usr/include/c++/7/bits/vector.tcc **** 		  __throw_exception_again;
 1985              		.loc 4 587 0
 1986 01d5 488B45C8 		movq	-56(%rbp), %rax
 1987 01d9 488B55D8 		movq	-40(%rbp), %rdx
 1988 01dd 488B4DE8 		movq	-24(%rbp), %rcx
 1989 01e1 4889CE   		movq	%rcx, %rsi
 1990 01e4 4889C7   		movq	%rax, %rdi
 1991 01e7 E8000000 		call	_ZNSt12_Vector_baseIdSaIdEE13_M_deallocateEPdm
 1991      00
 588:/usr/include/c++/7/bits/vector.tcc **** 		}
 1992              		.loc 4 588 0
 1993 01ec E8000000 		call	__cxa_rethrow@PLT
 1993      00
 1994              	.LEHE20:
 1995              	.L80:
 1996 01f1 4889C3   		movq	%rax, %rbx
 583:/usr/include/c++/7/bits/vector.tcc **** 		{
 1997              		.loc 4 583 0
 1998 01f4 E8000000 		call	__cxa_end_catch@PLT
 1998      00
 1999 01f9 4889D8   		movq	%rbx, %rax
 2000 01fc 4889C7   		movq	%rax, %rdi
 2001              	.LEHB21:
 2002 01ff E8000000 		call	_Unwind_Resume@PLT
 2002      00
 2003              	.LEHE21:
 2004              	.L81:
 2005              	.LBE29:
 2006              	.LBE31:
 2007              	.LBE33:
 2008              	.LBE35:
 2009              		.loc 4 600 0
 2010 0204 90       		nop
 2011 0205 4883C438 		addq	$56, %rsp
 2012 0209 5B       		popq	%rbx
 2013 020a 5D       		popq	%rbp
 2014              		.cfi_def_cfa 7, 8
 2015 020b C3       		ret
 2016              		.cfi_endproc
 2017              	.LFE2248:
 2018              		.section	.gcc_except_table
 2019 0039 000000   		.align 4
 2020              	.LLSDA2248:
 2021 003c FF       		.byte	0xff
 2022 003d 9B       		.byte	0x9b
 2023 003e 25       		.uleb128 .LLSDATT2248-.LLSDATTD2248
 2024              	.LLSDATTD2248:
 2025 003f 01       		.byte	0x1
 2026 0040 1A       		.uleb128 .LLSDACSE2248-.LLSDACSB2248
 2027              	.LLSDACSB2248:
 2028 0041 60       		.uleb128 .LEHB17-.LFB2248
 2029 0042 56       		.uleb128 .LEHE17-.LEHB17
 2030 0043 00       		.uleb128 0
 2031 0044 00       		.uleb128 0
 2032 0045 E701     		.uleb128 .LEHB18-.LFB2248
 2033 0047 2B       		.uleb128 .LEHE18-.LEHB18
 2034 0048 AB03     		.uleb128 .L79-.LFB2248
 2035 004a 01       		.uleb128 0x1
 2036 004b BA02     		.uleb128 .LEHB19-.LFB2248
 2037 004d 3D       		.uleb128 .LEHE19-.LEHB19
 2038 004e 00       		.uleb128 0
 2039 004f 00       		.uleb128 0
 2040 0050 D003     		.uleb128 .LEHB20-.LFB2248
 2041 0052 21       		.uleb128 .LEHE20-.LEHB20
 2042 0053 F103     		.uleb128 .L80-.LFB2248
 2043 0055 00       		.uleb128 0
 2044 0056 FF03     		.uleb128 .LEHB21-.LFB2248
 2045 0058 05       		.uleb128 .LEHE21-.LEHB21
 2046 0059 00       		.uleb128 0
 2047 005a 00       		.uleb128 0
 2048              	.LLSDACSE2248:
 2049 005b 01       		.byte	0x1
 2050 005c 00       		.byte	0
 2051 005d 000000   		.align 4
 2052 0060 00000000 		.long	0
 2053              	
 2054              	.LLSDATT2248:
 2055              		.section	.text._ZNSt6vectorIdSaIdEE17_M_default_appendEm,"axG",@progbits,_ZNSt6vectorIdSaIdEE17_M_
 2057              		.section	.text._ZNSt6vectorIdSaIdEE15_M_erase_at_endEPd,"axG",@progbits,_ZNSt6vectorIdSaIdEE15_M_e
 2058              		.align 2
 2059              		.weak	_ZNSt6vectorIdSaIdEE15_M_erase_at_endEPd
 2061              	_ZNSt6vectorIdSaIdEE15_M_erase_at_endEPd:
 2062              	.LFB2249:
 818:/usr/include/c++/7/bits/stl_vector.h **** 
 819:/usr/include/c++/7/bits/stl_vector.h ****     protected:
 820:/usr/include/c++/7/bits/stl_vector.h ****       /// Safety check used only from at().
 821:/usr/include/c++/7/bits/stl_vector.h ****       void
 822:/usr/include/c++/7/bits/stl_vector.h ****       _M_range_check(size_type __n) const
 823:/usr/include/c++/7/bits/stl_vector.h ****       {
 824:/usr/include/c++/7/bits/stl_vector.h **** 	if (__n >= this->size())
 825:/usr/include/c++/7/bits/stl_vector.h **** 	  __throw_out_of_range_fmt(__N("vector::_M_range_check: __n "
 826:/usr/include/c++/7/bits/stl_vector.h **** 				       "(which is %zu) >= this->size() "
 827:/usr/include/c++/7/bits/stl_vector.h **** 				       "(which is %zu)"),
 828:/usr/include/c++/7/bits/stl_vector.h **** 				   __n, this->size());
 829:/usr/include/c++/7/bits/stl_vector.h ****       }
 830:/usr/include/c++/7/bits/stl_vector.h **** 
 831:/usr/include/c++/7/bits/stl_vector.h ****     public:
 832:/usr/include/c++/7/bits/stl_vector.h ****       /**
 833:/usr/include/c++/7/bits/stl_vector.h ****        *  @brief  Provides access to the data contained in the %vector.
 834:/usr/include/c++/7/bits/stl_vector.h ****        *  @param __n The index of the element for which data should be
 835:/usr/include/c++/7/bits/stl_vector.h ****        *  accessed.
 836:/usr/include/c++/7/bits/stl_vector.h ****        *  @return  Read/write reference to data.
 837:/usr/include/c++/7/bits/stl_vector.h ****        *  @throw  std::out_of_range  If @a __n is an invalid index.
 838:/usr/include/c++/7/bits/stl_vector.h ****        *
 839:/usr/include/c++/7/bits/stl_vector.h ****        *  This function provides for safer data access.  The parameter
 840:/usr/include/c++/7/bits/stl_vector.h ****        *  is first checked that it is in the range of the vector.  The
 841:/usr/include/c++/7/bits/stl_vector.h ****        *  function throws out_of_range if the check fails.
 842:/usr/include/c++/7/bits/stl_vector.h ****        */
 843:/usr/include/c++/7/bits/stl_vector.h ****       reference
 844:/usr/include/c++/7/bits/stl_vector.h ****       at(size_type __n)
 845:/usr/include/c++/7/bits/stl_vector.h ****       {
 846:/usr/include/c++/7/bits/stl_vector.h **** 	_M_range_check(__n);
 847:/usr/include/c++/7/bits/stl_vector.h **** 	return (*this)[__n];
 848:/usr/include/c++/7/bits/stl_vector.h ****       }
 849:/usr/include/c++/7/bits/stl_vector.h **** 
 850:/usr/include/c++/7/bits/stl_vector.h ****       /**
 851:/usr/include/c++/7/bits/stl_vector.h ****        *  @brief  Provides access to the data contained in the %vector.
 852:/usr/include/c++/7/bits/stl_vector.h ****        *  @param __n The index of the element for which data should be
 853:/usr/include/c++/7/bits/stl_vector.h ****        *  accessed.
 854:/usr/include/c++/7/bits/stl_vector.h ****        *  @return  Read-only (constant) reference to data.
 855:/usr/include/c++/7/bits/stl_vector.h ****        *  @throw  std::out_of_range  If @a __n is an invalid index.
 856:/usr/include/c++/7/bits/stl_vector.h ****        *
 857:/usr/include/c++/7/bits/stl_vector.h ****        *  This function provides for safer data access.  The parameter
 858:/usr/include/c++/7/bits/stl_vector.h ****        *  is first checked that it is in the range of the vector.  The
 859:/usr/include/c++/7/bits/stl_vector.h ****        *  function throws out_of_range if the check fails.
 860:/usr/include/c++/7/bits/stl_vector.h ****        */
 861:/usr/include/c++/7/bits/stl_vector.h ****       const_reference
 862:/usr/include/c++/7/bits/stl_vector.h ****       at(size_type __n) const
 863:/usr/include/c++/7/bits/stl_vector.h ****       {
 864:/usr/include/c++/7/bits/stl_vector.h **** 	_M_range_check(__n);
 865:/usr/include/c++/7/bits/stl_vector.h **** 	return (*this)[__n];
 866:/usr/include/c++/7/bits/stl_vector.h ****       }
 867:/usr/include/c++/7/bits/stl_vector.h **** 
 868:/usr/include/c++/7/bits/stl_vector.h ****       /**
 869:/usr/include/c++/7/bits/stl_vector.h ****        *  Returns a read/write reference to the data at the first
 870:/usr/include/c++/7/bits/stl_vector.h ****        *  element of the %vector.
 871:/usr/include/c++/7/bits/stl_vector.h ****        */
 872:/usr/include/c++/7/bits/stl_vector.h ****       reference
 873:/usr/include/c++/7/bits/stl_vector.h ****       front() _GLIBCXX_NOEXCEPT
 874:/usr/include/c++/7/bits/stl_vector.h ****       {
 875:/usr/include/c++/7/bits/stl_vector.h **** 	__glibcxx_requires_nonempty();
 876:/usr/include/c++/7/bits/stl_vector.h **** 	return *begin();
 877:/usr/include/c++/7/bits/stl_vector.h ****       }
 878:/usr/include/c++/7/bits/stl_vector.h **** 
 879:/usr/include/c++/7/bits/stl_vector.h ****       /**
 880:/usr/include/c++/7/bits/stl_vector.h ****        *  Returns a read-only (constant) reference to the data at the first
 881:/usr/include/c++/7/bits/stl_vector.h ****        *  element of the %vector.
 882:/usr/include/c++/7/bits/stl_vector.h ****        */
 883:/usr/include/c++/7/bits/stl_vector.h ****       const_reference
 884:/usr/include/c++/7/bits/stl_vector.h ****       front() const _GLIBCXX_NOEXCEPT
 885:/usr/include/c++/7/bits/stl_vector.h ****       {
 886:/usr/include/c++/7/bits/stl_vector.h **** 	__glibcxx_requires_nonempty();
 887:/usr/include/c++/7/bits/stl_vector.h **** 	return *begin();
 888:/usr/include/c++/7/bits/stl_vector.h ****       }
 889:/usr/include/c++/7/bits/stl_vector.h **** 
 890:/usr/include/c++/7/bits/stl_vector.h ****       /**
 891:/usr/include/c++/7/bits/stl_vector.h ****        *  Returns a read/write reference to the data at the last
 892:/usr/include/c++/7/bits/stl_vector.h ****        *  element of the %vector.
 893:/usr/include/c++/7/bits/stl_vector.h ****        */
 894:/usr/include/c++/7/bits/stl_vector.h ****       reference
 895:/usr/include/c++/7/bits/stl_vector.h ****       back() _GLIBCXX_NOEXCEPT
 896:/usr/include/c++/7/bits/stl_vector.h ****       {
 897:/usr/include/c++/7/bits/stl_vector.h **** 	__glibcxx_requires_nonempty();
 898:/usr/include/c++/7/bits/stl_vector.h **** 	return *(end() - 1);
 899:/usr/include/c++/7/bits/stl_vector.h ****       }
 900:/usr/include/c++/7/bits/stl_vector.h **** 
 901:/usr/include/c++/7/bits/stl_vector.h ****       /**
 902:/usr/include/c++/7/bits/stl_vector.h ****        *  Returns a read-only (constant) reference to the data at the
 903:/usr/include/c++/7/bits/stl_vector.h ****        *  last element of the %vector.
 904:/usr/include/c++/7/bits/stl_vector.h ****        */
 905:/usr/include/c++/7/bits/stl_vector.h ****       const_reference
 906:/usr/include/c++/7/bits/stl_vector.h ****       back() const _GLIBCXX_NOEXCEPT
 907:/usr/include/c++/7/bits/stl_vector.h ****       {
 908:/usr/include/c++/7/bits/stl_vector.h **** 	__glibcxx_requires_nonempty();
 909:/usr/include/c++/7/bits/stl_vector.h **** 	return *(end() - 1);
 910:/usr/include/c++/7/bits/stl_vector.h ****       }
 911:/usr/include/c++/7/bits/stl_vector.h **** 
 912:/usr/include/c++/7/bits/stl_vector.h ****       // _GLIBCXX_RESOLVE_LIB_DEFECTS
 913:/usr/include/c++/7/bits/stl_vector.h ****       // DR 464. Suggestion for new member functions in standard containers.
 914:/usr/include/c++/7/bits/stl_vector.h ****       // data access
 915:/usr/include/c++/7/bits/stl_vector.h ****       /**
 916:/usr/include/c++/7/bits/stl_vector.h ****        *   Returns a pointer such that [data(), data() + size()) is a valid
 917:/usr/include/c++/7/bits/stl_vector.h ****        *   range.  For a non-empty %vector, data() == &front().
 918:/usr/include/c++/7/bits/stl_vector.h ****        */
 919:/usr/include/c++/7/bits/stl_vector.h ****       _Tp*
 920:/usr/include/c++/7/bits/stl_vector.h ****       data() _GLIBCXX_NOEXCEPT
 921:/usr/include/c++/7/bits/stl_vector.h ****       { return _M_data_ptr(this->_M_impl._M_start); }
 922:/usr/include/c++/7/bits/stl_vector.h **** 
 923:/usr/include/c++/7/bits/stl_vector.h ****       const _Tp*
 924:/usr/include/c++/7/bits/stl_vector.h ****       data() const _GLIBCXX_NOEXCEPT
 925:/usr/include/c++/7/bits/stl_vector.h ****       { return _M_data_ptr(this->_M_impl._M_start); }
 926:/usr/include/c++/7/bits/stl_vector.h **** 
 927:/usr/include/c++/7/bits/stl_vector.h ****       // [23.2.4.3] modifiers
 928:/usr/include/c++/7/bits/stl_vector.h ****       /**
 929:/usr/include/c++/7/bits/stl_vector.h ****        *  @brief  Add data to the end of the %vector.
 930:/usr/include/c++/7/bits/stl_vector.h ****        *  @param  __x  Data to be added.
 931:/usr/include/c++/7/bits/stl_vector.h ****        *
 932:/usr/include/c++/7/bits/stl_vector.h ****        *  This is a typical stack operation.  The function creates an
 933:/usr/include/c++/7/bits/stl_vector.h ****        *  element at the end of the %vector and assigns the given data
 934:/usr/include/c++/7/bits/stl_vector.h ****        *  to it.  Due to the nature of a %vector this operation can be
 935:/usr/include/c++/7/bits/stl_vector.h ****        *  done in constant time if the %vector has preallocated space
 936:/usr/include/c++/7/bits/stl_vector.h ****        *  available.
 937:/usr/include/c++/7/bits/stl_vector.h ****        */
 938:/usr/include/c++/7/bits/stl_vector.h ****       void
 939:/usr/include/c++/7/bits/stl_vector.h ****       push_back(const value_type& __x)
 940:/usr/include/c++/7/bits/stl_vector.h ****       {
 941:/usr/include/c++/7/bits/stl_vector.h **** 	if (this->_M_impl._M_finish != this->_M_impl._M_end_of_storage)
 942:/usr/include/c++/7/bits/stl_vector.h **** 	  {
 943:/usr/include/c++/7/bits/stl_vector.h **** 	    _Alloc_traits::construct(this->_M_impl, this->_M_impl._M_finish,
 944:/usr/include/c++/7/bits/stl_vector.h **** 				     __x);
 945:/usr/include/c++/7/bits/stl_vector.h **** 	    ++this->_M_impl._M_finish;
 946:/usr/include/c++/7/bits/stl_vector.h **** 	  }
 947:/usr/include/c++/7/bits/stl_vector.h **** 	else
 948:/usr/include/c++/7/bits/stl_vector.h **** 	  _M_realloc_insert(end(), __x);
 949:/usr/include/c++/7/bits/stl_vector.h ****       }
 950:/usr/include/c++/7/bits/stl_vector.h **** 
 951:/usr/include/c++/7/bits/stl_vector.h **** #if __cplusplus >= 201103L
 952:/usr/include/c++/7/bits/stl_vector.h ****       void
 953:/usr/include/c++/7/bits/stl_vector.h ****       push_back(value_type&& __x)
 954:/usr/include/c++/7/bits/stl_vector.h ****       { emplace_back(std::move(__x)); }
 955:/usr/include/c++/7/bits/stl_vector.h **** 
 956:/usr/include/c++/7/bits/stl_vector.h ****       template<typename... _Args>
 957:/usr/include/c++/7/bits/stl_vector.h **** #if __cplusplus > 201402L
 958:/usr/include/c++/7/bits/stl_vector.h **** 	reference
 959:/usr/include/c++/7/bits/stl_vector.h **** #else
