   1              		.file	"cpp_vector_double_practice.cpp"
   2              		.text
   3              	.Ltext0:
   4              		.section	.rodata
   7              	_ZStL19piecewise_construct:
   8 0000 00       		.zero	1
   9              		.local	_ZStL8__ioinit
  10              		.comm	_ZStL8__ioinit,1,1
  11              	.LC0:
  12 0001 7E20526F 		.string	"~ RowVector()"
  12      77566563 
  12      746F7228 
  12      2900
  13              		.section	.text._ZN9RowVectorD2Ev,"axG",@progbits,_ZN9RowVectorD5Ev,comdat
  14              		.align 2
  15              		.weak	_ZN9RowVectorD2Ev
  17              	_ZN9RowVectorD2Ev:
  18              	.LFB1842:
  19              		.file 1 "cpp_vector_double_practice.cpp"
   1:cpp_vector_double_practice.cpp **** // Begin cpp_vector_double_practice.cpp
   2:cpp_vector_double_practice.cpp **** 
   3:cpp_vector_double_practice.cpp **** #include <cassert>
   4:cpp_vector_double_practice.cpp **** #include <cstdint>
   5:cpp_vector_double_practice.cpp **** #include <exception>
   6:cpp_vector_double_practice.cpp **** #include <iostream>
   7:cpp_vector_double_practice.cpp **** #include <string>
   8:cpp_vector_double_practice.cpp **** #include <vector>
   9:cpp_vector_double_practice.cpp **** 
  10:cpp_vector_double_practice.cpp **** #define LOG
  11:cpp_vector_double_practice.cpp **** 
  12:cpp_vector_double_practice.cpp **** class RowVector 
  13:cpp_vector_double_practice.cpp **** {
  14:cpp_vector_double_practice.cpp ****     // automatic allocation
  15:cpp_vector_double_practice.cpp ****     // https://stackoverflow.com/questions/8553464/vector-as-a-class-member
  16:cpp_vector_double_practice.cpp ****     std::vector<double> columns;
  17:cpp_vector_double_practice.cpp **** 
  18:cpp_vector_double_practice.cpp ****     protected:
  19:cpp_vector_double_practice.cpp ****         std::string name;
  20:cpp_vector_double_practice.cpp **** 
  21:cpp_vector_double_practice.cpp ****     public:
  22:cpp_vector_double_practice.cpp ****         // Default constructor
  23:cpp_vector_double_practice.cpp **** 		RowVector(){
  24:cpp_vector_double_practice.cpp **** #ifdef LOG
  25:cpp_vector_double_practice.cpp ****             std::cout << '[' << &columns << ']' << "RowVector()" << '\n';
  26:cpp_vector_double_practice.cpp **** #endif
  27:cpp_vector_double_practice.cpp ****             name = "None";
  28:cpp_vector_double_practice.cpp **** 		}
  29:cpp_vector_double_practice.cpp **** 
  30:cpp_vector_double_practice.cpp ****         ~ RowVector(){
  20              		.loc 1 30 0
  21              		.cfi_startproc
  22              		.cfi_personality 0x9b,DW.ref.__gxx_personality_v0
  23              		.cfi_lsda 0x1b,.LLSDA1842
  24 0000 55       		pushq	%rbp
  25              		.cfi_def_cfa_offset 16
  26              		.cfi_offset 6, -16
  27 0001 4889E5   		movq	%rsp, %rbp
  28              		.cfi_def_cfa_register 6
  29 0004 4883EC10 		subq	$16, %rsp
  30 0008 48897DF8 		movq	%rdi, -8(%rbp)
  31              	.LBB2:
  31:cpp_vector_double_practice.cpp **** #ifdef LOG
  32:cpp_vector_double_practice.cpp ****             std::cout << '[' << &columns << ']' << "~ RowVector()" << '\n';
  32              		.loc 1 32 0
  33 000c BE5B0000 		movl	$91, %esi
  33      00
  34 0011 488D3D00 		leaq	_ZSt4cout(%rip), %rdi
  34      000000
  35 0018 E8000000 		call	_ZStlsISt11char_traitsIcEERSt13basic_ostreamIcT_ES5_c@PLT
  35      00
  36 001d 4889C2   		movq	%rax, %rdx
  37 0020 488B45F8 		movq	-8(%rbp), %rax
  38 0024 4889C6   		movq	%rax, %rsi
  39 0027 4889D7   		movq	%rdx, %rdi
  40 002a E8000000 		call	_ZNSolsEPKv@PLT
  40      00
  41 002f BE5D0000 		movl	$93, %esi
  41      00
  42 0034 4889C7   		movq	%rax, %rdi
  43 0037 E8000000 		call	_ZStlsISt11char_traitsIcEERSt13basic_ostreamIcT_ES5_c@PLT
  43      00
  44 003c 488D3500 		leaq	.LC0(%rip), %rsi
  44      000000
  45 0043 4889C7   		movq	%rax, %rdi
  46 0046 E8000000 		call	_ZStlsISt11char_traitsIcEERSt13basic_ostreamIcT_ES5_PKc@PLT
  46      00
  47 004b BE0A0000 		movl	$10, %esi
  47      00
  48 0050 4889C7   		movq	%rax, %rdi
  49 0053 E8000000 		call	_ZStlsISt11char_traitsIcEERSt13basic_ostreamIcT_ES5_c@PLT
  49      00
  30:cpp_vector_double_practice.cpp **** #ifdef LOG
  50              		.loc 1 30 0
  51 0058 488B45F8 		movq	-8(%rbp), %rax
  52 005c 4883C018 		addq	$24, %rax
  53 0060 4889C7   		movq	%rax, %rdi
  54 0063 E8000000 		call	_ZNSt7__cxx1112basic_stringIcSt11char_traitsIcESaIcEED1Ev@PLT
  54      00
  55 0068 488B45F8 		movq	-8(%rbp), %rax
  56 006c 4889C7   		movq	%rax, %rdi
  57 006f E8000000 		call	_ZNSt6vectorIdSaIdEED1Ev
  57      00
  58              	.LBE2:
  33:cpp_vector_double_practice.cpp **** #endif
  34:cpp_vector_double_practice.cpp ****         }
  59              		.loc 1 34 0
  60 0074 90       		nop
  61 0075 C9       		leave
  62              		.cfi_def_cfa 7, 8
  63 0076 C3       		ret
  64              		.cfi_endproc
  65              	.LFE1842:
  66              		.globl	__gxx_personality_v0
  67              		.section	.gcc_except_table._ZN9RowVectorD2Ev,"aG",@progbits,_ZN9RowVectorD5Ev,comdat
  68              	.LLSDA1842:
  69 0000 FF       		.byte	0xff
  70 0001 FF       		.byte	0xff
  71 0002 01       		.byte	0x1
  72 0003 00       		.uleb128 .LLSDACSE1842-.LLSDACSB1842
  73              	.LLSDACSB1842:
  74              	.LLSDACSE1842:
  75              		.section	.text._ZN9RowVectorD2Ev,"axG",@progbits,_ZN9RowVectorD5Ev,comdat
  77              		.weak	_ZN9RowVectorD1Ev
  78              		.set	_ZN9RowVectorD1Ev,_ZN9RowVectorD2Ev
  79              		.section	.rodata
  80              	.LC1:
  81 000f 526F7756 		.string	"RowVector("
  81      6563746F 
  81      722800
  82              	.LC2:
  83 001a 2C2000   		.string	", "
  84              	.LC3:
  85 001d 290A00   		.string	")\n"
  86              		.section	.text._ZN9RowVectorC2EjNSt7__cxx1112basic_stringIcSt11char_traitsIcESaIcEEE,"axG",@progbi
  87              		.align 2
  88              		.weak	_ZN9RowVectorC2EjNSt7__cxx1112basic_stringIcSt11char_traitsIcESaIcEEE
  90              	_ZN9RowVectorC2EjNSt7__cxx1112basic_stringIcSt11char_traitsIcESaIcEEE:
  91              	.LFB1845:
  35:cpp_vector_double_practice.cpp **** 
  36:cpp_vector_double_practice.cpp ****         // Default arguments
  37:cpp_vector_double_practice.cpp ****         // If the function could not find the argument in the call, it uses the default value.
  38:cpp_vector_double_practice.cpp ****         RowVector(const uint32_t n, const double *values=NULL, std::string new_name="None");
  39:cpp_vector_double_practice.cpp **** 
  40:cpp_vector_double_practice.cpp ****         // Instead of implementing another constructor, reusing an existing one
  41:cpp_vector_double_practice.cpp ****         // c++ 11 or later
  42:cpp_vector_double_practice.cpp ****         RowVector(const uint32_t n, std::string new_name="None") : RowVector(n, NULL, new_name){
  92              		.loc 1 42 0
  93              		.cfi_startproc
  94              		.cfi_personality 0x9b,DW.ref.__gxx_personality_v0
  95              		.cfi_lsda 0x1b,.LLSDA1845
  96 0000 55       		pushq	%rbp
  97              		.cfi_def_cfa_offset 16
  98              		.cfi_offset 6, -16
  99 0001 4889E5   		movq	%rsp, %rbp
 100              		.cfi_def_cfa_register 6
 101 0004 53       		pushq	%rbx
 102 0005 4883EC58 		subq	$88, %rsp
 103              		.cfi_offset 3, -24
 104 0009 48897DB8 		movq	%rdi, -72(%rbp)
 105 000d 8975B4   		movl	%esi, -76(%rbp)
 106 0010 488955A8 		movq	%rdx, -88(%rbp)
 107              		.loc 1 42 0
 108 0014 64488B04 		movq	%fs:40, %rax
 108      25280000 
 108      00
 109 001d 488945E8 		movq	%rax, -24(%rbp)
 110 0021 31C0     		xorl	%eax, %eax
 111              	.LBB3:
 112 0023 488B55A8 		movq	-88(%rbp), %rdx
 113 0027 488D45C0 		leaq	-64(%rbp), %rax
 114 002b 4889D6   		movq	%rdx, %rsi
 115 002e 4889C7   		movq	%rax, %rdi
 116              	.LEHB0:
 117 0031 E8000000 		call	_ZNSt7__cxx1112basic_stringIcSt11char_traitsIcESaIcEEC1ERKS4_@PLT
 117      00
 118              	.LEHE0:
 119 0036 488D55C0 		leaq	-64(%rbp), %rdx
 120 003a 8B75B4   		movl	-76(%rbp), %esi
 121 003d 488B45B8 		movq	-72(%rbp), %rax
 122 0041 4889D1   		movq	%rdx, %rcx
 123 0044 BA000000 		movl	$0, %edx
 123      00
 124 0049 4889C7   		movq	%rax, %rdi
 125              	.LEHB1:
 126 004c E8000000 		call	_ZN9RowVectorC1EjPKdNSt7__cxx1112basic_stringIcSt11char_traitsIcESaIcEEE
 126      00
 127              	.LEHE1:
 128              		.loc 1 42 0 is_stmt 0 discriminator 2
 129 0051 488D45C0 		leaq	-64(%rbp), %rax
 130 0055 4889C7   		movq	%rax, %rdi
 131 0058 E8000000 		call	_ZNSt7__cxx1112basic_stringIcSt11char_traitsIcESaIcEED1Ev@PLT
 131      00
  43:cpp_vector_double_practice.cpp **** #ifdef LOG
  44:cpp_vector_double_practice.cpp ****             std::cout << '[' << &columns << ']' << "RowVector(" << n << ", " << new_name << ")\n";
 132              		.loc 1 44 0 is_stmt 1 discriminator 2
 133 005d BE5B0000 		movl	$91, %esi
 133      00
 134 0062 488D3D00 		leaq	_ZSt4cout(%rip), %rdi
 134      000000
 135              	.LEHB2:
 136 0069 E8000000 		call	_ZStlsISt11char_traitsIcEERSt13basic_ostreamIcT_ES5_c@PLT
 136      00
 137 006e 4889C2   		movq	%rax, %rdx
 138 0071 488B45B8 		movq	-72(%rbp), %rax
 139 0075 4889C6   		movq	%rax, %rsi
 140 0078 4889D7   		movq	%rdx, %rdi
 141 007b E8000000 		call	_ZNSolsEPKv@PLT
 141      00
 142              		.loc 1 44 0 is_stmt 0 discriminator 1
 143 0080 BE5D0000 		movl	$93, %esi
 143      00
 144 0085 4889C7   		movq	%rax, %rdi
 145 0088 E8000000 		call	_ZStlsISt11char_traitsIcEERSt13basic_ostreamIcT_ES5_c@PLT
 145      00
 146              		.loc 1 44 0 discriminator 2
 147 008d 488D3500 		leaq	.LC1(%rip), %rsi
 147      000000
 148 0094 4889C7   		movq	%rax, %rdi
 149 0097 E8000000 		call	_ZStlsISt11char_traitsIcEERSt13basic_ostreamIcT_ES5_PKc@PLT
 149      00
 150              		.loc 1 44 0 discriminator 3
 151 009c 4889C2   		movq	%rax, %rdx
 152 009f 8B45B4   		movl	-76(%rbp), %eax
 153 00a2 89C6     		movl	%eax, %esi
 154 00a4 4889D7   		movq	%rdx, %rdi
 155 00a7 E8000000 		call	_ZNSolsEj@PLT
 155      00
 156              		.loc 1 44 0 discriminator 4
 157 00ac 488D3500 		leaq	.LC2(%rip), %rsi
 157      000000
 158 00b3 4889C7   		movq	%rax, %rdi
 159 00b6 E8000000 		call	_ZStlsISt11char_traitsIcEERSt13basic_ostreamIcT_ES5_PKc@PLT
 159      00
 160              		.loc 1 44 0 discriminator 5
 161 00bb 4889C2   		movq	%rax, %rdx
 162 00be 488B45A8 		movq	-88(%rbp), %rax
 163 00c2 4889C6   		movq	%rax, %rsi
 164 00c5 4889D7   		movq	%rdx, %rdi
 165 00c8 E8000000 		call	_ZStlsIcSt11char_traitsIcESaIcEERSt13basic_ostreamIT_T0_ES7_RKNSt7__cxx1112basic_stringIS4_S5
 165      00
 166              		.loc 1 44 0 discriminator 6
 167 00cd 488D3500 		leaq	.LC3(%rip), %rsi
 167      000000
 168 00d4 4889C7   		movq	%rax, %rdi
 169 00d7 E8000000 		call	_ZStlsISt11char_traitsIcEERSt13basic_ostreamIcT_ES5_PKc@PLT
 169      00
 170              	.LEHE2:
 171              	.LBE3:
  45:cpp_vector_double_practice.cpp **** #endif
  46:cpp_vector_double_practice.cpp ****         }
 172              		.loc 1 46 0 is_stmt 1
 173 00dc EB34     		jmp	.L8
 174              	.L6:
 175 00de 4889C3   		movq	%rax, %rbx
 176              	.LBB4:
  42:cpp_vector_double_practice.cpp **** #ifdef LOG
 177              		.loc 1 42 0
 178 00e1 488D45C0 		leaq	-64(%rbp), %rax
 179 00e5 4889C7   		movq	%rax, %rdi
 180 00e8 E8000000 		call	_ZNSt7__cxx1112basic_stringIcSt11char_traitsIcESaIcEED1Ev@PLT
 180      00
 181 00ed 4889D8   		movq	%rbx, %rax
 182 00f0 4889C7   		movq	%rax, %rdi
 183              	.LEHB3:
 184 00f3 E8000000 		call	_Unwind_Resume@PLT
 184      00
 185              	.L7:
 186 00f8 4889C3   		movq	%rax, %rbx
 187 00fb 488B45B8 		movq	-72(%rbp), %rax
 188 00ff 4889C7   		movq	%rax, %rdi
 189 0102 E8000000 		call	_ZN9RowVectorD1Ev
 189      00
 190 0107 4889D8   		movq	%rbx, %rax
 191 010a 4889C7   		movq	%rax, %rdi
 192 010d E8000000 		call	_Unwind_Resume@PLT
 192      00
 193              	.LEHE3:
 194              	.L8:
 195              	.LBE4:
 196              		.loc 1 46 0
 197 0112 488B45E8 		movq	-24(%rbp), %rax
 198 0116 64483304 		xorq	%fs:40, %rax
 198      25280000 
 198      00
 199 011f 7405     		je	.L5
 200 0121 E8000000 		call	__stack_chk_fail@PLT
 200      00
 201              	.L5:
 202 0126 4883C458 		addq	$88, %rsp
 203 012a 5B       		popq	%rbx
 204 012b 5D       		popq	%rbp
 205              		.cfi_def_cfa 7, 8
 206 012c C3       		ret
 207              		.cfi_endproc
 208              	.LFE1845:
 209              		.section	.gcc_except_table._ZN9RowVectorC2EjNSt7__cxx1112basic_stringIcSt11char_traitsIcESaIcEEE,"
 210              	.LLSDA1845:
 211 0000 FF       		.byte	0xff
 212 0001 FF       		.byte	0xff
 213 0002 01       		.byte	0x1
 214 0003 13       		.uleb128 .LLSDACSE1845-.LLSDACSB1845
 215              	.LLSDACSB1845:
 216 0004 31       		.uleb128 .LEHB0-.LFB1845
 217 0005 05       		.uleb128 .LEHE0-.LEHB0
 218 0006 00       		.uleb128 0
 219 0007 00       		.uleb128 0
 220 0008 4C       		.uleb128 .LEHB1-.LFB1845
 221 0009 05       		.uleb128 .LEHE1-.LEHB1
 222 000a DE01     		.uleb128 .L6-.LFB1845
 223 000c 00       		.uleb128 0
 224 000d 69       		.uleb128 .LEHB2-.LFB1845
 225 000e 73       		.uleb128 .LEHE2-.LEHB2
 226 000f F801     		.uleb128 .L7-.LFB1845
 227 0011 00       		.uleb128 0
 228 0012 F301     		.uleb128 .LEHB3-.LFB1845
 229 0014 1F       		.uleb128 .LEHE3-.LEHB3
 230 0015 00       		.uleb128 0
 231 0016 00       		.uleb128 0
 232              	.LLSDACSE1845:
 233              		.section	.text._ZN9RowVectorC2EjNSt7__cxx1112basic_stringIcSt11char_traitsIcESaIcEEE,"axG",@progbi
 235              		.weak	_ZN9RowVectorC1EjNSt7__cxx1112basic_stringIcSt11char_traitsIcESaIcEEE
 236              		.set	_ZN9RowVectorC1EjNSt7__cxx1112basic_stringIcSt11char_traitsIcESaIcEEE,_ZN9RowVectorC2EjNSt7__
 237              		.section	.rodata
 238              	.LC4:
 239 0020 646F7562 		.string	"double & operator [] ("
 239      6C652026 
 239      206F7065 
 239      7261746F 
 239      72205B5D 
 240              		.section	.text._ZN9RowVectorixEj,"axG",@progbits,_ZN9RowVectorixEj,comdat
 241              		.align 2
 242              		.weak	_ZN9RowVectorixEj
 244              	_ZN9RowVectorixEj:
 245              	.LFB1847:
  47:cpp_vector_double_practice.cpp **** 
  48:cpp_vector_double_practice.cpp ****         RowVector(const RowVector & other);
  49:cpp_vector_double_practice.cpp **** 
  50:cpp_vector_double_practice.cpp ****         double & operator [] (const uint32_t i){
 246              		.loc 1 50 0
 247              		.cfi_startproc
 248 0000 55       		pushq	%rbp
 249              		.cfi_def_cfa_offset 16
 250              		.cfi_offset 6, -16
 251 0001 4889E5   		movq	%rsp, %rbp
 252              		.cfi_def_cfa_register 6
 253 0004 4883EC10 		subq	$16, %rsp
 254 0008 48897DF8 		movq	%rdi, -8(%rbp)
 255 000c 8975F4   		movl	%esi, -12(%rbp)
  51:cpp_vector_double_practice.cpp **** #ifdef LOG
  52:cpp_vector_double_practice.cpp ****             std::cout << '[' << &columns << ']' << "double & operator [] (" << i << ")\n";
 256              		.loc 1 52 0
 257 000f BE5B0000 		movl	$91, %esi
 257      00
 258 0014 488D3D00 		leaq	_ZSt4cout(%rip), %rdi
 258      000000
 259 001b E8000000 		call	_ZStlsISt11char_traitsIcEERSt13basic_ostreamIcT_ES5_c@PLT
 259      00
 260 0020 4889C2   		movq	%rax, %rdx
 261 0023 488B45F8 		movq	-8(%rbp), %rax
 262 0027 4889C6   		movq	%rax, %rsi
 263 002a 4889D7   		movq	%rdx, %rdi
 264 002d E8000000 		call	_ZNSolsEPKv@PLT
 264      00
 265 0032 BE5D0000 		movl	$93, %esi
 265      00
 266 0037 4889C7   		movq	%rax, %rdi
 267 003a E8000000 		call	_ZStlsISt11char_traitsIcEERSt13basic_ostreamIcT_ES5_c@PLT
 267      00
 268 003f 488D3500 		leaq	.LC4(%rip), %rsi
 268      000000
 269 0046 4889C7   		movq	%rax, %rdi
 270 0049 E8000000 		call	_ZStlsISt11char_traitsIcEERSt13basic_ostreamIcT_ES5_PKc@PLT
 270      00
 271 004e 4889C2   		movq	%rax, %rdx
 272 0051 8B45F4   		movl	-12(%rbp), %eax
 273 0054 89C6     		movl	%eax, %esi
 274 0056 4889D7   		movq	%rdx, %rdi
 275 0059 E8000000 		call	_ZNSolsEj@PLT
 275      00
 276 005e 488D3500 		leaq	.LC3(%rip), %rsi
 276      000000
 277 0065 4889C7   		movq	%rax, %rdi
 278 0068 E8000000 		call	_ZStlsISt11char_traitsIcEERSt13basic_ostreamIcT_ES5_PKc@PLT
 278      00
  53:cpp_vector_double_practice.cpp **** #endif
  54:cpp_vector_double_practice.cpp ****             // Return reference; otherwise, unable to assign
  55:cpp_vector_double_practice.cpp ****             return columns[i];
 279              		.loc 1 55 0
 280 006d 8B55F4   		movl	-12(%rbp), %edx
 281 0070 488B45F8 		movq	-8(%rbp), %rax
 282 0074 4889D6   		movq	%rdx, %rsi
 283 0077 4889C7   		movq	%rax, %rdi
 284 007a E8000000 		call	_ZNSt6vectorIdSaIdEEixEm
 284      00
  56:cpp_vector_double_practice.cpp ****         }
 285              		.loc 1 56 0
 286 007f C9       		leave
 287              		.cfi_def_cfa 7, 8
 288 0080 C3       		ret
 289              		.cfi_endproc
 290              	.LFE1847:
 292              		.section	.rodata
 293              	.LC5:
 294 0037 526F7756 		.string	"RowVector operator + ("
 294      6563746F 
 294      72206F70 
 294      65726174 
 294      6F72202B 
 295 004e 0000     		.align 8
 296              	.LC6:
 297 0050 6370705F 		.string	"cpp_vector_double_practice.cpp"
 297      76656374 
 297      6F725F64 
 297      6F75626C 
 297      655F7072 
 298 006f 00       		.align 8
 299              	.LC7:
 300 0070 636F6C75 		.string	"columns.size() == other.columns.size()"
 300      6D6E732E 
 300      73697A65 
 300      2829203D 
 300      3D206F74 
 301              		.section	.text._ZN9RowVectorplERKS_,"axG",@progbits,_ZN9RowVectorplERKS_,comdat
 302              		.align 2
 303              		.weak	_ZN9RowVectorplERKS_
 305              	_ZN9RowVectorplERKS_:
 306              	.LFB1849:
  57:cpp_vector_double_practice.cpp **** 
  58:cpp_vector_double_practice.cpp ****         const std::string get_name(){
  59:cpp_vector_double_practice.cpp **** #ifdef LOG
  60:cpp_vector_double_practice.cpp ****             std::cout << '[' << &columns << ']' << "void show()\n";
  61:cpp_vector_double_practice.cpp **** #endif
  62:cpp_vector_double_practice.cpp ****             // Return constant; to prevent change
  63:cpp_vector_double_practice.cpp ****             return name;
  64:cpp_vector_double_practice.cpp ****         }
  65:cpp_vector_double_practice.cpp **** 
  66:cpp_vector_double_practice.cpp ****         RowVector operator + (const RowVector & other){
 307              		.loc 1 66 0
 308              		.cfi_startproc
 309              		.cfi_personality 0x9b,DW.ref.__gxx_personality_v0
 310              		.cfi_lsda 0x1b,.LLSDA1849
 311 0000 55       		pushq	%rbp
 312              		.cfi_def_cfa_offset 16
 313              		.cfi_offset 6, -16
 314 0001 4889E5   		movq	%rsp, %rbp
 315              		.cfi_def_cfa_register 6
 316 0004 53       		pushq	%rbx
 317 0005 4883EC38 		subq	$56, %rsp
 318              		.cfi_offset 3, -24
 319 0009 48897DD8 		movq	%rdi, -40(%rbp)
 320 000d 488975D0 		movq	%rsi, -48(%rbp)
 321 0011 488955C8 		movq	%rdx, -56(%rbp)
 322              		.loc 1 66 0
 323 0015 64488B04 		movq	%fs:40, %rax
 323      25280000 
 323      00
 324 001e 488945E8 		movq	%rax, -24(%rbp)
 325 0022 31C0     		xorl	%eax, %eax
  67:cpp_vector_double_practice.cpp **** #ifdef LOG
  68:cpp_vector_double_practice.cpp ****             std::cout << '[' << &columns << ']' << "RowVector operator + (" << & other << ")\n";
 326              		.loc 1 68 0
 327 0024 BE5B0000 		movl	$91, %esi
 327      00
 328 0029 488D3D00 		leaq	_ZSt4cout(%rip), %rdi
 328      000000
 329              	.LEHB4:
 330 0030 E8000000 		call	_ZStlsISt11char_traitsIcEERSt13basic_ostreamIcT_ES5_c@PLT
 330      00
 331 0035 4889C2   		movq	%rax, %rdx
 332 0038 488B45D0 		movq	-48(%rbp), %rax
 333 003c 4889C6   		movq	%rax, %rsi
 334 003f 4889D7   		movq	%rdx, %rdi
 335 0042 E8000000 		call	_ZNSolsEPKv@PLT
 335      00
 336 0047 BE5D0000 		movl	$93, %esi
 336      00
 337 004c 4889C7   		movq	%rax, %rdi
 338 004f E8000000 		call	_ZStlsISt11char_traitsIcEERSt13basic_ostreamIcT_ES5_c@PLT
 338      00
 339 0054 488D3500 		leaq	.LC5(%rip), %rsi
 339      000000
 340 005b 4889C7   		movq	%rax, %rdi
 341 005e E8000000 		call	_ZStlsISt11char_traitsIcEERSt13basic_ostreamIcT_ES5_PKc@PLT
 341      00
 342 0063 4889C2   		movq	%rax, %rdx
 343 0066 488B45C8 		movq	-56(%rbp), %rax
 344 006a 4889C6   		movq	%rax, %rsi
 345 006d 4889D7   		movq	%rdx, %rdi
 346 0070 E8000000 		call	_ZNSolsEPKv@PLT
 346      00
 347 0075 488D3500 		leaq	.LC3(%rip), %rsi
 347      000000
 348 007c 4889C7   		movq	%rax, %rdi
 349 007f E8000000 		call	_ZStlsISt11char_traitsIcEERSt13basic_ostreamIcT_ES5_PKc@PLT
 349      00
  69:cpp_vector_double_practice.cpp **** #endif
  70:cpp_vector_double_practice.cpp ****             // Check size
  71:cpp_vector_double_practice.cpp ****             assert(columns.size() == other.columns.size());
 350              		.loc 1 71 0
 351 0084 488B45D0 		movq	-48(%rbp), %rax
 352 0088 4889C7   		movq	%rax, %rdi
 353 008b E8000000 		call	_ZNKSt6vectorIdSaIdEE4sizeEv
 353      00
 354 0090 4889C3   		movq	%rax, %rbx
 355 0093 488B45C8 		movq	-56(%rbp), %rax
 356 0097 4889C7   		movq	%rax, %rdi
 357 009a E8000000 		call	_ZNKSt6vectorIdSaIdEE4sizeEv
 357      00
 358 009f 4839C3   		cmpq	%rax, %rbx
 359 00a2 741F     		je	.L12
 360              		.loc 1 71 0 is_stmt 0 discriminator 1
 361 00a4 488D0D00 		leaq	_ZZN9RowVectorplERKS_E19__PRETTY_FUNCTION__(%rip), %rcx
 361      000000
 362 00ab BA470000 		movl	$71, %edx
 362      00
 363 00b0 488D3500 		leaq	.LC6(%rip), %rsi
 363      000000
 364 00b7 488D3D00 		leaq	.LC7(%rip), %rdi
 364      000000
 365 00be E8000000 		call	__assert_fail@PLT
 365      00
 366              	.L12:
  72:cpp_vector_double_practice.cpp **** 
  73:cpp_vector_double_practice.cpp ****             // Make a new vector to return
  74:cpp_vector_double_practice.cpp ****             RowVector temp(other);
 367              		.loc 1 74 0 is_stmt 1
 368 00c3 488B55C8 		movq	-56(%rbp), %rdx
 369 00c7 488B45D8 		movq	-40(%rbp), %rax
 370 00cb 4889D6   		movq	%rdx, %rsi
 371 00ce 4889C7   		movq	%rax, %rdi
 372 00d1 E8000000 		call	_ZN9RowVectorC1ERKS_
 372      00
 373              	.LEHE4:
 374              	.LBB5:
  75:cpp_vector_double_practice.cpp **** 
  76:cpp_vector_double_practice.cpp ****             // Element loop
  77:cpp_vector_double_practice.cpp ****             for (uint32_t i=0; columns.size() > i; ++i){
 375              		.loc 1 77 0
 376 00d6 C745E400 		movl	$0, -28(%rbp)
 376      000000
 377              	.L14:
 378              		.loc 1 77 0 is_stmt 0 discriminator 2
 379 00dd 488B45D0 		movq	-48(%rbp), %rax
 380 00e1 4889C7   		movq	%rax, %rdi
 381 00e4 E8000000 		call	_ZNKSt6vectorIdSaIdEE4sizeEv
 381      00
 382 00e9 4889C2   		movq	%rax, %rdx
 383 00ec 8B45E4   		movl	-28(%rbp), %eax
 384 00ef 4839C2   		cmpq	%rax, %rdx
 385 00f2 0F97C0   		seta	%al
 386 00f5 84C0     		testb	%al, %al
 387 00f7 7459     		je	.L19
  78:cpp_vector_double_practice.cpp ****                 temp[i] += columns[i];
 388              		.loc 1 78 0 is_stmt 1
 389 00f9 8B55E4   		movl	-28(%rbp), %edx
 390 00fc 488B45D0 		movq	-48(%rbp), %rax
 391 0100 4889D6   		movq	%rdx, %rsi
 392 0103 4889C7   		movq	%rax, %rdi
 393 0106 E8000000 		call	_ZNSt6vectorIdSaIdEEixEm
 393      00
 394 010b F20F1008 		movsd	(%rax), %xmm1
 395 010f F20F114D 		movsd	%xmm1, -64(%rbp)
 395      C0
 396 0114 8B55E4   		movl	-28(%rbp), %edx
 397 0117 488B45D8 		movq	-40(%rbp), %rax
 398 011b 89D6     		movl	%edx, %esi
 399 011d 4889C7   		movq	%rax, %rdi
 400              	.LEHB5:
 401 0120 E8000000 		call	_ZN9RowVectorixEj
 401      00
 402              	.LEHE5:
 403              		.loc 1 78 0 is_stmt 0 discriminator 1
 404 0125 F20F1000 		movsd	(%rax), %xmm0
 405 0129 F20F5845 		addsd	-64(%rbp), %xmm0
 405      C0
 406 012e F20F1100 		movsd	%xmm0, (%rax)
  77:cpp_vector_double_practice.cpp ****                 temp[i] += columns[i];
 407              		.loc 1 77 0 is_stmt 1 discriminator 1
 408 0132 8345E401 		addl	$1, -28(%rbp)
 409 0136 EBA5     		jmp	.L14
 410              	.L18:
 411 0138 4889C3   		movq	%rax, %rbx
 412              	.LBE5:
 413 013b 488B45D8 		movq	-40(%rbp), %rax
 414 013f 4889C7   		movq	%rax, %rdi
 415 0142 E8000000 		call	_ZN9RowVectorD1Ev
 415      00
 416 0147 4889D8   		movq	%rbx, %rax
 417 014a 4889C7   		movq	%rax, %rdi
 418              	.LEHB6:
 419 014d E8000000 		call	_Unwind_Resume@PLT
 419      00
 420              	.LEHE6:
 421              	.L19:
  79:cpp_vector_double_practice.cpp ****             }
  80:cpp_vector_double_practice.cpp **** 
  81:cpp_vector_double_practice.cpp ****             // Returning a temporary image
  82:cpp_vector_double_practice.cpp ****             return temp;
 422              		.loc 1 82 0
 423 0152 90       		nop
  83:cpp_vector_double_practice.cpp ****         }
 424              		.loc 1 83 0
 425 0153 488B45D8 		movq	-40(%rbp), %rax
 426 0157 488B4DE8 		movq	-24(%rbp), %rcx
 427 015b 6448330C 		xorq	%fs:40, %rcx
 427      25280000 
 427      00
 428 0164 7405     		je	.L17
 429 0166 E8000000 		call	__stack_chk_fail@PLT
 429      00
 430              	.L17:
 431 016b 4883C438 		addq	$56, %rsp
 432 016f 5B       		popq	%rbx
 433 0170 5D       		popq	%rbp
 434              		.cfi_def_cfa 7, 8
 435 0171 C3       		ret
 436              		.cfi_endproc
 437              	.LFE1849:
 438              		.section	.gcc_except_table._ZN9RowVectorplERKS_,"aG",@progbits,_ZN9RowVectorplERKS_,comdat
 439              	.LLSDA1849:
 440 0000 FF       		.byte	0xff
 441 0001 FF       		.byte	0xff
 442 0002 01       		.byte	0x1
 443 0003 10       		.uleb128 .LLSDACSE1849-.LLSDACSB1849
 444              	.LLSDACSB1849:
 445 0004 30       		.uleb128 .LEHB4-.LFB1849
 446 0005 A601     		.uleb128 .LEHE4-.LEHB4
 447 0007 00       		.uleb128 0
 448 0008 00       		.uleb128 0
 449 0009 A002     		.uleb128 .LEHB5-.LFB1849
 450 000b 05       		.uleb128 .LEHE5-.LEHB5
 451 000c B802     		.uleb128 .L18-.LFB1849
 452 000e 00       		.uleb128 0
 453 000f CD02     		.uleb128 .LEHB6-.LFB1849
 454 0011 05       		.uleb128 .LEHE6-.LEHB6
 455 0012 00       		.uleb128 0
 456 0013 00       		.uleb128 0
 457              	.LLSDACSE1849:
 458              		.section	.text._ZN9RowVectorplERKS_,"axG",@progbits,_ZN9RowVectorplERKS_,comdat
 460              		.section	.rodata
 461              	.LC8:
 462 0097 526F7756 		.string	"RowVector operator * ("
 462      6563746F 
 462      72206F70 
 462      65726174 
 462      6F72202A 
 463              		.section	.text._ZN9RowVectormlERKS_,"axG",@progbits,_ZN9RowVectormlERKS_,comdat
 464              		.align 2
 465              		.weak	_ZN9RowVectormlERKS_
 467              	_ZN9RowVectormlERKS_:
 468              	.LFB1851:
  84:cpp_vector_double_practice.cpp **** 
  85:cpp_vector_double_practice.cpp ****         RowVector operator * (const double a){
  86:cpp_vector_double_practice.cpp **** #ifdef LOG
  87:cpp_vector_double_practice.cpp ****             std::cout << '[' << &columns << ']' << "RowVector operator * (" << a << ")\n";
  88:cpp_vector_double_practice.cpp **** #endif
  89:cpp_vector_double_practice.cpp **** 
  90:cpp_vector_double_practice.cpp ****             // Make a new vector to return
  91:cpp_vector_double_practice.cpp ****             RowVector temp(*this);
  92:cpp_vector_double_practice.cpp **** 
  93:cpp_vector_double_practice.cpp ****             // Element loop in `for each` style
  94:cpp_vector_double_practice.cpp ****             // c++ 11 or later
  95:cpp_vector_double_practice.cpp ****             for (auto & element : temp.columns){
  96:cpp_vector_double_practice.cpp ****                 element *= a;
  97:cpp_vector_double_practice.cpp ****             }
  98:cpp_vector_double_practice.cpp **** 
  99:cpp_vector_double_practice.cpp ****             // Returning a temporary image
 100:cpp_vector_double_practice.cpp ****             return temp;
 101:cpp_vector_double_practice.cpp ****         }
 102:cpp_vector_double_practice.cpp **** 
 103:cpp_vector_double_practice.cpp ****         const double operator * (const RowVector & other){
 469              		.loc 1 103 0
 470              		.cfi_startproc
 471 0000 55       		pushq	%rbp
 472              		.cfi_def_cfa_offset 16
 473              		.cfi_offset 6, -16
 474 0001 4889E5   		movq	%rsp, %rbp
 475              		.cfi_def_cfa_register 6
 476 0004 53       		pushq	%rbx
 477 0005 4883EC38 		subq	$56, %rsp
 478              		.cfi_offset 3, -24
 479 0009 48897DD8 		movq	%rdi, -40(%rbp)
 480 000d 488975D0 		movq	%rsi, -48(%rbp)
 104:cpp_vector_double_practice.cpp **** #ifdef LOG
 105:cpp_vector_double_practice.cpp ****             std::cout << '[' << &columns << ']' << "RowVector operator * (" << & other << ")\n";
 481              		.loc 1 105 0
 482 0011 BE5B0000 		movl	$91, %esi
 482      00
 483 0016 488D3D00 		leaq	_ZSt4cout(%rip), %rdi
 483      000000
 484 001d E8000000 		call	_ZStlsISt11char_traitsIcEERSt13basic_ostreamIcT_ES5_c@PLT
 484      00
 485 0022 4889C2   		movq	%rax, %rdx
 486 0025 488B45D8 		movq	-40(%rbp), %rax
 487 0029 4889C6   		movq	%rax, %rsi
 488 002c 4889D7   		movq	%rdx, %rdi
 489 002f E8000000 		call	_ZNSolsEPKv@PLT
 489      00
 490 0034 BE5D0000 		movl	$93, %esi
 490      00
 491 0039 4889C7   		movq	%rax, %rdi
 492 003c E8000000 		call	_ZStlsISt11char_traitsIcEERSt13basic_ostreamIcT_ES5_c@PLT
 492      00
 493 0041 488D3500 		leaq	.LC8(%rip), %rsi
 493      000000
 494 0048 4889C7   		movq	%rax, %rdi
 495 004b E8000000 		call	_ZStlsISt11char_traitsIcEERSt13basic_ostreamIcT_ES5_PKc@PLT
 495      00
 496 0050 4889C2   		movq	%rax, %rdx
 497 0053 488B45D0 		movq	-48(%rbp), %rax
 498 0057 4889C6   		movq	%rax, %rsi
 499 005a 4889D7   		movq	%rdx, %rdi
 500 005d E8000000 		call	_ZNSolsEPKv@PLT
 500      00
 501 0062 488D3500 		leaq	.LC3(%rip), %rsi
 501      000000
 502 0069 4889C7   		movq	%rax, %rdi
 503 006c E8000000 		call	_ZStlsISt11char_traitsIcEERSt13basic_ostreamIcT_ES5_PKc@PLT
 503      00
 106:cpp_vector_double_practice.cpp **** #endif
 107:cpp_vector_double_practice.cpp **** 
 108:cpp_vector_double_practice.cpp ****             // Check size
 109:cpp_vector_double_practice.cpp ****             assert(columns.size() == other.columns.size());
 504              		.loc 1 109 0
 505 0071 488B45D8 		movq	-40(%rbp), %rax
 506 0075 4889C7   		movq	%rax, %rdi
 507 0078 E8000000 		call	_ZNKSt6vectorIdSaIdEE4sizeEv
 507      00
 508 007d 4889C3   		movq	%rax, %rbx
 509 0080 488B45D0 		movq	-48(%rbp), %rax
 510 0084 4889C7   		movq	%rax, %rdi
 511 0087 E8000000 		call	_ZNKSt6vectorIdSaIdEE4sizeEv
 511      00
 512 008c 4839C3   		cmpq	%rax, %rbx
 513 008f 741F     		je	.L21
 514              		.loc 1 109 0 is_stmt 0 discriminator 1
 515 0091 488D0D00 		leaq	_ZZN9RowVectormlERKS_E19__PRETTY_FUNCTION__(%rip), %rcx
 515      000000
 516 0098 BA6D0000 		movl	$109, %edx
 516      00
 517 009d 488D3500 		leaq	.LC6(%rip), %rsi
 517      000000
 518 00a4 488D3D00 		leaq	.LC7(%rip), %rdi
 518      000000
 519 00ab E8000000 		call	__assert_fail@PLT
 519      00
 520              	.L21:
 110:cpp_vector_double_practice.cpp **** 
 111:cpp_vector_double_practice.cpp ****             double dot_product = 0.0;
 521              		.loc 1 111 0 is_stmt 1
 522 00b0 660FEFC0 		pxor	%xmm0, %xmm0
 523 00b4 F20F1145 		movsd	%xmm0, -24(%rbp)
 523      E8
 524              	.LBB6:
 112:cpp_vector_double_practice.cpp **** 
 113:cpp_vector_double_practice.cpp ****             // Element loop
 114:cpp_vector_double_practice.cpp ****             for (uint32_t i = 0; columns.size() > i; ++i){
 525              		.loc 1 114 0
 526 00b9 C745E400 		movl	$0, -28(%rbp)
 526      000000
 527              	.L23:
 528              		.loc 1 114 0 is_stmt 0 discriminator 3
 529 00c0 488B45D8 		movq	-40(%rbp), %rax
 530 00c4 4889C7   		movq	%rax, %rdi
 531 00c7 E8000000 		call	_ZNKSt6vectorIdSaIdEE4sizeEv
 531      00
 532 00cc 4889C2   		movq	%rax, %rdx
 533 00cf 8B45E4   		movl	-28(%rbp), %eax
 534 00d2 4839C2   		cmpq	%rax, %rdx
 535 00d5 0F97C0   		seta	%al
 536 00d8 84C0     		testb	%al, %al
 537 00da 744A     		je	.L22
 115:cpp_vector_double_practice.cpp ****                 dot_product += columns[i] * other.columns[i];
 538              		.loc 1 115 0 is_stmt 1 discriminator 2
 539 00dc 8B55E4   		movl	-28(%rbp), %edx
 540 00df 488B45D8 		movq	-40(%rbp), %rax
 541 00e3 4889D6   		movq	%rdx, %rsi
 542 00e6 4889C7   		movq	%rax, %rdi
 543 00e9 E8000000 		call	_ZNSt6vectorIdSaIdEEixEm
 543      00
 544 00ee F20F1010 		movsd	(%rax), %xmm2
 545 00f2 F20F1155 		movsd	%xmm2, -56(%rbp)
 545      C8
 546 00f7 8B55E4   		movl	-28(%rbp), %edx
 547 00fa 488B45D0 		movq	-48(%rbp), %rax
 548 00fe 4889D6   		movq	%rdx, %rsi
 549 0101 4889C7   		movq	%rax, %rdi
 550 0104 E8000000 		call	_ZNKSt6vectorIdSaIdEEixEm
 550      00
 551 0109 F20F1000 		movsd	(%rax), %xmm0
 552 010d F20F5945 		mulsd	-56(%rbp), %xmm0
 552      C8
 553 0112 F20F104D 		movsd	-24(%rbp), %xmm1
 553      E8
 554 0117 F20F58C1 		addsd	%xmm1, %xmm0
 555 011b F20F1145 		movsd	%xmm0, -24(%rbp)
 555      E8
 114:cpp_vector_double_practice.cpp ****                 dot_product += columns[i] * other.columns[i];
 556              		.loc 1 114 0 discriminator 2
 557 0120 8345E401 		addl	$1, -28(%rbp)
 558 0124 EB9A     		jmp	.L23
 559              	.L22:
 560              	.LBE6:
 116:cpp_vector_double_practice.cpp ****             }
 117:cpp_vector_double_practice.cpp **** 
 118:cpp_vector_double_practice.cpp ****             // Returning a temporary image
 119:cpp_vector_double_practice.cpp ****             return dot_product;
 561              		.loc 1 119 0
 562 0126 F20F1045 		movsd	-24(%rbp), %xmm0
 562      E8
 120:cpp_vector_double_practice.cpp ****         }
 563              		.loc 1 120 0
 564 012b 4883C438 		addq	$56, %rsp
 565 012f 5B       		popq	%rbx
 566 0130 5D       		popq	%rbp
 567              		.cfi_def_cfa 7, 8
 568 0131 C3       		ret
 569              		.cfi_endproc
 570              	.LFE1851:
 572              		.text
 573              		.align 2
 574              		.globl	_ZN9RowVectorC2EjPKdNSt7__cxx1112basic_stringIcSt11char_traitsIcESaIcEEE
 576              	_ZN9RowVectorC2EjPKdNSt7__cxx1112basic_stringIcSt11char_traitsIcESaIcEEE:
 577              	.LFB1853:
 121:cpp_vector_double_practice.cpp **** 
 122:cpp_vector_double_practice.cpp ****         void show();
 123:cpp_vector_double_practice.cpp **** };
 124:cpp_vector_double_practice.cpp **** 
 125:cpp_vector_double_practice.cpp **** 
 126:cpp_vector_double_practice.cpp **** RowVector::RowVector(const uint32_t n, const double *values, std::string new_name){
 578              		.loc 1 126 0
 579              		.cfi_startproc
 580              		.cfi_personality 0x9b,DW.ref.__gxx_personality_v0
 581              		.cfi_lsda 0x1b,.LLSDA1853
 582 0000 55       		pushq	%rbp
 583              		.cfi_def_cfa_offset 16
 584              		.cfi_offset 6, -16
 585 0001 4889E5   		movq	%rsp, %rbp
 586              		.cfi_def_cfa_register 6
 587 0004 53       		pushq	%rbx
 588 0005 4883EC38 		subq	$56, %rsp
 589              		.cfi_offset 3, -24
 590 0009 48897DD8 		movq	%rdi, -40(%rbp)
 591 000d 8975D4   		movl	%esi, -44(%rbp)
 592 0010 488955C8 		movq	%rdx, -56(%rbp)
 593 0014 48894DC0 		movq	%rcx, -64(%rbp)
 594              	.LBB7:
 595              		.loc 1 126 0
 596 0018 488B45D8 		movq	-40(%rbp), %rax
 597 001c 4889C7   		movq	%rax, %rdi
 598 001f E8000000 		call	_ZNSt6vectorIdSaIdEEC1Ev
 598      00
 599 0024 488B45D8 		movq	-40(%rbp), %rax
 600 0028 4883C018 		addq	$24, %rax
 601 002c 4889C7   		movq	%rax, %rdi
 602 002f E8000000 		call	_ZNSt7__cxx1112basic_stringIcSt11char_traitsIcESaIcEEC1Ev@PLT
 602      00
 603              	.LBB8:
 127:cpp_vector_double_practice.cpp **** #ifdef LOG
 128:cpp_vector_double_practice.cpp ****     std::cout << '[' << &columns << ']' 
 604              		.loc 1 128 0
 605 0034 BE5B0000 		movl	$91, %esi
 605      00
 606 0039 488D3D00 		leaq	_ZSt4cout(%rip), %rdi
 606      000000
 607              	.LEHB7:
 608 0040 E8000000 		call	_ZStlsISt11char_traitsIcEERSt13basic_ostreamIcT_ES5_c@PLT
 608      00
 609 0045 4889C2   		movq	%rax, %rdx
 610 0048 488B45D8 		movq	-40(%rbp), %rax
 611 004c 4889C6   		movq	%rax, %rsi
 612 004f 4889D7   		movq	%rdx, %rdi
 613 0052 E8000000 		call	_ZNSolsEPKv@PLT
 613      00
 129:cpp_vector_double_practice.cpp ****     << "RowVector(" << n << ", " << values << ", " << new_name << ")\n";
 614              		.loc 1 129 0 discriminator 1
 615 0057 BE5D0000 		movl	$93, %esi
 615      00
 616 005c 4889C7   		movq	%rax, %rdi
 617 005f E8000000 		call	_ZStlsISt11char_traitsIcEERSt13basic_ostreamIcT_ES5_c@PLT
 617      00
 618              		.loc 1 129 0 is_stmt 0 discriminator 2
 619 0064 488D3500 		leaq	.LC1(%rip), %rsi
 619      000000
 620 006b 4889C7   		movq	%rax, %rdi
 621 006e E8000000 		call	_ZStlsISt11char_traitsIcEERSt13basic_ostreamIcT_ES5_PKc@PLT
 621      00
 622              		.loc 1 129 0 discriminator 1
 623 0073 4889C2   		movq	%rax, %rdx
 624 0076 8B45D4   		movl	-44(%rbp), %eax
 625 0079 89C6     		movl	%eax, %esi
 626 007b 4889D7   		movq	%rdx, %rdi
 627 007e E8000000 		call	_ZNSolsEj@PLT
 627      00
 628              		.loc 1 129 0 discriminator 2
 629 0083 488D3500 		leaq	.LC2(%rip), %rsi
 629      000000
 630 008a 4889C7   		movq	%rax, %rdi
 631 008d E8000000 		call	_ZStlsISt11char_traitsIcEERSt13basic_ostreamIcT_ES5_PKc@PLT
 631      00
 632              		.loc 1 129 0 discriminator 3
 633 0092 4889C2   		movq	%rax, %rdx
 634 0095 488B45C8 		movq	-56(%rbp), %rax
 635 0099 4889C6   		movq	%rax, %rsi
 636 009c 4889D7   		movq	%rdx, %rdi
 637 009f E8000000 		call	_ZNSolsEPKv@PLT
 637      00
 638              		.loc 1 129 0 discriminator 4
 639 00a4 488D3500 		leaq	.LC2(%rip), %rsi
 639      000000
 640 00ab 4889C7   		movq	%rax, %rdi
 641 00ae E8000000 		call	_ZStlsISt11char_traitsIcEERSt13basic_ostreamIcT_ES5_PKc@PLT
 641      00
 642              		.loc 1 129 0 discriminator 5
 643 00b3 4889C2   		movq	%rax, %rdx
 644 00b6 488B45C0 		movq	-64(%rbp), %rax
 645 00ba 4889C6   		movq	%rax, %rsi
 646 00bd 4889D7   		movq	%rdx, %rdi
 647 00c0 E8000000 		call	_ZStlsIcSt11char_traitsIcESaIcEERSt13basic_ostreamIT_T0_ES7_RKNSt7__cxx1112basic_stringIS4_S5
 647      00
 648              		.loc 1 129 0 discriminator 6
 649 00c5 488D3500 		leaq	.LC3(%rip), %rsi
 649      000000
 650 00cc 4889C7   		movq	%rax, %rdi
 651 00cf E8000000 		call	_ZStlsISt11char_traitsIcEERSt13basic_ostreamIcT_ES5_PKc@PLT
 651      00
 130:cpp_vector_double_practice.cpp **** #endif
 131:cpp_vector_double_practice.cpp ****     columns.resize(n);
 652              		.loc 1 131 0 is_stmt 1
 653 00d4 488B45D8 		movq	-40(%rbp), %rax
 654 00d8 8B55D4   		movl	-44(%rbp), %edx
 655 00db 4889D6   		movq	%rdx, %rsi
 656 00de 4889C7   		movq	%rax, %rdi
 657 00e1 E8000000 		call	_ZNSt6vectorIdSaIdEE6resizeEm
 657      00
 658              	.LBB9:
 132:cpp_vector_double_practice.cpp **** 
 133:cpp_vector_double_practice.cpp ****     // If initial values available, copy
 134:cpp_vector_double_practice.cpp ****     if (values){
 659              		.loc 1 134 0
 660 00e6 48837DC8 		cmpq	$0, -56(%rbp)
 660      00
 661 00eb 7456     		je	.L26
 662              	.LBB10:
 663              	.LBB11:
 135:cpp_vector_double_practice.cpp ****         for (uint32_t i = 0; columns.size() > i; ++i){
 664              		.loc 1 135 0
 665 00ed C745E800 		movl	$0, -24(%rbp)
 665      000000
 666              	.L28:
 667              		.loc 1 135 0 is_stmt 0 discriminator 3
 668 00f4 488B45D8 		movq	-40(%rbp), %rax
 669 00f8 4889C7   		movq	%rax, %rdi
 670 00fb E8000000 		call	_ZNKSt6vectorIdSaIdEE4sizeEv
 670      00
 671 0100 4889C2   		movq	%rax, %rdx
 672 0103 8B45E8   		movl	-24(%rbp), %eax
 673 0106 4839C2   		cmpq	%rax, %rdx
 674 0109 0F97C0   		seta	%al
 675 010c 84C0     		testb	%al, %al
 676 010e 7476     		je	.L29
 136:cpp_vector_double_practice.cpp ****             columns[i] = values[i];
 677              		.loc 1 136 0 is_stmt 1 discriminator 2
 678 0110 8B45E8   		movl	-24(%rbp), %eax
 679 0113 488D14C5 		leaq	0(,%rax,8), %rdx
 679      00000000 
 680 011b 488B45C8 		movq	-56(%rbp), %rax
 681 011f 488D1C02 		leaq	(%rdx,%rax), %rbx
 682 0123 8B55E8   		movl	-24(%rbp), %edx
 683 0126 488B45D8 		movq	-40(%rbp), %rax
 684 012a 4889D6   		movq	%rdx, %rsi
 685 012d 4889C7   		movq	%rax, %rdi
 686 0130 E8000000 		call	_ZNSt6vectorIdSaIdEEixEm
 686      00
 687 0135 F20F1003 		movsd	(%rbx), %xmm0
 688 0139 F20F1100 		movsd	%xmm0, (%rax)
 135:cpp_vector_double_practice.cpp ****         for (uint32_t i = 0; columns.size() > i; ++i){
 689              		.loc 1 135 0 discriminator 2
 690 013d 8345E801 		addl	$1, -24(%rbp)
 691 0141 EBB1     		jmp	.L28
 692              	.L26:
 693              	.LBE11:
 694              	.LBE10:
 695              	.LBB12:
 696              	.LBB13:
 137:cpp_vector_double_practice.cpp ****         }
 138:cpp_vector_double_practice.cpp ****     }
 139:cpp_vector_double_practice.cpp ****     // If no initial values, set all values zero
 140:cpp_vector_double_practice.cpp ****     else{
 141:cpp_vector_double_practice.cpp ****         for (uint32_t i = 0; columns.size() > i; ++i){
 697              		.loc 1 141 0
 698 0143 C745EC00 		movl	$0, -20(%rbp)
 698      000000
 699              	.L30:
 700              		.loc 1 141 0 is_stmt 0 discriminator 3
 701 014a 488B45D8 		movq	-40(%rbp), %rax
 702 014e 4889C7   		movq	%rax, %rdi
 703 0151 E8000000 		call	_ZNKSt6vectorIdSaIdEE4sizeEv
 703      00
 704 0156 4889C2   		movq	%rax, %rdx
 705 0159 8B45EC   		movl	-20(%rbp), %eax
 706 015c 4839C2   		cmpq	%rax, %rdx
 707 015f 0F97C0   		seta	%al
 708 0162 84C0     		testb	%al, %al
 709 0164 7420     		je	.L29
 142:cpp_vector_double_practice.cpp ****             columns[i] = 0.0;
 710              		.loc 1 142 0 is_stmt 1 discriminator 2
 711 0166 8B55EC   		movl	-20(%rbp), %edx
 712 0169 488B45D8 		movq	-40(%rbp), %rax
 713 016d 4889D6   		movq	%rdx, %rsi
 714 0170 4889C7   		movq	%rax, %rdi
 715 0173 E8000000 		call	_ZNSt6vectorIdSaIdEEixEm
 715      00
 716 0178 660FEFC0 		pxor	%xmm0, %xmm0
 717 017c F20F1100 		movsd	%xmm0, (%rax)
 141:cpp_vector_double_practice.cpp ****             columns[i] = 0.0;
 718              		.loc 1 141 0 discriminator 2
 719 0180 8345EC01 		addl	$1, -20(%rbp)
 720 0184 EBC4     		jmp	.L30
 721              	.L29:
 722              	.LBE13:
 723              	.LBE12:
 724              	.LBE9:
 143:cpp_vector_double_practice.cpp ****         }
 144:cpp_vector_double_practice.cpp ****     }
 145:cpp_vector_double_practice.cpp **** 
 146:cpp_vector_double_practice.cpp ****     name = new_name;
 725              		.loc 1 146 0
 726 0186 488B45D8 		movq	-40(%rbp), %rax
 727 018a 488D5018 		leaq	24(%rax), %rdx
 728 018e 488B45C0 		movq	-64(%rbp), %rax
 729 0192 4889C6   		movq	%rax, %rsi
 730 0195 4889D7   		movq	%rdx, %rdi
 731 0198 E8000000 		call	_ZNSt7__cxx1112basic_stringIcSt11char_traitsIcESaIcEEaSERKS4_@PLT
 731      00
 732              	.LEHE7:
 733              	.LBE8:
 734              	.LBE7:
 147:cpp_vector_double_practice.cpp **** }
 735              		.loc 1 147 0
 736 019d EB2A     		jmp	.L33
 737              	.L32:
 738 019f 4889C3   		movq	%rax, %rbx
 739              	.LBB14:
 126:cpp_vector_double_practice.cpp **** #ifdef LOG
 740              		.loc 1 126 0
 741 01a2 488B45D8 		movq	-40(%rbp), %rax
 742 01a6 4883C018 		addq	$24, %rax
 743 01aa 4889C7   		movq	%rax, %rdi
 744 01ad E8000000 		call	_ZNSt7__cxx1112basic_stringIcSt11char_traitsIcESaIcEED1Ev@PLT
 744      00
 745 01b2 488B45D8 		movq	-40(%rbp), %rax
 746 01b6 4889C7   		movq	%rax, %rdi
 747 01b9 E8000000 		call	_ZNSt6vectorIdSaIdEED1Ev
 747      00
 748 01be 4889D8   		movq	%rbx, %rax
 749 01c1 4889C7   		movq	%rax, %rdi
 750              	.LEHB8:
 751 01c4 E8000000 		call	_Unwind_Resume@PLT
 751      00
 752              	.LEHE8:
 753              	.L33:
 754              	.LBE14:
 755              		.loc 1 147 0
 756 01c9 4883C438 		addq	$56, %rsp
 757 01cd 5B       		popq	%rbx
 758 01ce 5D       		popq	%rbp
 759              		.cfi_def_cfa 7, 8
 760 01cf C3       		ret
 761              		.cfi_endproc
 762              	.LFE1853:
 763              		.section	.gcc_except_table,"a",@progbits
 764              	.LLSDA1853:
 765 0000 FF       		.byte	0xff
 766 0001 FF       		.byte	0xff
 767 0002 01       		.byte	0x1
 768 0003 0B       		.uleb128 .LLSDACSE1853-.LLSDACSB1853
 769              	.LLSDACSB1853:
 770 0004 40       		.uleb128 .LEHB7-.LFB1853
 771 0005 DD02     		.uleb128 .LEHE7-.LEHB7
 772 0007 9F03     		.uleb128 .L32-.LFB1853
 773 0009 00       		.uleb128 0
 774 000a C403     		.uleb128 .LEHB8-.LFB1853
 775 000c 05       		.uleb128 .LEHE8-.LEHB8
 776 000d 00       		.uleb128 0
 777 000e 00       		.uleb128 0
 778              	.LLSDACSE1853:
 779              		.text
 781              		.globl	_ZN9RowVectorC1EjPKdNSt7__cxx1112basic_stringIcSt11char_traitsIcESaIcEEE
 782              		.set	_ZN9RowVectorC1EjPKdNSt7__cxx1112basic_stringIcSt11char_traitsIcESaIcEEE,_ZN9RowVectorC2EjPKd
 783              		.section	.rodata
 784              	.LC10:
 785 00ae 3200     		.string	"2"
 786              		.text
 787              		.align 2
 788              		.globl	_ZN9RowVectorC2ERKS_
 790              	_ZN9RowVectorC2ERKS_:
 791              	.LFB1856:
 148:cpp_vector_double_practice.cpp **** 
 149:cpp_vector_double_practice.cpp **** 
 150:cpp_vector_double_practice.cpp **** RowVector::RowVector(const RowVector & other){
 792              		.loc 1 150 0
 793              		.cfi_startproc
 794              		.cfi_personality 0x9b,DW.ref.__gxx_personality_v0
 795              		.cfi_lsda 0x1b,.LLSDA1856
 796 01d0 55       		pushq	%rbp
 797              		.cfi_def_cfa_offset 16
 798              		.cfi_offset 6, -16
 799 01d1 4889E5   		movq	%rsp, %rbp
 800              		.cfi_def_cfa_register 6
 801 01d4 53       		pushq	%rbx
 802 01d5 4883EC28 		subq	$40, %rsp
 803              		.cfi_offset 3, -24
 804 01d9 48897DD8 		movq	%rdi, -40(%rbp)
 805 01dd 488975D0 		movq	%rsi, -48(%rbp)
 806              	.LBB15:
 807              		.loc 1 150 0
 808 01e1 488B45D8 		movq	-40(%rbp), %rax
 809 01e5 4889C7   		movq	%rax, %rdi
 810 01e8 E8000000 		call	_ZNSt6vectorIdSaIdEEC1Ev
 810      00
 811 01ed 488B45D8 		movq	-40(%rbp), %rax
 812 01f1 4883C018 		addq	$24, %rax
 813 01f5 4889C7   		movq	%rax, %rdi
 814 01f8 E8000000 		call	_ZNSt7__cxx1112basic_stringIcSt11char_traitsIcESaIcEEC1Ev@PLT
 814      00
 815              	.LBB16:
 151:cpp_vector_double_practice.cpp **** #ifdef LOG
 152:cpp_vector_double_practice.cpp ****     std::cout << '[' << &columns << ']' << "RowVector(" << & other << ")\n";
 816              		.loc 1 152 0
 817 01fd BE5B0000 		movl	$91, %esi
 817      00
 818 0202 488D3D00 		leaq	_ZSt4cout(%rip), %rdi
 818      000000
 819              	.LEHB9:
 820 0209 E8000000 		call	_ZStlsISt11char_traitsIcEERSt13basic_ostreamIcT_ES5_c@PLT
 820      00
 821 020e 4889C2   		movq	%rax, %rdx
 822 0211 488B45D8 		movq	-40(%rbp), %rax
 823 0215 4889C6   		movq	%rax, %rsi
 824 0218 4889D7   		movq	%rdx, %rdi
 825 021b E8000000 		call	_ZNSolsEPKv@PLT
 825      00
 826              		.loc 1 152 0 is_stmt 0 discriminator 1
 827 0220 BE5D0000 		movl	$93, %esi
 827      00
 828 0225 4889C7   		movq	%rax, %rdi
 829 0228 E8000000 		call	_ZStlsISt11char_traitsIcEERSt13basic_ostreamIcT_ES5_c@PLT
 829      00
 830              		.loc 1 152 0 discriminator 2
 831 022d 488D3500 		leaq	.LC1(%rip), %rsi
 831      000000
 832 0234 4889C7   		movq	%rax, %rdi
 833 0237 E8000000 		call	_ZStlsISt11char_traitsIcEERSt13basic_ostreamIcT_ES5_PKc@PLT
 833      00
 834              		.loc 1 152 0 discriminator 3
 835 023c 4889C2   		movq	%rax, %rdx
 836 023f 488B45D0 		movq	-48(%rbp), %rax
 837 0243 4889C6   		movq	%rax, %rsi
 838 0246 4889D7   		movq	%rdx, %rdi
 839 0249 E8000000 		call	_ZNSolsEPKv@PLT
 839      00
 840              		.loc 1 152 0 discriminator 4
 841 024e 488D3500 		leaq	.LC3(%rip), %rsi
 841      000000
 842 0255 4889C7   		movq	%rax, %rdi
 843 0258 E8000000 		call	_ZStlsISt11char_traitsIcEERSt13basic_ostreamIcT_ES5_PKc@PLT
 843      00
 153:cpp_vector_double_practice.cpp **** #endif
 154:cpp_vector_double_practice.cpp ****     // https://codereview.stackexchange.com/questions/149669/c-operator-overloading-for-matrix-oper
 155:cpp_vector_double_practice.cpp ****     // http://www.cplusplus.com/reference/vector/vector/resize/
 156:cpp_vector_double_practice.cpp ****     columns.resize(other.columns.size());
 844              		.loc 1 156 0 is_stmt 1
 845 025d 488B5DD8 		movq	-40(%rbp), %rbx
 846 0261 488B45D0 		movq	-48(%rbp), %rax
 847 0265 4889C7   		movq	%rax, %rdi
 848 0268 E8000000 		call	_ZNKSt6vectorIdSaIdEE4sizeEv
 848      00
 849 026d 4889C6   		movq	%rax, %rsi
 850 0270 4889DF   		movq	%rbx, %rdi
 851 0273 E8000000 		call	_ZNSt6vectorIdSaIdEE6resizeEm
 851      00
 852              	.LBB17:
 157:cpp_vector_double_practice.cpp ****     for(uint32_t i=0; columns.size() > i; ++i){
 853              		.loc 1 157 0
 854 0278 C745EC00 		movl	$0, -20(%rbp)
 854      000000
 855              	.L36:
 856              		.loc 1 157 0 is_stmt 0 discriminator 3
 857 027f 488B45D8 		movq	-40(%rbp), %rax
 858 0283 4889C7   		movq	%rax, %rdi
 859 0286 E8000000 		call	_ZNKSt6vectorIdSaIdEE4sizeEv
 859      00
 860 028b 4889C2   		movq	%rax, %rdx
 861 028e 8B45EC   		movl	-20(%rbp), %eax
 862 0291 4839C2   		cmpq	%rax, %rdx
 863 0294 0F97C0   		seta	%al
 864 0297 84C0     		testb	%al, %al
 865 0299 7435     		je	.L35
 158:cpp_vector_double_practice.cpp ****         columns[i] = other.columns[i];
 866              		.loc 1 158 0 is_stmt 1 discriminator 2
 867 029b 8B55EC   		movl	-20(%rbp), %edx
 868 029e 488B45D0 		movq	-48(%rbp), %rax
 869 02a2 4889D6   		movq	%rdx, %rsi
 870 02a5 4889C7   		movq	%rax, %rdi
 871 02a8 E8000000 		call	_ZNKSt6vectorIdSaIdEEixEm
 871      00
 872 02ad 4889C3   		movq	%rax, %rbx
 873 02b0 8B55EC   		movl	-20(%rbp), %edx
 874 02b3 488B45D8 		movq	-40(%rbp), %rax
 875 02b7 4889D6   		movq	%rdx, %rsi
 876 02ba 4889C7   		movq	%rax, %rdi
 877 02bd E8000000 		call	_ZNSt6vectorIdSaIdEEixEm
 877      00
 878 02c2 F20F1003 		movsd	(%rbx), %xmm0
 879 02c6 F20F1100 		movsd	%xmm0, (%rax)
 157:cpp_vector_double_practice.cpp ****     for(uint32_t i=0; columns.size() > i; ++i){
 880              		.loc 1 157 0 discriminator 2
 881 02ca 8345EC01 		addl	$1, -20(%rbp)
 882 02ce EBAF     		jmp	.L36
 883              	.L35:
 884              	.LBE17:
 159:cpp_vector_double_practice.cpp ****     }
 160:cpp_vector_double_practice.cpp **** 
 161:cpp_vector_double_practice.cpp ****     // Copy name of the other one
 162:cpp_vector_double_practice.cpp ****     name = other.name;
 885              		.loc 1 162 0
 886 02d0 488B45D0 		movq	-48(%rbp), %rax
 887 02d4 488D5018 		leaq	24(%rax), %rdx
 888 02d8 488B45D8 		movq	-40(%rbp), %rax
 889 02dc 4883C018 		addq	$24, %rax
 890 02e0 4889D6   		movq	%rdx, %rsi
 891 02e3 4889C7   		movq	%rax, %rdi
 892 02e6 E8000000 		call	_ZNSt7__cxx1112basic_stringIcSt11char_traitsIcESaIcEEaSERKS4_@PLT
 892      00
 163:cpp_vector_double_practice.cpp ****     // Then append
 164:cpp_vector_double_practice.cpp ****     name.append("2");
 893              		.loc 1 164 0
 894 02eb 488B45D8 		movq	-40(%rbp), %rax
 895 02ef 4883C018 		addq	$24, %rax
 896 02f3 488D3500 		leaq	.LC10(%rip), %rsi
 896      000000
 897 02fa 4889C7   		movq	%rax, %rdi
 898 02fd E8000000 		call	_ZNSt7__cxx1112basic_stringIcSt11char_traitsIcESaIcEE6appendEPKc@PLT
 898      00
 899              	.LEHE9:
 900              	.LBE16:
 901              	.LBE15:
 165:cpp_vector_double_practice.cpp **** }
 902              		.loc 1 165 0
 903 0302 EB2A     		jmp	.L39
 904              	.L38:
 905 0304 4889C3   		movq	%rax, %rbx
 906              	.LBB18:
 150:cpp_vector_double_practice.cpp **** #ifdef LOG
 907              		.loc 1 150 0
 908 0307 488B45D8 		movq	-40(%rbp), %rax
 909 030b 4883C018 		addq	$24, %rax
 910 030f 4889C7   		movq	%rax, %rdi
 911 0312 E8000000 		call	_ZNSt7__cxx1112basic_stringIcSt11char_traitsIcESaIcEED1Ev@PLT
 911      00
 912 0317 488B45D8 		movq	-40(%rbp), %rax
 913 031b 4889C7   		movq	%rax, %rdi
 914 031e E8000000 		call	_ZNSt6vectorIdSaIdEED1Ev
 914      00
 915 0323 4889D8   		movq	%rbx, %rax
 916 0326 4889C7   		movq	%rax, %rdi
 917              	.LEHB10:
 918 0329 E8000000 		call	_Unwind_Resume@PLT
 918      00
 919              	.LEHE10:
 920              	.L39:
 921              	.LBE18:
 922              		.loc 1 165 0
 923 032e 4883C428 		addq	$40, %rsp
 924 0332 5B       		popq	%rbx
 925 0333 5D       		popq	%rbp
 926              		.cfi_def_cfa 7, 8
 927 0334 C3       		ret
 928              		.cfi_endproc
 929              	.LFE1856:
 930              		.section	.gcc_except_table
 931              	.LLSDA1856:
 932 000f FF       		.byte	0xff
 933 0010 FF       		.byte	0xff
 934 0011 01       		.byte	0x1
 935 0012 0B       		.uleb128 .LLSDACSE1856-.LLSDACSB1856
 936              	.LLSDACSB1856:
 937 0013 39       		.uleb128 .LEHB9-.LFB1856
 938 0014 F901     		.uleb128 .LEHE9-.LEHB9
 939 0016 B402     		.uleb128 .L38-.LFB1856
 940 0018 00       		.uleb128 0
 941 0019 D902     		.uleb128 .LEHB10-.LFB1856
 942 001b 05       		.uleb128 .LEHE10-.LEHB10
 943 001c 00       		.uleb128 0
 944 001d 00       		.uleb128 0
 945              	.LLSDACSE1856:
 946              		.text
 948              		.globl	_ZN9RowVectorC1ERKS_
 949              		.set	_ZN9RowVectorC1ERKS_,_ZN9RowVectorC2ERKS_
 950              		.section	.rodata
 951              	.LC11:
 952 00b0 766F6964 		.string	"void show()\n"
 952      2073686F 
 952      7728290A 
 952      00
 953              	.LC12:
 954 00bd 5D203D20 		.string	"] = "
 954      00
 955              		.text
 956 0335 90       		.align 2
 957              		.globl	_ZN9RowVector4showEv
 959              	_ZN9RowVector4showEv:
 960              	.LFB1858:
 166:cpp_vector_double_practice.cpp **** 
 167:cpp_vector_double_practice.cpp **** 
 168:cpp_vector_double_practice.cpp **** void RowVector::show(){
 961              		.loc 1 168 0
 962              		.cfi_startproc
 963 0336 55       		pushq	%rbp
 964              		.cfi_def_cfa_offset 16
 965              		.cfi_offset 6, -16
 966 0337 4889E5   		movq	%rsp, %rbp
 967              		.cfi_def_cfa_register 6
 968 033a 53       		pushq	%rbx
 969 033b 4883EC28 		subq	$40, %rsp
 970              		.cfi_offset 3, -24
 971 033f 48897DD8 		movq	%rdi, -40(%rbp)
 169:cpp_vector_double_practice.cpp **** #ifdef LOG
 170:cpp_vector_double_practice.cpp ****     std::cout << '[' << &columns << ']' << "void show()\n";
 972              		.loc 1 170 0
 973 0343 BE5B0000 		movl	$91, %esi
 973      00
 974 0348 488D3D00 		leaq	_ZSt4cout(%rip), %rdi
 974      000000
 975 034f E8000000 		call	_ZStlsISt11char_traitsIcEERSt13basic_ostreamIcT_ES5_c@PLT
 975      00
 976 0354 4889C2   		movq	%rax, %rdx
 977 0357 488B45D8 		movq	-40(%rbp), %rax
 978 035b 4889C6   		movq	%rax, %rsi
 979 035e 4889D7   		movq	%rdx, %rdi
 980 0361 E8000000 		call	_ZNSolsEPKv@PLT
 980      00
 981 0366 BE5D0000 		movl	$93, %esi
 981      00
 982 036b 4889C7   		movq	%rax, %rdi
 983 036e E8000000 		call	_ZStlsISt11char_traitsIcEERSt13basic_ostreamIcT_ES5_c@PLT
 983      00
 984 0373 488D3500 		leaq	.LC11(%rip), %rsi
 984      000000
 985 037a 4889C7   		movq	%rax, %rdi
 986 037d E8000000 		call	_ZStlsISt11char_traitsIcEERSt13basic_ostreamIcT_ES5_PKc@PLT
 986      00
 987              	.LBB19:
 171:cpp_vector_double_practice.cpp **** #endif
 172:cpp_vector_double_practice.cpp ****     for (uint32_t i=0; columns.size()> i; ++i){
 988              		.loc 1 172 0
 989 0382 C745EC00 		movl	$0, -20(%rbp)
 989      000000
 990              	.L42:
 991              		.loc 1 172 0 is_stmt 0 discriminator 3
 992 0389 488B45D8 		movq	-40(%rbp), %rax
 993 038d 4889C7   		movq	%rax, %rdi
 994 0390 E8000000 		call	_ZNKSt6vectorIdSaIdEE4sizeEv
 994      00
 995 0395 4889C2   		movq	%rax, %rdx
 996 0398 8B45EC   		movl	-20(%rbp), %eax
 997 039b 4839C2   		cmpq	%rax, %rdx
 998 039e 0F97C0   		seta	%al
 999 03a1 84C0     		testb	%al, %al
 1000 03a3 0F848200 		je	.L43
 1000      0000
 173:cpp_vector_double_practice.cpp ****         std::cout << name << '[' << i << "] = " << columns[i] << '\n';
 1001              		.loc 1 173 0 is_stmt 1 discriminator 2
 1002 03a9 488B45D8 		movq	-40(%rbp), %rax
 1003 03ad 4883C018 		addq	$24, %rax
 1004 03b1 4889C6   		movq	%rax, %rsi
 1005 03b4 488D3D00 		leaq	_ZSt4cout(%rip), %rdi
 1005      000000
 1006 03bb E8000000 		call	_ZStlsIcSt11char_traitsIcESaIcEERSt13basic_ostreamIT_T0_ES7_RKNSt7__cxx1112basic_stringIS4_S5
 1006      00
 1007 03c0 BE5B0000 		movl	$91, %esi
 1007      00
 1008 03c5 4889C7   		movq	%rax, %rdi
 1009 03c8 E8000000 		call	_ZStlsISt11char_traitsIcEERSt13basic_ostreamIcT_ES5_c@PLT
 1009      00
 1010 03cd 4889C2   		movq	%rax, %rdx
 1011 03d0 8B45EC   		movl	-20(%rbp), %eax
 1012 03d3 89C6     		movl	%eax, %esi
 1013 03d5 4889D7   		movq	%rdx, %rdi
 1014 03d8 E8000000 		call	_ZNSolsEj@PLT
 1014      00
 1015 03dd 488D3500 		leaq	.LC12(%rip), %rsi
 1015      000000
 1016 03e4 4889C7   		movq	%rax, %rdi
 1017 03e7 E8000000 		call	_ZStlsISt11char_traitsIcEERSt13basic_ostreamIcT_ES5_PKc@PLT
 1017      00
 1018 03ec 4889C3   		movq	%rax, %rbx
 1019 03ef 8B55EC   		movl	-20(%rbp), %edx
 1020 03f2 488B45D8 		movq	-40(%rbp), %rax
 1021 03f6 4889D6   		movq	%rdx, %rsi
 1022 03f9 4889C7   		movq	%rax, %rdi
 1023 03fc E8000000 		call	_ZNSt6vectorIdSaIdEEixEm
 1023      00
 1024 0401 488B00   		movq	(%rax), %rax
 1025 0404 488945D0 		movq	%rax, -48(%rbp)
 1026 0408 F20F1045 		movsd	-48(%rbp), %xmm0
 1026      D0
 1027 040d 4889DF   		movq	%rbx, %rdi
 1028 0410 E8000000 		call	_ZNSolsEd@PLT
 1028      00
 1029 0415 BE0A0000 		movl	$10, %esi
 1029      00
 1030 041a 4889C7   		movq	%rax, %rdi
 1031 041d E8000000 		call	_ZStlsISt11char_traitsIcEERSt13basic_ostreamIcT_ES5_c@PLT
 1031      00
 172:cpp_vector_double_practice.cpp ****         std::cout << name << '[' << i << "] = " << columns[i] << '\n';
 1032              		.loc 1 172 0 discriminator 2
 1033 0422 8345EC01 		addl	$1, -20(%rbp)
 1034 0426 E95EFFFF 		jmp	.L42
 1034      FF
 1035              	.L43:
 1036              	.LBE19:
 174:cpp_vector_double_practice.cpp ****     }
 175:cpp_vector_double_practice.cpp **** }
 1037              		.loc 1 175 0
 1038 042b 90       		nop
 1039 042c 4883C428 		addq	$40, %rsp
 1040 0430 5B       		popq	%rbx
 1041 0431 5D       		popq	%rbp
 1042              		.cfi_def_cfa 7, 8
 1043 0432 C3       		ret
 1044              		.cfi_endproc
 1045              	.LFE1858:
 1047              		.section	.rodata
 1048 00c2 00000000 		.align 8
 1048      0000
 1049              	.LC15:
 1050 00c8 526F7756 		.string	"RowVector row (2u, s, \"row\");\n"
 1050      6563746F 
 1050      7220726F 
 1050      77202832 
 1050      752C2073 
 1051              	.LC16:
 1052 00e7 726F7700 		.string	"row"
 1053              	.LC17:
 1054 00eb 526F7756 		.string	"RowVector another_row (row);\n"
 1054      6563746F 
 1054      7220616E 
 1054      6F746865 
 1054      725F726F 
 1055              	.LC18:
 1056 0109 616E6F74 		.string	"another_row[1] += 0.5;\n"
 1056      6865725F 
 1056      726F775B 
 1056      315D202B 
 1056      3D20302E 
 1057 0121 00000000 		.align 8
 1057      000000
 1058              	.LC20:
 1059 0128 526F7756 		.string	"RowVector row_plus_another(row + another_row);\n"
 1059      6563746F 
 1059      7220726F 
 1059      775F706C 
 1059      75735F61 
 1060              	.LC21:
 1061 0158 526F7756 		.string	"RowVector zeros(3);\n"
 1061      6563746F 
 1061      72207A65 
 1061      726F7328 
 1061      33293B0A 
 1062              	.LC22:
 1063 016d 7A65726F 		.string	"zeros"
 1063      7300
 1064              	.LC24:
 1065 0173 6F727468 		.string	"ortho"
 1065      6F00
 1066              	.LC25:
 1067 0179 646F7562 		.string	"double dot = row * ortho;\n"
 1067      6C652064 
 1067      6F74203D 
 1067      20726F77 
 1067      202A206F 
 1068              	.LC26:
 1069 0194 646F7420 		.string	"dot  = "
 1069      203D2000 
 1070              	.LC27:
 1071 019c 646F7420 		.string	"dot = row * row;\n"
 1071      3D20726F 
 1071      77202A20 
 1071      726F773B 
 1071      0A00
 1072              		.text
 1073              		.globl	main
 1075              	main:
 1076              	.LFB1859:
 176:cpp_vector_double_practice.cpp **** 
 177:cpp_vector_double_practice.cpp **** 
 178:cpp_vector_double_practice.cpp **** int32_t main(int32_t argn, char *argv[]){
 1077              		.loc 1 178 0
 1078              		.cfi_startproc
 1079              		.cfi_personality 0x9b,DW.ref.__gxx_personality_v0
 1080              		.cfi_lsda 0x1b,.LLSDA1859
 1081 0433 55       		pushq	%rbp
 1082              		.cfi_def_cfa_offset 16
 1083              		.cfi_offset 6, -16
 1084 0434 4889E5   		movq	%rsp, %rbp
 1085              		.cfi_def_cfa_register 6
 1086 0437 53       		pushq	%rbx
 1087 0438 4881ECB8 		subq	$440, %rsp
 1087      010000
 1088              		.cfi_offset 3, -24
 1089 043f 89BD5CFE 		movl	%edi, -420(%rbp)
 1089      FFFF
 1090 0445 4889B550 		movq	%rsi, -432(%rbp)
 1090      FEFFFF
 1091              		.loc 1 178 0
 1092 044c 64488B04 		movq	%fs:40, %rax
 1092      25280000 
 1092      00
 1093 0455 488945E8 		movq	%rax, -24(%rbp)
 1094 0459 31C0     		xorl	%eax, %eax
 179:cpp_vector_double_practice.cpp **** 	double s[] = {1.0, 2.0};
 1095              		.loc 1 179 0
 1096 045b F20F1005 		movsd	.LC13(%rip), %xmm0
 1096      00000000 
 1097 0463 F20F1185 		movsd	%xmm0, -400(%rbp)
 1097      70FEFFFF 
 1098 046b F20F1005 		movsd	.LC14(%rip), %xmm0
 1098      00000000 
 1099 0473 F20F1185 		movsd	%xmm0, -392(%rbp)
 1099      78FEFFFF 
 180:cpp_vector_double_practice.cpp **** 
 181:cpp_vector_double_practice.cpp ****     std::cout << "RowVector row (2u, s, \"row\");\n";
 1100              		.loc 1 181 0
 1101 047b 488D3500 		leaq	.LC15(%rip), %rsi
 1101      000000
 1102 0482 488D3D00 		leaq	_ZSt4cout(%rip), %rdi
 1102      000000
 1103              	.LEHB11:
 1104 0489 E8000000 		call	_ZStlsISt11char_traitsIcEERSt13basic_ostreamIcT_ES5_PKc@PLT
 1104      00
 1105              	.LEHE11:
 182:cpp_vector_double_practice.cpp **** 	RowVector row (2u, s, "row");
 1106              		.loc 1 182 0
 1107 048e 488D8567 		leaq	-409(%rbp), %rax
 1107      FEFFFF
 1108 0495 4889C7   		movq	%rax, %rdi
 1109 0498 E8000000 		call	_ZNSaIcEC1Ev@PLT
 1109      00
 1110 049d 488D9567 		leaq	-409(%rbp), %rdx
 1110      FEFFFF
 1111 04a4 488D45B0 		leaq	-80(%rbp), %rax
 1112 04a8 488D3500 		leaq	.LC16(%rip), %rsi
 1112      000000
 1113 04af 4889C7   		movq	%rax, %rdi
 1114              	.LEHB12:
 1115 04b2 E8000000 		call	_ZNSt7__cxx1112basic_stringIcSt11char_traitsIcESaIcEEC1EPKcRKS3_@PLT
 1115      00
 1116              	.LEHE12:
 1117              		.loc 1 182 0 is_stmt 0 discriminator 1
 1118 04b7 488D4DB0 		leaq	-80(%rbp), %rcx
 1119 04bb 488D9570 		leaq	-400(%rbp), %rdx
 1119      FEFFFF
 1120 04c2 488D85B0 		leaq	-336(%rbp), %rax
 1120      FEFFFF
 1121 04c9 BE020000 		movl	$2, %esi
 1121      00
 1122 04ce 4889C7   		movq	%rax, %rdi
 1123              	.LEHB13:
 1124 04d1 E8000000 		call	_ZN9RowVectorC1EjPKdNSt7__cxx1112basic_stringIcSt11char_traitsIcESaIcEEE
 1124      00
 1125              	.LEHE13:
 1126 04d6 488D45B0 		leaq	-80(%rbp), %rax
 1127 04da 4889C7   		movq	%rax, %rdi
 1128 04dd E8000000 		call	_ZNSt7__cxx1112basic_stringIcSt11char_traitsIcESaIcEED1Ev@PLT
 1128      00
 1129 04e2 488D8567 		leaq	-409(%rbp), %rax
 1129      FEFFFF
 1130 04e9 4889C7   		movq	%rax, %rdi
 1131 04ec E8000000 		call	_ZNSaIcED1Ev@PLT
 1131      00
 183:cpp_vector_double_practice.cpp **** 
 184:cpp_vector_double_practice.cpp ****     row.show();
 1132              		.loc 1 184 0 is_stmt 1
 1133 04f1 488D85B0 		leaq	-336(%rbp), %rax
 1133      FEFFFF
 1134 04f8 4889C7   		movq	%rax, %rdi
 1135              	.LEHB14:
 1136 04fb E8000000 		call	_ZN9RowVector4showEv
 1136      00
 185:cpp_vector_double_practice.cpp **** 
 186:cpp_vector_double_practice.cpp ****     std::cout << "RowVector another_row (row);\n";
 1137              		.loc 1 186 0
 1138 0500 488D3500 		leaq	.LC17(%rip), %rsi
 1138      000000
 1139 0507 488D3D00 		leaq	_ZSt4cout(%rip), %rdi
 1139      000000
 1140 050e E8000000 		call	_ZStlsISt11char_traitsIcEERSt13basic_ostreamIcT_ES5_PKc@PLT
 1140      00
 187:cpp_vector_double_practice.cpp **** 	RowVector another_row (row);
 1141              		.loc 1 187 0
 1142 0513 488D95B0 		leaq	-336(%rbp), %rdx
 1142      FEFFFF
 1143 051a 488D85F0 		leaq	-272(%rbp), %rax
 1143      FEFFFF
 1144 0521 4889D6   		movq	%rdx, %rsi
 1145 0524 4889C7   		movq	%rax, %rdi
 1146 0527 E8000000 		call	_ZN9RowVectorC1ERKS_
 1146      00
 1147              	.LEHE14:
 188:cpp_vector_double_practice.cpp ****     row.show();
 1148              		.loc 1 188 0
 1149 052c 488D85B0 		leaq	-336(%rbp), %rax
 1149      FEFFFF
 1150 0533 4889C7   		movq	%rax, %rdi
 1151              	.LEHB15:
 1152 0536 E8000000 		call	_ZN9RowVector4showEv
 1152      00
 189:cpp_vector_double_practice.cpp ****     another_row.show();
 1153              		.loc 1 189 0
 1154 053b 488D85F0 		leaq	-272(%rbp), %rax
 1154      FEFFFF
 1155 0542 4889C7   		movq	%rax, %rdi
 1156 0545 E8000000 		call	_ZN9RowVector4showEv
 1156      00
 190:cpp_vector_double_practice.cpp **** 
 191:cpp_vector_double_practice.cpp ****     std::cout << "another_row[1] += 0.5;\n";
 1157              		.loc 1 191 0
 1158 054a 488D3500 		leaq	.LC18(%rip), %rsi
 1158      000000
 1159 0551 488D3D00 		leaq	_ZSt4cout(%rip), %rdi
 1159      000000
 1160 0558 E8000000 		call	_ZStlsISt11char_traitsIcEERSt13basic_ostreamIcT_ES5_PKc@PLT
 1160      00
 192:cpp_vector_double_practice.cpp ****     another_row[1] += 0.5;
 1161              		.loc 1 192 0
 1162 055d 488D85F0 		leaq	-272(%rbp), %rax
 1162      FEFFFF
 1163 0564 BE010000 		movl	$1, %esi
 1163      00
 1164 0569 4889C7   		movq	%rax, %rdi
 1165 056c E8000000 		call	_ZN9RowVectorixEj
 1165      00
 1166 0571 F20F1008 		movsd	(%rax), %xmm1
 1167 0575 F20F1005 		movsd	.LC19(%rip), %xmm0
 1167      00000000 
 1168 057d F20F58C1 		addsd	%xmm1, %xmm0
 1169 0581 F20F1100 		movsd	%xmm0, (%rax)
 193:cpp_vector_double_practice.cpp ****     row.show();
 1170              		.loc 1 193 0
 1171 0585 488D85B0 		leaq	-336(%rbp), %rax
 1171      FEFFFF
 1172 058c 4889C7   		movq	%rax, %rdi
 1173 058f E8000000 		call	_ZN9RowVector4showEv
 1173      00
 194:cpp_vector_double_practice.cpp ****     another_row.show();
 1174              		.loc 1 194 0
 1175 0594 488D85F0 		leaq	-272(%rbp), %rax
 1175      FEFFFF
 1176 059b 4889C7   		movq	%rax, %rdi
 1177 059e E8000000 		call	_ZN9RowVector4showEv
 1177      00
 195:cpp_vector_double_practice.cpp **** 
 196:cpp_vector_double_practice.cpp ****     std::cout << "RowVector row_plus_another(row + another_row);\n";
 1178              		.loc 1 196 0
 1179 05a3 488D3500 		leaq	.LC20(%rip), %rsi
 1179      000000
 1180 05aa 488D3D00 		leaq	_ZSt4cout(%rip), %rdi
 1180      000000
 1181 05b1 E8000000 		call	_ZStlsISt11char_traitsIcEERSt13basic_ostreamIcT_ES5_PKc@PLT
 1181      00
 197:cpp_vector_double_practice.cpp ****     RowVector row_plus_another(row + another_row);
 1182              		.loc 1 197 0
 1183 05b6 488D8530 		leaq	-208(%rbp), %rax
 1183      FFFFFF
 1184 05bd 488D95F0 		leaq	-272(%rbp), %rdx
 1184      FEFFFF
 1185 05c4 488D8DB0 		leaq	-336(%rbp), %rcx
 1185      FEFFFF
 1186 05cb 4889CE   		movq	%rcx, %rsi
 1187 05ce 4889C7   		movq	%rax, %rdi
 1188 05d1 E8000000 		call	_ZN9RowVectorplERKS_
 1188      00
 1189              	.LEHE15:
 198:cpp_vector_double_practice.cpp ****     row.show();
 1190              		.loc 1 198 0
 1191 05d6 488D85B0 		leaq	-336(%rbp), %rax
 1191      FEFFFF
 1192 05dd 4889C7   		movq	%rax, %rdi
 1193              	.LEHB16:
 1194 05e0 E8000000 		call	_ZN9RowVector4showEv
 1194      00
 199:cpp_vector_double_practice.cpp ****     another_row.show();
 1195              		.loc 1 199 0
 1196 05e5 488D85F0 		leaq	-272(%rbp), %rax
 1196      FEFFFF
 1197 05ec 4889C7   		movq	%rax, %rdi
 1198 05ef E8000000 		call	_ZN9RowVector4showEv
 1198      00
 200:cpp_vector_double_practice.cpp ****     row_plus_another.show();
 1199              		.loc 1 200 0
 1200 05f4 488D8530 		leaq	-208(%rbp), %rax
 1200      FFFFFF
 1201 05fb 4889C7   		movq	%rax, %rdi
 1202 05fe E8000000 		call	_ZN9RowVector4showEv
 1202      00
 201:cpp_vector_double_practice.cpp **** 
 202:cpp_vector_double_practice.cpp ****     std::cout << "RowVector zeros(3);\n";
 1203              		.loc 1 202 0
 1204 0603 488D3500 		leaq	.LC21(%rip), %rsi
 1204      000000
 1205 060a 488D3D00 		leaq	_ZSt4cout(%rip), %rdi
 1205      000000
 1206 0611 E8000000 		call	_ZStlsISt11char_traitsIcEERSt13basic_ostreamIcT_ES5_PKc@PLT
 1206      00
 1207              	.LEHE16:
 203:cpp_vector_double_practice.cpp **** 	RowVector zeros(3u, "zeros");
 1208              		.loc 1 203 0
 1209 0616 488D8567 		leaq	-409(%rbp), %rax
 1209      FEFFFF
 1210 061d 4889C7   		movq	%rax, %rdi
 1211 0620 E8000000 		call	_ZNSaIcEC1Ev@PLT
 1211      00
 1212 0625 488D9567 		leaq	-409(%rbp), %rdx
 1212      FEFFFF
 1213 062c 488D45B0 		leaq	-80(%rbp), %rax
 1214 0630 488D3500 		leaq	.LC22(%rip), %rsi
 1214      000000
 1215 0637 4889C7   		movq	%rax, %rdi
 1216              	.LEHB17:
 1217 063a E8000000 		call	_ZNSt7__cxx1112basic_stringIcSt11char_traitsIcESaIcEEC1EPKcRKS3_@PLT
 1217      00
 1218              	.LEHE17:
 1219              		.loc 1 203 0 is_stmt 0 discriminator 1
 1220 063f 488D55B0 		leaq	-80(%rbp), %rdx
 1221 0643 488D8570 		leaq	-144(%rbp), %rax
 1221      FFFFFF
 1222 064a BE030000 		movl	$3, %esi
 1222      00
 1223 064f 4889C7   		movq	%rax, %rdi
 1224              	.LEHB18:
 1225 0652 E8000000 		call	_ZN9RowVectorC1EjNSt7__cxx1112basic_stringIcSt11char_traitsIcESaIcEEE
 1225      00
 1226              	.LEHE18:
 1227 0657 488D45B0 		leaq	-80(%rbp), %rax
 1228 065b 4889C7   		movq	%rax, %rdi
 1229 065e E8000000 		call	_ZNSt7__cxx1112basic_stringIcSt11char_traitsIcESaIcEED1Ev@PLT
 1229      00
 1230 0663 488D8567 		leaq	-409(%rbp), %rax
 1230      FEFFFF
 1231 066a 4889C7   		movq	%rax, %rdi
 1232 066d E8000000 		call	_ZNSaIcED1Ev@PLT
 1232      00
 204:cpp_vector_double_practice.cpp ****     row.show();
 1233              		.loc 1 204 0 is_stmt 1
 1234 0672 488D85B0 		leaq	-336(%rbp), %rax
 1234      FEFFFF
 1235 0679 4889C7   		movq	%rax, %rdi
 1236              	.LEHB19:
 1237 067c E8000000 		call	_ZN9RowVector4showEv
 1237      00
 205:cpp_vector_double_practice.cpp ****     another_row.show();
 1238              		.loc 1 205 0
 1239 0681 488D85F0 		leaq	-272(%rbp), %rax
 1239      FEFFFF
 1240 0688 4889C7   		movq	%rax, %rdi
 1241 068b E8000000 		call	_ZN9RowVector4showEv
 1241      00
 206:cpp_vector_double_practice.cpp ****     row_plus_another.show();
 1242              		.loc 1 206 0
 1243 0690 488D8530 		leaq	-208(%rbp), %rax
 1243      FFFFFF
 1244 0697 4889C7   		movq	%rax, %rdi
 1245 069a E8000000 		call	_ZN9RowVector4showEv
 1245      00
 207:cpp_vector_double_practice.cpp ****     zeros.show();
 1246              		.loc 1 207 0
 1247 069f 488D8570 		leaq	-144(%rbp), %rax
 1247      FFFFFF
 1248 06a6 4889C7   		movq	%rax, %rdi
 1249 06a9 E8000000 		call	_ZN9RowVector4showEv
 1249      00
 1250              	.LEHE19:
 208:cpp_vector_double_practice.cpp **** 
 209:cpp_vector_double_practice.cpp ****     double t[] = {2.0, -1.0};
 1251              		.loc 1 209 0
 1252 06ae F20F1005 		movsd	.LC14(%rip), %xmm0
 1252      00000000 
 1253 06b6 F20F1185 		movsd	%xmm0, -384(%rbp)
 1253      80FEFFFF 
 1254 06be F20F1005 		movsd	.LC23(%rip), %xmm0
 1254      00000000 
 1255 06c6 F20F1185 		movsd	%xmm0, -376(%rbp)
 1255      88FEFFFF 
 210:cpp_vector_double_practice.cpp **** 	RowVector ortho (2u, t, "ortho");
 1256              		.loc 1 210 0
 1257 06ce 488D8567 		leaq	-409(%rbp), %rax
 1257      FEFFFF
 1258 06d5 4889C7   		movq	%rax, %rdi
 1259 06d8 E8000000 		call	_ZNSaIcEC1Ev@PLT
 1259      00
 1260 06dd 488D9567 		leaq	-409(%rbp), %rdx
 1260      FEFFFF
 1261 06e4 488D8590 		leaq	-368(%rbp), %rax
 1261      FEFFFF
 1262 06eb 488D3500 		leaq	.LC24(%rip), %rsi
 1262      000000
 1263 06f2 4889C7   		movq	%rax, %rdi
 1264              	.LEHB20:
 1265 06f5 E8000000 		call	_ZNSt7__cxx1112basic_stringIcSt11char_traitsIcESaIcEEC1EPKcRKS3_@PLT
 1265      00
 1266              	.LEHE20:
 1267              		.loc 1 210 0 is_stmt 0 discriminator 1
 1268 06fa 488D8D90 		leaq	-368(%rbp), %rcx
 1268      FEFFFF
 1269 0701 488D9580 		leaq	-384(%rbp), %rdx
 1269      FEFFFF
 1270 0708 488D45B0 		leaq	-80(%rbp), %rax
 1271 070c BE020000 		movl	$2, %esi
 1271      00
 1272 0711 4889C7   		movq	%rax, %rdi
 1273              	.LEHB21:
 1274 0714 E8000000 		call	_ZN9RowVectorC1EjPKdNSt7__cxx1112basic_stringIcSt11char_traitsIcESaIcEEE
 1274      00
 1275              	.LEHE21:
 1276 0719 488D8590 		leaq	-368(%rbp), %rax
 1276      FEFFFF
 1277 0720 4889C7   		movq	%rax, %rdi
 1278 0723 E8000000 		call	_ZNSt7__cxx1112basic_stringIcSt11char_traitsIcESaIcEED1Ev@PLT
 1278      00
 1279 0728 488D8567 		leaq	-409(%rbp), %rax
 1279      FEFFFF
 1280 072f 4889C7   		movq	%rax, %rdi
 1281 0732 E8000000 		call	_ZNSaIcED1Ev@PLT
 1281      00
 211:cpp_vector_double_practice.cpp ****     double dot = row * ortho;
 1282              		.loc 1 211 0 is_stmt 1
 1283 0737 488D55B0 		leaq	-80(%rbp), %rdx
 1284 073b 488D85B0 		leaq	-336(%rbp), %rax
 1284      FEFFFF
 1285 0742 4889D6   		movq	%rdx, %rsi
 1286 0745 4889C7   		movq	%rax, %rdi
 1287              	.LEHB22:
 1288 0748 E8000000 		call	_ZN9RowVectormlERKS_
 1288      00
 1289 074d 66480F7E 		movq	%xmm0, %rax
 1289      C0
 1290 0752 48898568 		movq	%rax, -408(%rbp)
 1290      FEFFFF
 212:cpp_vector_double_practice.cpp ****     std::cout << "double dot = row * ortho;\n";
 1291              		.loc 1 212 0
 1292 0759 488D3500 		leaq	.LC25(%rip), %rsi
 1292      000000
 1293 0760 488D3D00 		leaq	_ZSt4cout(%rip), %rdi
 1293      000000
 1294 0767 E8000000 		call	_ZStlsISt11char_traitsIcEERSt13basic_ostreamIcT_ES5_PKc@PLT
 1294      00
 213:cpp_vector_double_practice.cpp ****     std::cout << "dot  = " << dot << '\n';
 1295              		.loc 1 213 0
 1296 076c 488D3500 		leaq	.LC26(%rip), %rsi
 1296      000000
 1297 0773 488D3D00 		leaq	_ZSt4cout(%rip), %rdi
 1297      000000
 1298 077a E8000000 		call	_ZStlsISt11char_traitsIcEERSt13basic_ostreamIcT_ES5_PKc@PLT
 1298      00
 1299 077f 4889C2   		movq	%rax, %rdx
 1300 0782 488B8568 		movq	-408(%rbp), %rax
 1300      FEFFFF
 1301 0789 48898548 		movq	%rax, -440(%rbp)
 1301      FEFFFF
 1302 0790 F20F1085 		movsd	-440(%rbp), %xmm0
 1302      48FEFFFF 
 1303 0798 4889D7   		movq	%rdx, %rdi
 1304 079b E8000000 		call	_ZNSolsEd@PLT
 1304      00
 1305              		.loc 1 213 0 is_stmt 0 discriminator 1
 1306 07a0 BE0A0000 		movl	$10, %esi
 1306      00
 1307 07a5 4889C7   		movq	%rax, %rdi
 1308 07a8 E8000000 		call	_ZStlsISt11char_traitsIcEERSt13basic_ostreamIcT_ES5_c@PLT
 1308      00
 214:cpp_vector_double_practice.cpp **** 
 215:cpp_vector_double_practice.cpp ****     std::cout << "dot = row * row;\n";
 1309              		.loc 1 215 0 is_stmt 1
 1310 07ad 488D3500 		leaq	.LC27(%rip), %rsi
 1310      000000
 1311 07b4 488D3D00 		leaq	_ZSt4cout(%rip), %rdi
 1311      000000
 1312 07bb E8000000 		call	_ZStlsISt11char_traitsIcEERSt13basic_ostreamIcT_ES5_PKc@PLT
 1312      00
 216:cpp_vector_double_practice.cpp ****     dot = row * row;
 1313              		.loc 1 216 0
 1314 07c0 488D95B0 		leaq	-336(%rbp), %rdx
 1314      FEFFFF
 1315 07c7 488D85B0 		leaq	-336(%rbp), %rax
 1315      FEFFFF
 1316 07ce 4889D6   		movq	%rdx, %rsi
 1317 07d1 4889C7   		movq	%rax, %rdi
 1318 07d4 E8000000 		call	_ZN9RowVectormlERKS_
 1318      00
 1319 07d9 66480F7E 		movq	%xmm0, %rax
 1319      C0
 1320 07de 48898568 		movq	%rax, -408(%rbp)
 1320      FEFFFF
 217:cpp_vector_double_practice.cpp ****     std::cout << "dot  = " << dot << '\n';
 1321              		.loc 1 217 0
 1322 07e5 488D3500 		leaq	.LC26(%rip), %rsi
 1322      000000
 1323 07ec 488D3D00 		leaq	_ZSt4cout(%rip), %rdi
 1323      000000
 1324 07f3 E8000000 		call	_ZStlsISt11char_traitsIcEERSt13basic_ostreamIcT_ES5_PKc@PLT
 1324      00
 1325              		.loc 1 217 0 is_stmt 0 discriminator 1
 1326 07f8 4889C2   		movq	%rax, %rdx
 1327 07fb 488B8568 		movq	-408(%rbp), %rax
 1327      FEFFFF
 1328 0802 48898548 		movq	%rax, -440(%rbp)
 1328      FEFFFF
 1329 0809 F20F1085 		movsd	-440(%rbp), %xmm0
 1329      48FEFFFF 
 1330 0811 4889D7   		movq	%rdx, %rdi
 1331 0814 E8000000 		call	_ZNSolsEd@PLT
 1331      00
 1332 0819 BE0A0000 		movl	$10, %esi
 1332      00
 1333 081e 4889C7   		movq	%rax, %rdi
 1334 0821 E8000000 		call	_ZStlsISt11char_traitsIcEERSt13basic_ostreamIcT_ES5_c@PLT
 1334      00
 1335              	.LEHE22:
 210:cpp_vector_double_practice.cpp ****     double dot = row * ortho;
 1336              		.loc 1 210 0 is_stmt 1
 1337 0826 488D45B0 		leaq	-80(%rbp), %rax
 1338 082a 4889C7   		movq	%rax, %rdi
 1339 082d E8000000 		call	_ZN9RowVectorD1Ev
 1339      00
 203:cpp_vector_double_practice.cpp ****     row.show();
 1340              		.loc 1 203 0
 1341 0832 488D8570 		leaq	-144(%rbp), %rax
 1341      FFFFFF
 1342 0839 4889C7   		movq	%rax, %rdi
 1343 083c E8000000 		call	_ZN9RowVectorD1Ev
 1343      00
 197:cpp_vector_double_practice.cpp ****     row.show();
 1344              		.loc 1 197 0
 1345 0841 488D8530 		leaq	-208(%rbp), %rax
 1345      FFFFFF
 1346 0848 4889C7   		movq	%rax, %rdi
 1347 084b E8000000 		call	_ZN9RowVectorD1Ev
 1347      00
 187:cpp_vector_double_practice.cpp ****     row.show();
 1348              		.loc 1 187 0
 1349 0850 488D85F0 		leaq	-272(%rbp), %rax
 1349      FEFFFF
 1350 0857 4889C7   		movq	%rax, %rdi
 1351 085a E8000000 		call	_ZN9RowVectorD1Ev
 1351      00
 182:cpp_vector_double_practice.cpp **** 
 1352              		.loc 1 182 0
 1353 085f 488D85B0 		leaq	-336(%rbp), %rax
 1353      FEFFFF
 1354 0866 4889C7   		movq	%rax, %rdi
 1355 0869 E8000000 		call	_ZN9RowVectorD1Ev
 1355      00
 218:cpp_vector_double_practice.cpp **** 
 219:cpp_vector_double_practice.cpp **** }
 1356              		.loc 1 219 0
 1357 086e B8000000 		movl	$0, %eax
 1357      00
 1358 0873 488B4DE8 		movq	-24(%rbp), %rcx
 1359 0877 6448330C 		xorq	%fs:40, %rcx
 1359      25280000 
 1359      00
 1360 0880 0F84EF00 		je	.L57
 1360      0000
 1361 0886 E9E50000 		jmp	.L69
 1361      00
 1362              	.L59:
 1363 088b 4889C3   		movq	%rax, %rbx
 1364 088e 488D45B0 		leaq	-80(%rbp), %rax
 1365 0892 4889C7   		movq	%rax, %rdi
 1366 0895 E8000000 		call	_ZNSt7__cxx1112basic_stringIcSt11char_traitsIcESaIcEED1Ev@PLT
 1366      00
 1367 089a EB03     		jmp	.L47
 1368              	.L58:
 1369 089c 4889C3   		movq	%rax, %rbx
 1370              	.L47:
 1371 089f 488D8567 		leaq	-409(%rbp), %rax
 1371      FEFFFF
 1372 08a6 4889C7   		movq	%rax, %rdi
 1373 08a9 E8000000 		call	_ZNSaIcED1Ev@PLT
 1373      00
 1374 08ae 4889D8   		movq	%rbx, %rax
 1375 08b1 4889C7   		movq	%rax, %rdi
 1376              	.LEHB23:
 1377 08b4 E8000000 		call	_Unwind_Resume@PLT
 1377      00
 1378              	.L64:
 1379 08b9 4889C3   		movq	%rax, %rbx
 1380 08bc 488D45B0 		leaq	-80(%rbp), %rax
 1381 08c0 4889C7   		movq	%rax, %rdi
 1382 08c3 E8000000 		call	_ZNSt7__cxx1112basic_stringIcSt11char_traitsIcESaIcEED1Ev@PLT
 1382      00
 1383 08c8 EB03     		jmp	.L49
 1384              	.L63:
 1385 08ca 4889C3   		movq	%rax, %rbx
 1386              	.L49:
 1387 08cd 488D8567 		leaq	-409(%rbp), %rax
 1387      FEFFFF
 1388 08d4 4889C7   		movq	%rax, %rdi
 1389 08d7 E8000000 		call	_ZNSaIcED1Ev@PLT
 1389      00
 1390 08dc EB50     		jmp	.L50
 1391              	.L67:
 1392 08de 4889C3   		movq	%rax, %rbx
 1393 08e1 488D8590 		leaq	-368(%rbp), %rax
 1393      FEFFFF
 1394 08e8 4889C7   		movq	%rax, %rdi
 1395 08eb E8000000 		call	_ZNSt7__cxx1112basic_stringIcSt11char_traitsIcESaIcEED1Ev@PLT
 1395      00
 1396 08f0 EB03     		jmp	.L52
 1397              	.L66:
 1398 08f2 4889C3   		movq	%rax, %rbx
 1399              	.L52:
 1400 08f5 488D8567 		leaq	-409(%rbp), %rax
 1400      FEFFFF
 1401 08fc 4889C7   		movq	%rax, %rdi
 1402 08ff E8000000 		call	_ZNSaIcED1Ev@PLT
 1402      00
 1403 0904 EB14     		jmp	.L53
 1404              	.L68:
 1405 0906 4889C3   		movq	%rax, %rbx
 210:cpp_vector_double_practice.cpp ****     double dot = row * ortho;
 1406              		.loc 1 210 0
 1407 0909 488D45B0 		leaq	-80(%rbp), %rax
 1408 090d 4889C7   		movq	%rax, %rdi
 1409 0910 E8000000 		call	_ZN9RowVectorD1Ev
 1409      00
 1410 0915 EB03     		jmp	.L53
 1411              	.L65:
 1412 0917 4889C3   		movq	%rax, %rbx
 1413              	.L53:
 203:cpp_vector_double_practice.cpp ****     row.show();
 1414              		.loc 1 203 0
 1415 091a 488D8570 		leaq	-144(%rbp), %rax
 1415      FFFFFF
 1416 0921 4889C7   		movq	%rax, %rdi
 1417 0924 E8000000 		call	_ZN9RowVectorD1Ev
 1417      00
 1418 0929 EB03     		jmp	.L50
 1419              	.L62:
 1420 092b 4889C3   		movq	%rax, %rbx
 1421              	.L50:
 197:cpp_vector_double_practice.cpp ****     row.show();
 1422              		.loc 1 197 0
 1423 092e 488D8530 		leaq	-208(%rbp), %rax
 1423      FFFFFF
 1424 0935 4889C7   		movq	%rax, %rdi
 1425 0938 E8000000 		call	_ZN9RowVectorD1Ev
 1425      00
 1426 093d EB03     		jmp	.L55
 1427              	.L61:
 1428 093f 4889C3   		movq	%rax, %rbx
 1429              	.L55:
 187:cpp_vector_double_practice.cpp ****     row.show();
 1430              		.loc 1 187 0
 1431 0942 488D85F0 		leaq	-272(%rbp), %rax
 1431      FEFFFF
 1432 0949 4889C7   		movq	%rax, %rdi
 1433 094c E8000000 		call	_ZN9RowVectorD1Ev
 1433      00
 1434 0951 EB03     		jmp	.L56
 1435              	.L60:
 1436 0953 4889C3   		movq	%rax, %rbx
 1437              	.L56:
 182:cpp_vector_double_practice.cpp **** 
 1438              		.loc 1 182 0
 1439 0956 488D85B0 		leaq	-336(%rbp), %rax
 1439      FEFFFF
 1440 095d 4889C7   		movq	%rax, %rdi
 1441 0960 E8000000 		call	_ZN9RowVectorD1Ev
 1441      00
 1442 0965 4889D8   		movq	%rbx, %rax
 1443 0968 4889C7   		movq	%rax, %rdi
 1444 096b E8000000 		call	_Unwind_Resume@PLT
 1444      00
 1445              	.LEHE23:
 1446              	.L69:
 1447              		.loc 1 219 0
 1448 0970 E8000000 		call	__stack_chk_fail@PLT
 1448      00
 1449              	.L57:
 1450 0975 4881C4B8 		addq	$440, %rsp
 1450      010000
 1451 097c 5B       		popq	%rbx
 1452 097d 5D       		popq	%rbp
 1453              		.cfi_def_cfa 7, 8
 1454 097e C3       		ret
 1455              		.cfi_endproc
 1456              	.LFE1859:
 1457              		.section	.gcc_except_table
 1458              	.LLSDA1859:
 1459 001e FF       		.byte	0xff
 1460 001f FF       		.byte	0xff
 1461 0020 01       		.byte	0x1
 1462 0021 4D       		.uleb128 .LLSDACSE1859-.LLSDACSB1859
 1463              	.LLSDACSB1859:
 1464 0022 56       		.uleb128 .LEHB11-.LFB1859
 1465 0023 05       		.uleb128 .LEHE11-.LEHB11
 1466 0024 00       		.uleb128 0
 1467 0025 00       		.uleb128 0
 1468 0026 7F       		.uleb128 .LEHB12-.LFB1859
 1469 0027 05       		.uleb128 .LEHE12-.LEHB12
 1470 0028 E908     		.uleb128 .L58-.LFB1859
 1471 002a 00       		.uleb128 0
 1472 002b 9E01     		.uleb128 .LEHB13-.LFB1859
 1473 002d 05       		.uleb128 .LEHE13-.LEHB13
 1474 002e D808     		.uleb128 .L59-.LFB1859
 1475 0030 00       		.uleb128 0
 1476 0031 C801     		.uleb128 .LEHB14-.LFB1859
 1477 0033 31       		.uleb128 .LEHE14-.LEHB14
 1478 0034 A00A     		.uleb128 .L60-.LFB1859
 1479 0036 00       		.uleb128 0
 1480 0037 8302     		.uleb128 .LEHB15-.LFB1859
 1481 0039 A001     		.uleb128 .LEHE15-.LEHB15
 1482 003b 8C0A     		.uleb128 .L61-.LFB1859
 1483 003d 00       		.uleb128 0
 1484 003e AD03     		.uleb128 .LEHB16-.LFB1859
 1485 0040 36       		.uleb128 .LEHE16-.LEHB16
 1486 0041 F809     		.uleb128 .L62-.LFB1859
 1487 0043 00       		.uleb128 0
 1488 0044 8704     		.uleb128 .LEHB17-.LFB1859
 1489 0046 05       		.uleb128 .LEHE17-.LEHB17
 1490 0047 9709     		.uleb128 .L63-.LFB1859
 1491 0049 00       		.uleb128 0
 1492 004a 9F04     		.uleb128 .LEHB18-.LFB1859
 1493 004c 05       		.uleb128 .LEHE18-.LEHB18
 1494 004d 8609     		.uleb128 .L64-.LFB1859
 1495 004f 00       		.uleb128 0
 1496 0050 C904     		.uleb128 .LEHB19-.LFB1859
 1497 0052 32       		.uleb128 .LEHE19-.LEHB19
 1498 0053 E409     		.uleb128 .L65-.LFB1859
 1499 0055 00       		.uleb128 0
 1500 0056 C205     		.uleb128 .LEHB20-.LFB1859
 1501 0058 05       		.uleb128 .LEHE20-.LEHB20
 1502 0059 BF09     		.uleb128 .L66-.LFB1859
 1503 005b 00       		.uleb128 0
 1504 005c E105     		.uleb128 .LEHB21-.LFB1859
 1505 005e 05       		.uleb128 .LEHE21-.LEHB21
 1506 005f AB09     		.uleb128 .L67-.LFB1859
 1507 0061 00       		.uleb128 0
 1508 0062 9506     		.uleb128 .LEHB22-.LFB1859
 1509 0064 DE01     		.uleb128 .LEHE22-.LEHB22
 1510 0066 D309     		.uleb128 .L68-.LFB1859
 1511 0068 00       		.uleb128 0
 1512 0069 8109     		.uleb128 .LEHB23-.LFB1859
 1513 006b BC01     		.uleb128 .LEHE23-.LEHB23
 1514 006d 00       		.uleb128 0
 1515 006e 00       		.uleb128 0
 1516              	.LLSDACSE1859:
 1517              		.text
 1519              		.section	.text._ZNSt6vectorIdSaIdEEC2Ev,"axG",@progbits,_ZNSt6vectorIdSaIdEEC5Ev,comdat
 1520              		.align 2
 1521              		.weak	_ZNSt6vectorIdSaIdEEC2Ev
 1523              	_ZNSt6vectorIdSaIdEEC2Ev:
 1524              	.LFB2098:
 1525              		.file 2 "/usr/include/c++/7/bits/stl_vector.h"
   1:/usr/include/c++/7/bits/stl_vector.h **** // Vector implementation -*- C++ -*-
   2:/usr/include/c++/7/bits/stl_vector.h **** 
   3:/usr/include/c++/7/bits/stl_vector.h **** // Copyright (C) 2001-2017 Free Software Foundation, Inc.
   4:/usr/include/c++/7/bits/stl_vector.h **** //
   5:/usr/include/c++/7/bits/stl_vector.h **** // This file is part of the GNU ISO C++ Library.  This library is free
   6:/usr/include/c++/7/bits/stl_vector.h **** // software; you can redistribute it and/or modify it under the
   7:/usr/include/c++/7/bits/stl_vector.h **** // terms of the GNU General Public License as published by the
   8:/usr/include/c++/7/bits/stl_vector.h **** // Free Software Foundation; either version 3, or (at your option)
   9:/usr/include/c++/7/bits/stl_vector.h **** // any later version.
  10:/usr/include/c++/7/bits/stl_vector.h **** 
  11:/usr/include/c++/7/bits/stl_vector.h **** // This library is distributed in the hope that it will be useful,
  12:/usr/include/c++/7/bits/stl_vector.h **** // but WITHOUT ANY WARRANTY; without even the implied warranty of
  13:/usr/include/c++/7/bits/stl_vector.h **** // MERCHANTABILITY or FITNESS FOR A PARTICULAR PURPOSE.  See the
  14:/usr/include/c++/7/bits/stl_vector.h **** // GNU General Public License for more details.
  15:/usr/include/c++/7/bits/stl_vector.h **** 
  16:/usr/include/c++/7/bits/stl_vector.h **** // Under Section 7 of GPL version 3, you are granted additional
  17:/usr/include/c++/7/bits/stl_vector.h **** // permissions described in the GCC Runtime Library Exception, version
  18:/usr/include/c++/7/bits/stl_vector.h **** // 3.1, as published by the Free Software Foundation.
  19:/usr/include/c++/7/bits/stl_vector.h **** 
  20:/usr/include/c++/7/bits/stl_vector.h **** // You should have received a copy of the GNU General Public License and
  21:/usr/include/c++/7/bits/stl_vector.h **** // a copy of the GCC Runtime Library Exception along with this program;
  22:/usr/include/c++/7/bits/stl_vector.h **** // see the files COPYING3 and COPYING.RUNTIME respectively.  If not, see
  23:/usr/include/c++/7/bits/stl_vector.h **** // <http://www.gnu.org/licenses/>.
  24:/usr/include/c++/7/bits/stl_vector.h **** 
  25:/usr/include/c++/7/bits/stl_vector.h **** /*
  26:/usr/include/c++/7/bits/stl_vector.h ****  *
  27:/usr/include/c++/7/bits/stl_vector.h ****  * Copyright (c) 1994
  28:/usr/include/c++/7/bits/stl_vector.h ****  * Hewlett-Packard Company
  29:/usr/include/c++/7/bits/stl_vector.h ****  *
  30:/usr/include/c++/7/bits/stl_vector.h ****  * Permission to use, copy, modify, distribute and sell this software
  31:/usr/include/c++/7/bits/stl_vector.h ****  * and its documentation for any purpose is hereby granted without fee,
  32:/usr/include/c++/7/bits/stl_vector.h ****  * provided that the above copyright notice appear in all copies and
  33:/usr/include/c++/7/bits/stl_vector.h ****  * that both that copyright notice and this permission notice appear
  34:/usr/include/c++/7/bits/stl_vector.h ****  * in supporting documentation.  Hewlett-Packard Company makes no
  35:/usr/include/c++/7/bits/stl_vector.h ****  * representations about the suitability of this software for any
  36:/usr/include/c++/7/bits/stl_vector.h ****  * purpose.  It is provided "as is" without express or implied warranty.
  37:/usr/include/c++/7/bits/stl_vector.h ****  *
  38:/usr/include/c++/7/bits/stl_vector.h ****  *
  39:/usr/include/c++/7/bits/stl_vector.h ****  * Copyright (c) 1996
  40:/usr/include/c++/7/bits/stl_vector.h ****  * Silicon Graphics Computer Systems, Inc.
  41:/usr/include/c++/7/bits/stl_vector.h ****  *
  42:/usr/include/c++/7/bits/stl_vector.h ****  * Permission to use, copy, modify, distribute and sell this software
  43:/usr/include/c++/7/bits/stl_vector.h ****  * and its documentation for any purpose is hereby granted without fee,
  44:/usr/include/c++/7/bits/stl_vector.h ****  * provided that the above copyright notice appear in all copies and
  45:/usr/include/c++/7/bits/stl_vector.h ****  * that both that copyright notice and this permission notice appear
  46:/usr/include/c++/7/bits/stl_vector.h ****  * in supporting documentation.  Silicon Graphics makes no
  47:/usr/include/c++/7/bits/stl_vector.h ****  * representations about the suitability of this  software for any
  48:/usr/include/c++/7/bits/stl_vector.h ****  * purpose.  It is provided "as is" without express or implied warranty.
  49:/usr/include/c++/7/bits/stl_vector.h ****  */
  50:/usr/include/c++/7/bits/stl_vector.h **** 
  51:/usr/include/c++/7/bits/stl_vector.h **** /** @file bits/stl_vector.h
  52:/usr/include/c++/7/bits/stl_vector.h ****  *  This is an internal header file, included by other library headers.
  53:/usr/include/c++/7/bits/stl_vector.h ****  *  Do not attempt to use it directly. @headername{vector}
  54:/usr/include/c++/7/bits/stl_vector.h ****  */
  55:/usr/include/c++/7/bits/stl_vector.h **** 
  56:/usr/include/c++/7/bits/stl_vector.h **** #ifndef _STL_VECTOR_H
  57:/usr/include/c++/7/bits/stl_vector.h **** #define _STL_VECTOR_H 1
  58:/usr/include/c++/7/bits/stl_vector.h **** 
  59:/usr/include/c++/7/bits/stl_vector.h **** #include <bits/stl_iterator_base_funcs.h>
  60:/usr/include/c++/7/bits/stl_vector.h **** #include <bits/functexcept.h>
  61:/usr/include/c++/7/bits/stl_vector.h **** #include <bits/concept_check.h>
  62:/usr/include/c++/7/bits/stl_vector.h **** #if __cplusplus >= 201103L
  63:/usr/include/c++/7/bits/stl_vector.h **** #include <initializer_list>
  64:/usr/include/c++/7/bits/stl_vector.h **** #endif
  65:/usr/include/c++/7/bits/stl_vector.h **** 
  66:/usr/include/c++/7/bits/stl_vector.h **** #include <debug/assertions.h>
  67:/usr/include/c++/7/bits/stl_vector.h **** 
  68:/usr/include/c++/7/bits/stl_vector.h **** namespace std _GLIBCXX_VISIBILITY(default)
  69:/usr/include/c++/7/bits/stl_vector.h **** {
  70:/usr/include/c++/7/bits/stl_vector.h **** _GLIBCXX_BEGIN_NAMESPACE_CONTAINER
  71:/usr/include/c++/7/bits/stl_vector.h **** 
  72:/usr/include/c++/7/bits/stl_vector.h ****   /// See bits/stl_deque.h's _Deque_base for an explanation.
  73:/usr/include/c++/7/bits/stl_vector.h ****   template<typename _Tp, typename _Alloc>
  74:/usr/include/c++/7/bits/stl_vector.h ****     struct _Vector_base
  75:/usr/include/c++/7/bits/stl_vector.h ****     {
  76:/usr/include/c++/7/bits/stl_vector.h ****       typedef typename __gnu_cxx::__alloc_traits<_Alloc>::template
  77:/usr/include/c++/7/bits/stl_vector.h **** 	rebind<_Tp>::other _Tp_alloc_type;
  78:/usr/include/c++/7/bits/stl_vector.h ****       typedef typename __gnu_cxx::__alloc_traits<_Tp_alloc_type>::pointer
  79:/usr/include/c++/7/bits/stl_vector.h ****        	pointer;
  80:/usr/include/c++/7/bits/stl_vector.h **** 
  81:/usr/include/c++/7/bits/stl_vector.h ****       struct _Vector_impl
  82:/usr/include/c++/7/bits/stl_vector.h ****       : public _Tp_alloc_type
  83:/usr/include/c++/7/bits/stl_vector.h ****       {
  84:/usr/include/c++/7/bits/stl_vector.h **** 	pointer _M_start;
  85:/usr/include/c++/7/bits/stl_vector.h **** 	pointer _M_finish;
  86:/usr/include/c++/7/bits/stl_vector.h **** 	pointer _M_end_of_storage;
  87:/usr/include/c++/7/bits/stl_vector.h **** 
  88:/usr/include/c++/7/bits/stl_vector.h **** 	_Vector_impl()
  89:/usr/include/c++/7/bits/stl_vector.h **** 	: _Tp_alloc_type(), _M_start(), _M_finish(), _M_end_of_storage()
  90:/usr/include/c++/7/bits/stl_vector.h **** 	{ }
  91:/usr/include/c++/7/bits/stl_vector.h **** 
  92:/usr/include/c++/7/bits/stl_vector.h **** 	_Vector_impl(_Tp_alloc_type const& __a) _GLIBCXX_NOEXCEPT
  93:/usr/include/c++/7/bits/stl_vector.h **** 	: _Tp_alloc_type(__a), _M_start(), _M_finish(), _M_end_of_storage()
  94:/usr/include/c++/7/bits/stl_vector.h **** 	{ }
  95:/usr/include/c++/7/bits/stl_vector.h **** 
  96:/usr/include/c++/7/bits/stl_vector.h **** #if __cplusplus >= 201103L
  97:/usr/include/c++/7/bits/stl_vector.h **** 	_Vector_impl(_Tp_alloc_type&& __a) noexcept
  98:/usr/include/c++/7/bits/stl_vector.h **** 	: _Tp_alloc_type(std::move(__a)),
  99:/usr/include/c++/7/bits/stl_vector.h **** 	  _M_start(), _M_finish(), _M_end_of_storage()
 100:/usr/include/c++/7/bits/stl_vector.h **** 	{ }
 101:/usr/include/c++/7/bits/stl_vector.h **** #endif
 102:/usr/include/c++/7/bits/stl_vector.h **** 
 103:/usr/include/c++/7/bits/stl_vector.h **** 	void _M_swap_data(_Vector_impl& __x) _GLIBCXX_NOEXCEPT
 104:/usr/include/c++/7/bits/stl_vector.h **** 	{
 105:/usr/include/c++/7/bits/stl_vector.h **** 	  std::swap(_M_start, __x._M_start);
 106:/usr/include/c++/7/bits/stl_vector.h **** 	  std::swap(_M_finish, __x._M_finish);
 107:/usr/include/c++/7/bits/stl_vector.h **** 	  std::swap(_M_end_of_storage, __x._M_end_of_storage);
 108:/usr/include/c++/7/bits/stl_vector.h **** 	}
 109:/usr/include/c++/7/bits/stl_vector.h ****       };
 110:/usr/include/c++/7/bits/stl_vector.h **** 
 111:/usr/include/c++/7/bits/stl_vector.h ****     public:
 112:/usr/include/c++/7/bits/stl_vector.h ****       typedef _Alloc allocator_type;
 113:/usr/include/c++/7/bits/stl_vector.h **** 
 114:/usr/include/c++/7/bits/stl_vector.h ****       _Tp_alloc_type&
 115:/usr/include/c++/7/bits/stl_vector.h ****       _M_get_Tp_allocator() _GLIBCXX_NOEXCEPT
 116:/usr/include/c++/7/bits/stl_vector.h ****       { return *static_cast<_Tp_alloc_type*>(&this->_M_impl); }
 117:/usr/include/c++/7/bits/stl_vector.h **** 
 118:/usr/include/c++/7/bits/stl_vector.h ****       const _Tp_alloc_type&
 119:/usr/include/c++/7/bits/stl_vector.h ****       _M_get_Tp_allocator() const _GLIBCXX_NOEXCEPT
 120:/usr/include/c++/7/bits/stl_vector.h ****       { return *static_cast<const _Tp_alloc_type*>(&this->_M_impl); }
 121:/usr/include/c++/7/bits/stl_vector.h **** 
 122:/usr/include/c++/7/bits/stl_vector.h ****       allocator_type
 123:/usr/include/c++/7/bits/stl_vector.h ****       get_allocator() const _GLIBCXX_NOEXCEPT
 124:/usr/include/c++/7/bits/stl_vector.h ****       { return allocator_type(_M_get_Tp_allocator()); }
 125:/usr/include/c++/7/bits/stl_vector.h **** 
 126:/usr/include/c++/7/bits/stl_vector.h ****       _Vector_base()
 127:/usr/include/c++/7/bits/stl_vector.h ****       : _M_impl() { }
 128:/usr/include/c++/7/bits/stl_vector.h **** 
 129:/usr/include/c++/7/bits/stl_vector.h ****       _Vector_base(const allocator_type& __a) _GLIBCXX_NOEXCEPT
 130:/usr/include/c++/7/bits/stl_vector.h ****       : _M_impl(__a) { }
 131:/usr/include/c++/7/bits/stl_vector.h **** 
 132:/usr/include/c++/7/bits/stl_vector.h ****       _Vector_base(size_t __n)
 133:/usr/include/c++/7/bits/stl_vector.h ****       : _M_impl()
 134:/usr/include/c++/7/bits/stl_vector.h ****       { _M_create_storage(__n); }
 135:/usr/include/c++/7/bits/stl_vector.h **** 
 136:/usr/include/c++/7/bits/stl_vector.h ****       _Vector_base(size_t __n, const allocator_type& __a)
 137:/usr/include/c++/7/bits/stl_vector.h ****       : _M_impl(__a)
 138:/usr/include/c++/7/bits/stl_vector.h ****       { _M_create_storage(__n); }
 139:/usr/include/c++/7/bits/stl_vector.h **** 
 140:/usr/include/c++/7/bits/stl_vector.h **** #if __cplusplus >= 201103L
 141:/usr/include/c++/7/bits/stl_vector.h ****       _Vector_base(_Tp_alloc_type&& __a) noexcept
 142:/usr/include/c++/7/bits/stl_vector.h ****       : _M_impl(std::move(__a)) { }
 143:/usr/include/c++/7/bits/stl_vector.h **** 
 144:/usr/include/c++/7/bits/stl_vector.h ****       _Vector_base(_Vector_base&& __x) noexcept
 145:/usr/include/c++/7/bits/stl_vector.h ****       : _M_impl(std::move(__x._M_get_Tp_allocator()))
 146:/usr/include/c++/7/bits/stl_vector.h ****       { this->_M_impl._M_swap_data(__x._M_impl); }
 147:/usr/include/c++/7/bits/stl_vector.h **** 
 148:/usr/include/c++/7/bits/stl_vector.h ****       _Vector_base(_Vector_base&& __x, const allocator_type& __a)
 149:/usr/include/c++/7/bits/stl_vector.h ****       : _M_impl(__a)
 150:/usr/include/c++/7/bits/stl_vector.h ****       {
 151:/usr/include/c++/7/bits/stl_vector.h **** 	if (__x.get_allocator() == __a)
 152:/usr/include/c++/7/bits/stl_vector.h **** 	  this->_M_impl._M_swap_data(__x._M_impl);
 153:/usr/include/c++/7/bits/stl_vector.h **** 	else
 154:/usr/include/c++/7/bits/stl_vector.h **** 	  {
 155:/usr/include/c++/7/bits/stl_vector.h **** 	    size_t __n = __x._M_impl._M_finish - __x._M_impl._M_start;
 156:/usr/include/c++/7/bits/stl_vector.h **** 	    _M_create_storage(__n);
 157:/usr/include/c++/7/bits/stl_vector.h **** 	  }
 158:/usr/include/c++/7/bits/stl_vector.h ****       }
 159:/usr/include/c++/7/bits/stl_vector.h **** #endif
 160:/usr/include/c++/7/bits/stl_vector.h **** 
 161:/usr/include/c++/7/bits/stl_vector.h ****       ~_Vector_base() _GLIBCXX_NOEXCEPT
 162:/usr/include/c++/7/bits/stl_vector.h ****       { _M_deallocate(this->_M_impl._M_start, this->_M_impl._M_end_of_storage
 163:/usr/include/c++/7/bits/stl_vector.h **** 		      - this->_M_impl._M_start); }
 164:/usr/include/c++/7/bits/stl_vector.h **** 
 165:/usr/include/c++/7/bits/stl_vector.h ****     public:
 166:/usr/include/c++/7/bits/stl_vector.h ****       _Vector_impl _M_impl;
 167:/usr/include/c++/7/bits/stl_vector.h **** 
 168:/usr/include/c++/7/bits/stl_vector.h ****       pointer
 169:/usr/include/c++/7/bits/stl_vector.h ****       _M_allocate(size_t __n)
 170:/usr/include/c++/7/bits/stl_vector.h ****       {
 171:/usr/include/c++/7/bits/stl_vector.h **** 	typedef __gnu_cxx::__alloc_traits<_Tp_alloc_type> _Tr;
 172:/usr/include/c++/7/bits/stl_vector.h **** 	return __n != 0 ? _Tr::allocate(_M_impl, __n) : pointer();
 173:/usr/include/c++/7/bits/stl_vector.h ****       }
 174:/usr/include/c++/7/bits/stl_vector.h **** 
 175:/usr/include/c++/7/bits/stl_vector.h ****       void
 176:/usr/include/c++/7/bits/stl_vector.h ****       _M_deallocate(pointer __p, size_t __n)
 177:/usr/include/c++/7/bits/stl_vector.h ****       {
 178:/usr/include/c++/7/bits/stl_vector.h **** 	typedef __gnu_cxx::__alloc_traits<_Tp_alloc_type> _Tr;
 179:/usr/include/c++/7/bits/stl_vector.h **** 	if (__p)
 180:/usr/include/c++/7/bits/stl_vector.h **** 	  _Tr::deallocate(_M_impl, __p, __n);
 181:/usr/include/c++/7/bits/stl_vector.h ****       }
 182:/usr/include/c++/7/bits/stl_vector.h **** 
 183:/usr/include/c++/7/bits/stl_vector.h ****     private:
 184:/usr/include/c++/7/bits/stl_vector.h ****       void
 185:/usr/include/c++/7/bits/stl_vector.h ****       _M_create_storage(size_t __n)
 186:/usr/include/c++/7/bits/stl_vector.h ****       {
 187:/usr/include/c++/7/bits/stl_vector.h **** 	this->_M_impl._M_start = this->_M_allocate(__n);
 188:/usr/include/c++/7/bits/stl_vector.h **** 	this->_M_impl._M_finish = this->_M_impl._M_start;
 189:/usr/include/c++/7/bits/stl_vector.h **** 	this->_M_impl._M_end_of_storage = this->_M_impl._M_start + __n;
 190:/usr/include/c++/7/bits/stl_vector.h ****       }
 191:/usr/include/c++/7/bits/stl_vector.h ****     };
 192:/usr/include/c++/7/bits/stl_vector.h **** 
 193:/usr/include/c++/7/bits/stl_vector.h **** 
 194:/usr/include/c++/7/bits/stl_vector.h ****   /**
 195:/usr/include/c++/7/bits/stl_vector.h ****    *  @brief A standard container which offers fixed time access to
 196:/usr/include/c++/7/bits/stl_vector.h ****    *  individual elements in any order.
 197:/usr/include/c++/7/bits/stl_vector.h ****    *
 198:/usr/include/c++/7/bits/stl_vector.h ****    *  @ingroup sequences
 199:/usr/include/c++/7/bits/stl_vector.h ****    *
 200:/usr/include/c++/7/bits/stl_vector.h ****    *  @tparam _Tp  Type of element.
 201:/usr/include/c++/7/bits/stl_vector.h ****    *  @tparam _Alloc  Allocator type, defaults to allocator<_Tp>.
 202:/usr/include/c++/7/bits/stl_vector.h ****    *
 203:/usr/include/c++/7/bits/stl_vector.h ****    *  Meets the requirements of a <a href="tables.html#65">container</a>, a
 204:/usr/include/c++/7/bits/stl_vector.h ****    *  <a href="tables.html#66">reversible container</a>, and a
 205:/usr/include/c++/7/bits/stl_vector.h ****    *  <a href="tables.html#67">sequence</a>, including the
 206:/usr/include/c++/7/bits/stl_vector.h ****    *  <a href="tables.html#68">optional sequence requirements</a> with the
 207:/usr/include/c++/7/bits/stl_vector.h ****    *  %exception of @c push_front and @c pop_front.
 208:/usr/include/c++/7/bits/stl_vector.h ****    *
 209:/usr/include/c++/7/bits/stl_vector.h ****    *  In some terminology a %vector can be described as a dynamic
 210:/usr/include/c++/7/bits/stl_vector.h ****    *  C-style array, it offers fast and efficient access to individual
 211:/usr/include/c++/7/bits/stl_vector.h ****    *  elements in any order and saves the user from worrying about
 212:/usr/include/c++/7/bits/stl_vector.h ****    *  memory and size allocation.  Subscripting ( @c [] ) access is
 213:/usr/include/c++/7/bits/stl_vector.h ****    *  also provided as with C-style arrays.
 214:/usr/include/c++/7/bits/stl_vector.h ****   */
 215:/usr/include/c++/7/bits/stl_vector.h ****   template<typename _Tp, typename _Alloc = std::allocator<_Tp> >
 216:/usr/include/c++/7/bits/stl_vector.h ****     class vector : protected _Vector_base<_Tp, _Alloc>
 217:/usr/include/c++/7/bits/stl_vector.h ****     {
 218:/usr/include/c++/7/bits/stl_vector.h **** #ifdef _GLIBCXX_CONCEPT_CHECKS
 219:/usr/include/c++/7/bits/stl_vector.h ****       // Concept requirements.
 220:/usr/include/c++/7/bits/stl_vector.h ****       typedef typename _Alloc::value_type		_Alloc_value_type;
 221:/usr/include/c++/7/bits/stl_vector.h **** # if __cplusplus < 201103L
 222:/usr/include/c++/7/bits/stl_vector.h ****       __glibcxx_class_requires(_Tp, _SGIAssignableConcept)
 223:/usr/include/c++/7/bits/stl_vector.h **** # endif
 224:/usr/include/c++/7/bits/stl_vector.h ****       __glibcxx_class_requires2(_Tp, _Alloc_value_type, _SameTypeConcept)
 225:/usr/include/c++/7/bits/stl_vector.h **** #endif
 226:/usr/include/c++/7/bits/stl_vector.h **** 
 227:/usr/include/c++/7/bits/stl_vector.h ****       typedef _Vector_base<_Tp, _Alloc>			_Base;
 228:/usr/include/c++/7/bits/stl_vector.h ****       typedef typename _Base::_Tp_alloc_type		_Tp_alloc_type;
 229:/usr/include/c++/7/bits/stl_vector.h ****       typedef __gnu_cxx::__alloc_traits<_Tp_alloc_type>	_Alloc_traits;
 230:/usr/include/c++/7/bits/stl_vector.h **** 
 231:/usr/include/c++/7/bits/stl_vector.h ****     public:
 232:/usr/include/c++/7/bits/stl_vector.h ****       typedef _Tp					value_type;
 233:/usr/include/c++/7/bits/stl_vector.h ****       typedef typename _Base::pointer			pointer;
 234:/usr/include/c++/7/bits/stl_vector.h ****       typedef typename _Alloc_traits::const_pointer	const_pointer;
 235:/usr/include/c++/7/bits/stl_vector.h ****       typedef typename _Alloc_traits::reference		reference;
 236:/usr/include/c++/7/bits/stl_vector.h ****       typedef typename _Alloc_traits::const_reference	const_reference;
 237:/usr/include/c++/7/bits/stl_vector.h ****       typedef __gnu_cxx::__normal_iterator<pointer, vector> iterator;
 238:/usr/include/c++/7/bits/stl_vector.h ****       typedef __gnu_cxx::__normal_iterator<const_pointer, vector>
 239:/usr/include/c++/7/bits/stl_vector.h ****       const_iterator;
 240:/usr/include/c++/7/bits/stl_vector.h ****       typedef std::reverse_iterator<const_iterator>	const_reverse_iterator;
 241:/usr/include/c++/7/bits/stl_vector.h ****       typedef std::reverse_iterator<iterator>		reverse_iterator;
 242:/usr/include/c++/7/bits/stl_vector.h ****       typedef size_t					size_type;
 243:/usr/include/c++/7/bits/stl_vector.h ****       typedef ptrdiff_t					difference_type;
 244:/usr/include/c++/7/bits/stl_vector.h ****       typedef _Alloc					allocator_type;
 245:/usr/include/c++/7/bits/stl_vector.h **** 
 246:/usr/include/c++/7/bits/stl_vector.h ****     protected:
 247:/usr/include/c++/7/bits/stl_vector.h ****       using _Base::_M_allocate;
 248:/usr/include/c++/7/bits/stl_vector.h ****       using _Base::_M_deallocate;
 249:/usr/include/c++/7/bits/stl_vector.h ****       using _Base::_M_impl;
 250:/usr/include/c++/7/bits/stl_vector.h ****       using _Base::_M_get_Tp_allocator;
 251:/usr/include/c++/7/bits/stl_vector.h **** 
 252:/usr/include/c++/7/bits/stl_vector.h ****     public:
 253:/usr/include/c++/7/bits/stl_vector.h ****       // [23.2.4.1] construct/copy/destroy
 254:/usr/include/c++/7/bits/stl_vector.h ****       // (assign() and get_allocator() are also listed in this section)
 255:/usr/include/c++/7/bits/stl_vector.h **** 
 256:/usr/include/c++/7/bits/stl_vector.h ****       /**
 257:/usr/include/c++/7/bits/stl_vector.h ****        *  @brief  Creates a %vector with no elements.
 258:/usr/include/c++/7/bits/stl_vector.h ****        */
 259:/usr/include/c++/7/bits/stl_vector.h ****       vector()
 1526              		.loc 2 259 0
 1527              		.cfi_startproc
 1528              		.cfi_personality 0x9b,DW.ref.__gxx_personality_v0
 1529              		.cfi_lsda 0x1b,.LLSDA2098
 1530 0000 55       		pushq	%rbp
 1531              		.cfi_def_cfa_offset 16
 1532              		.cfi_offset 6, -16
 1533 0001 4889E5   		movq	%rsp, %rbp
 1534              		.cfi_def_cfa_register 6
 1535 0004 4883EC10 		subq	$16, %rsp
 1536 0008 48897DF8 		movq	%rdi, -8(%rbp)
 1537              	.LBB20:
 260:/usr/include/c++/7/bits/stl_vector.h **** #if __cplusplus >= 201103L
 261:/usr/include/c++/7/bits/stl_vector.h ****       noexcept(is_nothrow_default_constructible<_Alloc>::value)
 262:/usr/include/c++/7/bits/stl_vector.h **** #endif
 263:/usr/include/c++/7/bits/stl_vector.h ****       : _Base() { }
 1538              		.loc 2 263 0
 1539 000c 488B45F8 		movq	-8(%rbp), %rax
 1540 0010 4889C7   		movq	%rax, %rdi
 1541 0013 E8000000 		call	_ZNSt12_Vector_baseIdSaIdEEC2Ev
 1541      00
 1542              	.LBE20:
 1543 0018 90       		nop
 1544 0019 C9       		leave
 1545              		.cfi_def_cfa 7, 8
 1546 001a C3       		ret
 1547              		.cfi_endproc
 1548              	.LFE2098:
 1549              		.section	.gcc_except_table
 1550              	.LLSDA2098:
 1551 006f FF       		.byte	0xff
 1552 0070 FF       		.byte	0xff
 1553 0071 01       		.byte	0x1
 1554 0072 00       		.uleb128 .LLSDACSE2098-.LLSDACSB2098
 1555              	.LLSDACSB2098:
 1556              	.LLSDACSE2098:
 1557              		.section	.text._ZNSt6vectorIdSaIdEEC2Ev,"axG",@progbits,_ZNSt6vectorIdSaIdEEC5Ev,comdat
 1559              		.weak	_ZNSt6vectorIdSaIdEEC1Ev
 1560              		.set	_ZNSt6vectorIdSaIdEEC1Ev,_ZNSt6vectorIdSaIdEEC2Ev
 1561              		.section	.text._ZNSt6vectorIdSaIdEED2Ev,"axG",@progbits,_ZNSt6vectorIdSaIdEED5Ev,comdat
 1562              		.align 2
 1563              		.weak	_ZNSt6vectorIdSaIdEED2Ev
 1565              	_ZNSt6vectorIdSaIdEED2Ev:
 1566              	.LFB2101:
 264:/usr/include/c++/7/bits/stl_vector.h **** 
 265:/usr/include/c++/7/bits/stl_vector.h ****       /**
 266:/usr/include/c++/7/bits/stl_vector.h ****        *  @brief  Creates a %vector with no elements.
 267:/usr/include/c++/7/bits/stl_vector.h ****        *  @param  __a  An allocator object.
 268:/usr/include/c++/7/bits/stl_vector.h ****        */
 269:/usr/include/c++/7/bits/stl_vector.h ****       explicit
 270:/usr/include/c++/7/bits/stl_vector.h ****       vector(const allocator_type& __a) _GLIBCXX_NOEXCEPT
 271:/usr/include/c++/7/bits/stl_vector.h ****       : _Base(__a) { }
 272:/usr/include/c++/7/bits/stl_vector.h **** 
 273:/usr/include/c++/7/bits/stl_vector.h **** #if __cplusplus >= 201103L
 274:/usr/include/c++/7/bits/stl_vector.h ****       /**
 275:/usr/include/c++/7/bits/stl_vector.h ****        *  @brief  Creates a %vector with default constructed elements.
 276:/usr/include/c++/7/bits/stl_vector.h ****        *  @param  __n  The number of elements to initially create.
 277:/usr/include/c++/7/bits/stl_vector.h ****        *  @param  __a  An allocator.
 278:/usr/include/c++/7/bits/stl_vector.h ****        *
 279:/usr/include/c++/7/bits/stl_vector.h ****        *  This constructor fills the %vector with @a __n default
 280:/usr/include/c++/7/bits/stl_vector.h ****        *  constructed elements.
 281:/usr/include/c++/7/bits/stl_vector.h ****        */
 282:/usr/include/c++/7/bits/stl_vector.h ****       explicit
 283:/usr/include/c++/7/bits/stl_vector.h ****       vector(size_type __n, const allocator_type& __a = allocator_type())
 284:/usr/include/c++/7/bits/stl_vector.h ****       : _Base(__n, __a)
 285:/usr/include/c++/7/bits/stl_vector.h ****       { _M_default_initialize(__n); }
 286:/usr/include/c++/7/bits/stl_vector.h **** 
 287:/usr/include/c++/7/bits/stl_vector.h ****       /**
 288:/usr/include/c++/7/bits/stl_vector.h ****        *  @brief  Creates a %vector with copies of an exemplar element.
 289:/usr/include/c++/7/bits/stl_vector.h ****        *  @param  __n  The number of elements to initially create.
 290:/usr/include/c++/7/bits/stl_vector.h ****        *  @param  __value  An element to copy.
 291:/usr/include/c++/7/bits/stl_vector.h ****        *  @param  __a  An allocator.
 292:/usr/include/c++/7/bits/stl_vector.h ****        *
 293:/usr/include/c++/7/bits/stl_vector.h ****        *  This constructor fills the %vector with @a __n copies of @a __value.
 294:/usr/include/c++/7/bits/stl_vector.h ****        */
 295:/usr/include/c++/7/bits/stl_vector.h ****       vector(size_type __n, const value_type& __value,
 296:/usr/include/c++/7/bits/stl_vector.h **** 	     const allocator_type& __a = allocator_type())
 297:/usr/include/c++/7/bits/stl_vector.h ****       : _Base(__n, __a)
 298:/usr/include/c++/7/bits/stl_vector.h ****       { _M_fill_initialize(__n, __value); }
 299:/usr/include/c++/7/bits/stl_vector.h **** #else
 300:/usr/include/c++/7/bits/stl_vector.h ****       /**
 301:/usr/include/c++/7/bits/stl_vector.h ****        *  @brief  Creates a %vector with copies of an exemplar element.
 302:/usr/include/c++/7/bits/stl_vector.h ****        *  @param  __n  The number of elements to initially create.
 303:/usr/include/c++/7/bits/stl_vector.h ****        *  @param  __value  An element to copy.
 304:/usr/include/c++/7/bits/stl_vector.h ****        *  @param  __a  An allocator.
 305:/usr/include/c++/7/bits/stl_vector.h ****        *
 306:/usr/include/c++/7/bits/stl_vector.h ****        *  This constructor fills the %vector with @a __n copies of @a __value.
 307:/usr/include/c++/7/bits/stl_vector.h ****        */
 308:/usr/include/c++/7/bits/stl_vector.h ****       explicit
 309:/usr/include/c++/7/bits/stl_vector.h ****       vector(size_type __n, const value_type& __value = value_type(),
 310:/usr/include/c++/7/bits/stl_vector.h **** 	     const allocator_type& __a = allocator_type())
 311:/usr/include/c++/7/bits/stl_vector.h ****       : _Base(__n, __a)
 312:/usr/include/c++/7/bits/stl_vector.h ****       { _M_fill_initialize(__n, __value); }
 313:/usr/include/c++/7/bits/stl_vector.h **** #endif
 314:/usr/include/c++/7/bits/stl_vector.h **** 
 315:/usr/include/c++/7/bits/stl_vector.h ****       /**
 316:/usr/include/c++/7/bits/stl_vector.h ****        *  @brief  %Vector copy constructor.
 317:/usr/include/c++/7/bits/stl_vector.h ****        *  @param  __x  A %vector of identical element and allocator types.
 318:/usr/include/c++/7/bits/stl_vector.h ****        *
 319:/usr/include/c++/7/bits/stl_vector.h ****        *  All the elements of @a __x are copied, but any unused capacity in
 320:/usr/include/c++/7/bits/stl_vector.h ****        *  @a __x  will not be copied
 321:/usr/include/c++/7/bits/stl_vector.h ****        *  (i.e. capacity() == size() in the new %vector).
 322:/usr/include/c++/7/bits/stl_vector.h ****        *
 323:/usr/include/c++/7/bits/stl_vector.h ****        *  The newly-created %vector uses a copy of the allocator object used
 324:/usr/include/c++/7/bits/stl_vector.h ****        *  by @a __x (unless the allocator traits dictate a different object).
 325:/usr/include/c++/7/bits/stl_vector.h ****        */
 326:/usr/include/c++/7/bits/stl_vector.h ****       vector(const vector& __x)
 327:/usr/include/c++/7/bits/stl_vector.h ****       : _Base(__x.size(),
 328:/usr/include/c++/7/bits/stl_vector.h **** 	_Alloc_traits::_S_select_on_copy(__x._M_get_Tp_allocator()))
 329:/usr/include/c++/7/bits/stl_vector.h ****       {
 330:/usr/include/c++/7/bits/stl_vector.h **** 	this->_M_impl._M_finish =
 331:/usr/include/c++/7/bits/stl_vector.h **** 	  std::__uninitialized_copy_a(__x.begin(), __x.end(),
 332:/usr/include/c++/7/bits/stl_vector.h **** 				      this->_M_impl._M_start,
 333:/usr/include/c++/7/bits/stl_vector.h **** 				      _M_get_Tp_allocator());
 334:/usr/include/c++/7/bits/stl_vector.h ****       }
 335:/usr/include/c++/7/bits/stl_vector.h **** 
 336:/usr/include/c++/7/bits/stl_vector.h **** #if __cplusplus >= 201103L
 337:/usr/include/c++/7/bits/stl_vector.h ****       /**
 338:/usr/include/c++/7/bits/stl_vector.h ****        *  @brief  %Vector move constructor.
 339:/usr/include/c++/7/bits/stl_vector.h ****        *  @param  __x  A %vector of identical element and allocator types.
 340:/usr/include/c++/7/bits/stl_vector.h ****        *
 341:/usr/include/c++/7/bits/stl_vector.h ****        *  The newly-created %vector contains the exact contents of @a __x.
 342:/usr/include/c++/7/bits/stl_vector.h ****        *  The contents of @a __x are a valid, but unspecified %vector.
 343:/usr/include/c++/7/bits/stl_vector.h ****        */
 344:/usr/include/c++/7/bits/stl_vector.h ****       vector(vector&& __x) noexcept
 345:/usr/include/c++/7/bits/stl_vector.h ****       : _Base(std::move(__x)) { }
 346:/usr/include/c++/7/bits/stl_vector.h **** 
 347:/usr/include/c++/7/bits/stl_vector.h ****       /// Copy constructor with alternative allocator
 348:/usr/include/c++/7/bits/stl_vector.h ****       vector(const vector& __x, const allocator_type& __a)
 349:/usr/include/c++/7/bits/stl_vector.h ****       : _Base(__x.size(), __a)
 350:/usr/include/c++/7/bits/stl_vector.h ****       {
 351:/usr/include/c++/7/bits/stl_vector.h **** 	this->_M_impl._M_finish =
 352:/usr/include/c++/7/bits/stl_vector.h **** 	  std::__uninitialized_copy_a(__x.begin(), __x.end(),
 353:/usr/include/c++/7/bits/stl_vector.h **** 				      this->_M_impl._M_start,
 354:/usr/include/c++/7/bits/stl_vector.h **** 				      _M_get_Tp_allocator());
 355:/usr/include/c++/7/bits/stl_vector.h ****       }
 356:/usr/include/c++/7/bits/stl_vector.h **** 
 357:/usr/include/c++/7/bits/stl_vector.h ****       /// Move constructor with alternative allocator
 358:/usr/include/c++/7/bits/stl_vector.h ****       vector(vector&& __rv, const allocator_type& __m)
 359:/usr/include/c++/7/bits/stl_vector.h ****       noexcept(_Alloc_traits::_S_always_equal())
 360:/usr/include/c++/7/bits/stl_vector.h ****       : _Base(std::move(__rv), __m)
 361:/usr/include/c++/7/bits/stl_vector.h ****       {
 362:/usr/include/c++/7/bits/stl_vector.h **** 	if (__rv.get_allocator() != __m)
 363:/usr/include/c++/7/bits/stl_vector.h **** 	  {
 364:/usr/include/c++/7/bits/stl_vector.h **** 	    this->_M_impl._M_finish =
 365:/usr/include/c++/7/bits/stl_vector.h **** 	      std::__uninitialized_move_a(__rv.begin(), __rv.end(),
 366:/usr/include/c++/7/bits/stl_vector.h **** 					  this->_M_impl._M_start,
 367:/usr/include/c++/7/bits/stl_vector.h **** 					  _M_get_Tp_allocator());
 368:/usr/include/c++/7/bits/stl_vector.h **** 	    __rv.clear();
 369:/usr/include/c++/7/bits/stl_vector.h **** 	  }
 370:/usr/include/c++/7/bits/stl_vector.h ****       }
 371:/usr/include/c++/7/bits/stl_vector.h **** 
 372:/usr/include/c++/7/bits/stl_vector.h ****       /**
 373:/usr/include/c++/7/bits/stl_vector.h ****        *  @brief  Builds a %vector from an initializer list.
 374:/usr/include/c++/7/bits/stl_vector.h ****        *  @param  __l  An initializer_list.
 375:/usr/include/c++/7/bits/stl_vector.h ****        *  @param  __a  An allocator.
 376:/usr/include/c++/7/bits/stl_vector.h ****        *
 377:/usr/include/c++/7/bits/stl_vector.h ****        *  Create a %vector consisting of copies of the elements in the
 378:/usr/include/c++/7/bits/stl_vector.h ****        *  initializer_list @a __l.
 379:/usr/include/c++/7/bits/stl_vector.h ****        *
 380:/usr/include/c++/7/bits/stl_vector.h ****        *  This will call the element type's copy constructor N times
 381:/usr/include/c++/7/bits/stl_vector.h ****        *  (where N is @a __l.size()) and do no memory reallocation.
 382:/usr/include/c++/7/bits/stl_vector.h ****        */
 383:/usr/include/c++/7/bits/stl_vector.h ****       vector(initializer_list<value_type> __l,
 384:/usr/include/c++/7/bits/stl_vector.h **** 	     const allocator_type& __a = allocator_type())
 385:/usr/include/c++/7/bits/stl_vector.h ****       : _Base(__a)
 386:/usr/include/c++/7/bits/stl_vector.h ****       {
 387:/usr/include/c++/7/bits/stl_vector.h **** 	_M_range_initialize(__l.begin(), __l.end(),
 388:/usr/include/c++/7/bits/stl_vector.h **** 			    random_access_iterator_tag());
 389:/usr/include/c++/7/bits/stl_vector.h ****       }
 390:/usr/include/c++/7/bits/stl_vector.h **** #endif
 391:/usr/include/c++/7/bits/stl_vector.h **** 
 392:/usr/include/c++/7/bits/stl_vector.h ****       /**
 393:/usr/include/c++/7/bits/stl_vector.h ****        *  @brief  Builds a %vector from a range.
 394:/usr/include/c++/7/bits/stl_vector.h ****        *  @param  __first  An input iterator.
 395:/usr/include/c++/7/bits/stl_vector.h ****        *  @param  __last  An input iterator.
 396:/usr/include/c++/7/bits/stl_vector.h ****        *  @param  __a  An allocator.
 397:/usr/include/c++/7/bits/stl_vector.h ****        *
 398:/usr/include/c++/7/bits/stl_vector.h ****        *  Create a %vector consisting of copies of the elements from
 399:/usr/include/c++/7/bits/stl_vector.h ****        *  [first,last).
 400:/usr/include/c++/7/bits/stl_vector.h ****        *
 401:/usr/include/c++/7/bits/stl_vector.h ****        *  If the iterators are forward, bidirectional, or
 402:/usr/include/c++/7/bits/stl_vector.h ****        *  random-access, then this will call the elements' copy
 403:/usr/include/c++/7/bits/stl_vector.h ****        *  constructor N times (where N is distance(first,last)) and do
 404:/usr/include/c++/7/bits/stl_vector.h ****        *  no memory reallocation.  But if only input iterators are
 405:/usr/include/c++/7/bits/stl_vector.h ****        *  used, then this will do at most 2N calls to the copy
 406:/usr/include/c++/7/bits/stl_vector.h ****        *  constructor, and logN memory reallocations.
 407:/usr/include/c++/7/bits/stl_vector.h ****        */
 408:/usr/include/c++/7/bits/stl_vector.h **** #if __cplusplus >= 201103L
 409:/usr/include/c++/7/bits/stl_vector.h ****       template<typename _InputIterator,
 410:/usr/include/c++/7/bits/stl_vector.h **** 	       typename = std::_RequireInputIter<_InputIterator>>
 411:/usr/include/c++/7/bits/stl_vector.h **** 	vector(_InputIterator __first, _InputIterator __last,
 412:/usr/include/c++/7/bits/stl_vector.h **** 	       const allocator_type& __a = allocator_type())
 413:/usr/include/c++/7/bits/stl_vector.h **** 	: _Base(__a)
 414:/usr/include/c++/7/bits/stl_vector.h **** 	{ _M_initialize_dispatch(__first, __last, __false_type()); }
 415:/usr/include/c++/7/bits/stl_vector.h **** #else
 416:/usr/include/c++/7/bits/stl_vector.h ****       template<typename _InputIterator>
 417:/usr/include/c++/7/bits/stl_vector.h **** 	vector(_InputIterator __first, _InputIterator __last,
 418:/usr/include/c++/7/bits/stl_vector.h **** 	       const allocator_type& __a = allocator_type())
 419:/usr/include/c++/7/bits/stl_vector.h **** 	: _Base(__a)
 420:/usr/include/c++/7/bits/stl_vector.h **** 	{
 421:/usr/include/c++/7/bits/stl_vector.h **** 	  // Check whether it's an integral type.  If so, it's not an iterator.
 422:/usr/include/c++/7/bits/stl_vector.h **** 	  typedef typename std::__is_integer<_InputIterator>::__type _Integral;
 423:/usr/include/c++/7/bits/stl_vector.h **** 	  _M_initialize_dispatch(__first, __last, _Integral());
 424:/usr/include/c++/7/bits/stl_vector.h **** 	}
 425:/usr/include/c++/7/bits/stl_vector.h **** #endif
 426:/usr/include/c++/7/bits/stl_vector.h **** 
 427:/usr/include/c++/7/bits/stl_vector.h ****       /**
 428:/usr/include/c++/7/bits/stl_vector.h ****        *  The dtor only erases the elements, and note that if the
 429:/usr/include/c++/7/bits/stl_vector.h ****        *  elements themselves are pointers, the pointed-to memory is
 430:/usr/include/c++/7/bits/stl_vector.h ****        *  not touched in any way.  Managing the pointer is the user's
 431:/usr/include/c++/7/bits/stl_vector.h ****        *  responsibility.
 432:/usr/include/c++/7/bits/stl_vector.h ****        */
 433:/usr/include/c++/7/bits/stl_vector.h ****       ~vector() _GLIBCXX_NOEXCEPT
 1567              		.loc 2 433 0
 1568              		.cfi_startproc
 1569              		.cfi_personality 0x9b,DW.ref.__gxx_personality_v0
 1570              		.cfi_lsda 0x1b,.LLSDA2101
 1571 0000 55       		pushq	%rbp
 1572              		.cfi_def_cfa_offset 16
 1573              		.cfi_offset 6, -16
 1574 0001 4889E5   		movq	%rsp, %rbp
 1575              		.cfi_def_cfa_register 6
 1576 0004 4883EC10 		subq	$16, %rsp
 1577 0008 48897DF8 		movq	%rdi, -8(%rbp)
 1578              	.LBB21:
 434:/usr/include/c++/7/bits/stl_vector.h ****       { std::_Destroy(this->_M_impl._M_start, this->_M_impl._M_finish,
 435:/usr/include/c++/7/bits/stl_vector.h **** 		      _M_get_Tp_allocator()); }
 1579              		.loc 2 435 0
 1580 000c 488B45F8 		movq	-8(%rbp), %rax
 1581 0010 4889C7   		movq	%rax, %rdi
 1582 0013 E8000000 		call	_ZNSt12_Vector_baseIdSaIdEE19_M_get_Tp_allocatorEv
 1582      00
 1583 0018 4889C2   		movq	%rax, %rdx
 434:/usr/include/c++/7/bits/stl_vector.h ****       { std::_Destroy(this->_M_impl._M_start, this->_M_impl._M_finish,
 1584              		.loc 2 434 0
 1585 001b 488B45F8 		movq	-8(%rbp), %rax
 1586 001f 488B4808 		movq	8(%rax), %rcx
 1587 0023 488B45F8 		movq	-8(%rbp), %rax
 1588 0027 488B00   		movq	(%rax), %rax
 1589 002a 4889CE   		movq	%rcx, %rsi
 1590 002d 4889C7   		movq	%rax, %rdi
 1591 0030 E8000000 		call	_ZSt8_DestroyIPddEvT_S1_RSaIT0_E
 1591      00
 1592              		.loc 2 435 0
 1593 0035 488B45F8 		movq	-8(%rbp), %rax
 1594 0039 4889C7   		movq	%rax, %rdi
 1595 003c E8000000 		call	_ZNSt12_Vector_baseIdSaIdEED2Ev
 1595      00
 1596              	.LBE21:
 1597 0041 90       		nop
 1598 0042 C9       		leave
 1599              		.cfi_def_cfa 7, 8
 1600 0043 C3       		ret
 1601              		.cfi_endproc
 1602              	.LFE2101:
 1603              		.section	.gcc_except_table
 1604              	.LLSDA2101:
 1605 0073 FF       		.byte	0xff
 1606 0074 FF       		.byte	0xff
 1607 0075 01       		.byte	0x1
 1608 0076 00       		.uleb128 .LLSDACSE2101-.LLSDACSB2101
 1609              	.LLSDACSB2101:
 1610              	.LLSDACSE2101:
 1611              		.section	.text._ZNSt6vectorIdSaIdEED2Ev,"axG",@progbits,_ZNSt6vectorIdSaIdEED5Ev,comdat
 1613              		.weak	_ZNSt6vectorIdSaIdEED1Ev
 1614              		.set	_ZNSt6vectorIdSaIdEED1Ev,_ZNSt6vectorIdSaIdEED2Ev
 1615              		.section	.text._ZNSt6vectorIdSaIdEEixEm,"axG",@progbits,_ZNSt6vectorIdSaIdEEixEm,comdat
 1616              		.align 2
 1617              		.weak	_ZNSt6vectorIdSaIdEEixEm
 1619              	_ZNSt6vectorIdSaIdEEixEm:
 1620              	.LFB2115:
 436:/usr/include/c++/7/bits/stl_vector.h **** 
 437:/usr/include/c++/7/bits/stl_vector.h ****       /**
 438:/usr/include/c++/7/bits/stl_vector.h ****        *  @brief  %Vector assignment operator.
 439:/usr/include/c++/7/bits/stl_vector.h ****        *  @param  __x  A %vector of identical element and allocator types.
 440:/usr/include/c++/7/bits/stl_vector.h ****        *
 441:/usr/include/c++/7/bits/stl_vector.h ****        *  All the elements of @a __x are copied, but any unused capacity in
 442:/usr/include/c++/7/bits/stl_vector.h ****        *  @a __x will not be copied.
 443:/usr/include/c++/7/bits/stl_vector.h ****        *
 444:/usr/include/c++/7/bits/stl_vector.h ****        *  Whether the allocator is copied depends on the allocator traits.
 445:/usr/include/c++/7/bits/stl_vector.h ****        */
 446:/usr/include/c++/7/bits/stl_vector.h ****       vector&
 447:/usr/include/c++/7/bits/stl_vector.h ****       operator=(const vector& __x);
 448:/usr/include/c++/7/bits/stl_vector.h **** 
 449:/usr/include/c++/7/bits/stl_vector.h **** #if __cplusplus >= 201103L
 450:/usr/include/c++/7/bits/stl_vector.h ****       /**
 451:/usr/include/c++/7/bits/stl_vector.h ****        *  @brief  %Vector move assignment operator.
 452:/usr/include/c++/7/bits/stl_vector.h ****        *  @param  __x  A %vector of identical element and allocator types.
 453:/usr/include/c++/7/bits/stl_vector.h ****        *
 454:/usr/include/c++/7/bits/stl_vector.h ****        *  The contents of @a __x are moved into this %vector (without copying,
 455:/usr/include/c++/7/bits/stl_vector.h ****        *  if the allocators permit it).
 456:/usr/include/c++/7/bits/stl_vector.h ****        *  Afterwards @a __x is a valid, but unspecified %vector.
 457:/usr/include/c++/7/bits/stl_vector.h ****        *
 458:/usr/include/c++/7/bits/stl_vector.h ****        *  Whether the allocator is moved depends on the allocator traits.
 459:/usr/include/c++/7/bits/stl_vector.h ****        */
 460:/usr/include/c++/7/bits/stl_vector.h ****       vector&
 461:/usr/include/c++/7/bits/stl_vector.h ****       operator=(vector&& __x) noexcept(_Alloc_traits::_S_nothrow_move())
 462:/usr/include/c++/7/bits/stl_vector.h ****       {
 463:/usr/include/c++/7/bits/stl_vector.h **** 	constexpr bool __move_storage =
 464:/usr/include/c++/7/bits/stl_vector.h **** 	  _Alloc_traits::_S_propagate_on_move_assign()
 465:/usr/include/c++/7/bits/stl_vector.h **** 	  || _Alloc_traits::_S_always_equal();
 466:/usr/include/c++/7/bits/stl_vector.h **** 	_M_move_assign(std::move(__x), __bool_constant<__move_storage>());
 467:/usr/include/c++/7/bits/stl_vector.h **** 	return *this;
 468:/usr/include/c++/7/bits/stl_vector.h ****       }
 469:/usr/include/c++/7/bits/stl_vector.h **** 
 470:/usr/include/c++/7/bits/stl_vector.h ****       /**
 471:/usr/include/c++/7/bits/stl_vector.h ****        *  @brief  %Vector list assignment operator.
 472:/usr/include/c++/7/bits/stl_vector.h ****        *  @param  __l  An initializer_list.
 473:/usr/include/c++/7/bits/stl_vector.h ****        *
 474:/usr/include/c++/7/bits/stl_vector.h ****        *  This function fills a %vector with copies of the elements in the
 475:/usr/include/c++/7/bits/stl_vector.h ****        *  initializer list @a __l.
 476:/usr/include/c++/7/bits/stl_vector.h ****        *
 477:/usr/include/c++/7/bits/stl_vector.h ****        *  Note that the assignment completely changes the %vector and
 478:/usr/include/c++/7/bits/stl_vector.h ****        *  that the resulting %vector's size is the same as the number
 479:/usr/include/c++/7/bits/stl_vector.h ****        *  of elements assigned.
 480:/usr/include/c++/7/bits/stl_vector.h ****        */
 481:/usr/include/c++/7/bits/stl_vector.h ****       vector&
 482:/usr/include/c++/7/bits/stl_vector.h ****       operator=(initializer_list<value_type> __l)
 483:/usr/include/c++/7/bits/stl_vector.h ****       {
 484:/usr/include/c++/7/bits/stl_vector.h **** 	this->_M_assign_aux(__l.begin(), __l.end(),
 485:/usr/include/c++/7/bits/stl_vector.h **** 			    random_access_iterator_tag());
 486:/usr/include/c++/7/bits/stl_vector.h **** 	return *this;
 487:/usr/include/c++/7/bits/stl_vector.h ****       }
 488:/usr/include/c++/7/bits/stl_vector.h **** #endif
 489:/usr/include/c++/7/bits/stl_vector.h **** 
 490:/usr/include/c++/7/bits/stl_vector.h ****       /**
 491:/usr/include/c++/7/bits/stl_vector.h ****        *  @brief  Assigns a given value to a %vector.
 492:/usr/include/c++/7/bits/stl_vector.h ****        *  @param  __n  Number of elements to be assigned.
 493:/usr/include/c++/7/bits/stl_vector.h ****        *  @param  __val  Value to be assigned.
 494:/usr/include/c++/7/bits/stl_vector.h ****        *
 495:/usr/include/c++/7/bits/stl_vector.h ****        *  This function fills a %vector with @a __n copies of the given
 496:/usr/include/c++/7/bits/stl_vector.h ****        *  value.  Note that the assignment completely changes the
 497:/usr/include/c++/7/bits/stl_vector.h ****        *  %vector and that the resulting %vector's size is the same as
 498:/usr/include/c++/7/bits/stl_vector.h ****        *  the number of elements assigned.
 499:/usr/include/c++/7/bits/stl_vector.h ****        */
 500:/usr/include/c++/7/bits/stl_vector.h ****       void
 501:/usr/include/c++/7/bits/stl_vector.h ****       assign(size_type __n, const value_type& __val)
 502:/usr/include/c++/7/bits/stl_vector.h ****       { _M_fill_assign(__n, __val); }
 503:/usr/include/c++/7/bits/stl_vector.h **** 
 504:/usr/include/c++/7/bits/stl_vector.h ****       /**
 505:/usr/include/c++/7/bits/stl_vector.h ****        *  @brief  Assigns a range to a %vector.
 506:/usr/include/c++/7/bits/stl_vector.h ****        *  @param  __first  An input iterator.
 507:/usr/include/c++/7/bits/stl_vector.h ****        *  @param  __last   An input iterator.
 508:/usr/include/c++/7/bits/stl_vector.h ****        *
 509:/usr/include/c++/7/bits/stl_vector.h ****        *  This function fills a %vector with copies of the elements in the
 510:/usr/include/c++/7/bits/stl_vector.h ****        *  range [__first,__last).
 511:/usr/include/c++/7/bits/stl_vector.h ****        *
 512:/usr/include/c++/7/bits/stl_vector.h ****        *  Note that the assignment completely changes the %vector and
 513:/usr/include/c++/7/bits/stl_vector.h ****        *  that the resulting %vector's size is the same as the number
 514:/usr/include/c++/7/bits/stl_vector.h ****        *  of elements assigned.
 515:/usr/include/c++/7/bits/stl_vector.h ****        */
 516:/usr/include/c++/7/bits/stl_vector.h **** #if __cplusplus >= 201103L
 517:/usr/include/c++/7/bits/stl_vector.h ****       template<typename _InputIterator,
 518:/usr/include/c++/7/bits/stl_vector.h **** 	       typename = std::_RequireInputIter<_InputIterator>>
 519:/usr/include/c++/7/bits/stl_vector.h **** 	void
 520:/usr/include/c++/7/bits/stl_vector.h **** 	assign(_InputIterator __first, _InputIterator __last)
 521:/usr/include/c++/7/bits/stl_vector.h **** 	{ _M_assign_dispatch(__first, __last, __false_type()); }
 522:/usr/include/c++/7/bits/stl_vector.h **** #else
 523:/usr/include/c++/7/bits/stl_vector.h ****       template<typename _InputIterator>
 524:/usr/include/c++/7/bits/stl_vector.h **** 	void
 525:/usr/include/c++/7/bits/stl_vector.h **** 	assign(_InputIterator __first, _InputIterator __last)
 526:/usr/include/c++/7/bits/stl_vector.h **** 	{
 527:/usr/include/c++/7/bits/stl_vector.h **** 	  // Check whether it's an integral type.  If so, it's not an iterator.
 528:/usr/include/c++/7/bits/stl_vector.h **** 	  typedef typename std::__is_integer<_InputIterator>::__type _Integral;
 529:/usr/include/c++/7/bits/stl_vector.h **** 	  _M_assign_dispatch(__first, __last, _Integral());
 530:/usr/include/c++/7/bits/stl_vector.h **** 	}
 531:/usr/include/c++/7/bits/stl_vector.h **** #endif
 532:/usr/include/c++/7/bits/stl_vector.h **** 
 533:/usr/include/c++/7/bits/stl_vector.h **** #if __cplusplus >= 201103L
 534:/usr/include/c++/7/bits/stl_vector.h ****       /**
 535:/usr/include/c++/7/bits/stl_vector.h ****        *  @brief  Assigns an initializer list to a %vector.
 536:/usr/include/c++/7/bits/stl_vector.h ****        *  @param  __l  An initializer_list.
 537:/usr/include/c++/7/bits/stl_vector.h ****        *
 538:/usr/include/c++/7/bits/stl_vector.h ****        *  This function fills a %vector with copies of the elements in the
 539:/usr/include/c++/7/bits/stl_vector.h ****        *  initializer list @a __l.
 540:/usr/include/c++/7/bits/stl_vector.h ****        *
 541:/usr/include/c++/7/bits/stl_vector.h ****        *  Note that the assignment completely changes the %vector and
 542:/usr/include/c++/7/bits/stl_vector.h ****        *  that the resulting %vector's size is the same as the number
 543:/usr/include/c++/7/bits/stl_vector.h ****        *  of elements assigned.
 544:/usr/include/c++/7/bits/stl_vector.h ****        */
 545:/usr/include/c++/7/bits/stl_vector.h ****       void
 546:/usr/include/c++/7/bits/stl_vector.h ****       assign(initializer_list<value_type> __l)
 547:/usr/include/c++/7/bits/stl_vector.h ****       {
 548:/usr/include/c++/7/bits/stl_vector.h **** 	this->_M_assign_aux(__l.begin(), __l.end(),
 549:/usr/include/c++/7/bits/stl_vector.h **** 			    random_access_iterator_tag());
 550:/usr/include/c++/7/bits/stl_vector.h ****       }
 551:/usr/include/c++/7/bits/stl_vector.h **** #endif
 552:/usr/include/c++/7/bits/stl_vector.h **** 
 553:/usr/include/c++/7/bits/stl_vector.h ****       /// Get a copy of the memory allocation object.
 554:/usr/include/c++/7/bits/stl_vector.h ****       using _Base::get_allocator;
 555:/usr/include/c++/7/bits/stl_vector.h **** 
 556:/usr/include/c++/7/bits/stl_vector.h ****       // iterators
 557:/usr/include/c++/7/bits/stl_vector.h ****       /**
 558:/usr/include/c++/7/bits/stl_vector.h ****        *  Returns a read/write iterator that points to the first
 559:/usr/include/c++/7/bits/stl_vector.h ****        *  element in the %vector.  Iteration is done in ordinary
 560:/usr/include/c++/7/bits/stl_vector.h ****        *  element order.
 561:/usr/include/c++/7/bits/stl_vector.h ****        */
 562:/usr/include/c++/7/bits/stl_vector.h ****       iterator
 563:/usr/include/c++/7/bits/stl_vector.h ****       begin() _GLIBCXX_NOEXCEPT
 564:/usr/include/c++/7/bits/stl_vector.h ****       { return iterator(this->_M_impl._M_start); }
 565:/usr/include/c++/7/bits/stl_vector.h **** 
 566:/usr/include/c++/7/bits/stl_vector.h ****       /**
 567:/usr/include/c++/7/bits/stl_vector.h ****        *  Returns a read-only (constant) iterator that points to the
 568:/usr/include/c++/7/bits/stl_vector.h ****        *  first element in the %vector.  Iteration is done in ordinary
 569:/usr/include/c++/7/bits/stl_vector.h ****        *  element order.
 570:/usr/include/c++/7/bits/stl_vector.h ****        */
 571:/usr/include/c++/7/bits/stl_vector.h ****       const_iterator
 572:/usr/include/c++/7/bits/stl_vector.h ****       begin() const _GLIBCXX_NOEXCEPT
 573:/usr/include/c++/7/bits/stl_vector.h ****       { return const_iterator(this->_M_impl._M_start); }
 574:/usr/include/c++/7/bits/stl_vector.h **** 
 575:/usr/include/c++/7/bits/stl_vector.h ****       /**
 576:/usr/include/c++/7/bits/stl_vector.h ****        *  Returns a read/write iterator that points one past the last
 577:/usr/include/c++/7/bits/stl_vector.h ****        *  element in the %vector.  Iteration is done in ordinary
 578:/usr/include/c++/7/bits/stl_vector.h ****        *  element order.
 579:/usr/include/c++/7/bits/stl_vector.h ****        */
 580:/usr/include/c++/7/bits/stl_vector.h ****       iterator
 581:/usr/include/c++/7/bits/stl_vector.h ****       end() _GLIBCXX_NOEXCEPT
 582:/usr/include/c++/7/bits/stl_vector.h ****       { return iterator(this->_M_impl._M_finish); }
 583:/usr/include/c++/7/bits/stl_vector.h **** 
 584:/usr/include/c++/7/bits/stl_vector.h ****       /**
 585:/usr/include/c++/7/bits/stl_vector.h ****        *  Returns a read-only (constant) iterator that points one past
 586:/usr/include/c++/7/bits/stl_vector.h ****        *  the last element in the %vector.  Iteration is done in
 587:/usr/include/c++/7/bits/stl_vector.h ****        *  ordinary element order.
 588:/usr/include/c++/7/bits/stl_vector.h ****        */
 589:/usr/include/c++/7/bits/stl_vector.h ****       const_iterator
 590:/usr/include/c++/7/bits/stl_vector.h ****       end() const _GLIBCXX_NOEXCEPT
 591:/usr/include/c++/7/bits/stl_vector.h ****       { return const_iterator(this->_M_impl._M_finish); }
 592:/usr/include/c++/7/bits/stl_vector.h **** 
 593:/usr/include/c++/7/bits/stl_vector.h ****       /**
 594:/usr/include/c++/7/bits/stl_vector.h ****        *  Returns a read/write reverse iterator that points to the
 595:/usr/include/c++/7/bits/stl_vector.h ****        *  last element in the %vector.  Iteration is done in reverse
 596:/usr/include/c++/7/bits/stl_vector.h ****        *  element order.
 597:/usr/include/c++/7/bits/stl_vector.h ****        */
 598:/usr/include/c++/7/bits/stl_vector.h ****       reverse_iterator
 599:/usr/include/c++/7/bits/stl_vector.h ****       rbegin() _GLIBCXX_NOEXCEPT
 600:/usr/include/c++/7/bits/stl_vector.h ****       { return reverse_iterator(end()); }
 601:/usr/include/c++/7/bits/stl_vector.h **** 
 602:/usr/include/c++/7/bits/stl_vector.h ****       /**
 603:/usr/include/c++/7/bits/stl_vector.h ****        *  Returns a read-only (constant) reverse iterator that points
 604:/usr/include/c++/7/bits/stl_vector.h ****        *  to the last element in the %vector.  Iteration is done in
 605:/usr/include/c++/7/bits/stl_vector.h ****        *  reverse element order.
 606:/usr/include/c++/7/bits/stl_vector.h ****        */
 607:/usr/include/c++/7/bits/stl_vector.h ****       const_reverse_iterator
 608:/usr/include/c++/7/bits/stl_vector.h ****       rbegin() const _GLIBCXX_NOEXCEPT
 609:/usr/include/c++/7/bits/stl_vector.h ****       { return const_reverse_iterator(end()); }
 610:/usr/include/c++/7/bits/stl_vector.h **** 
 611:/usr/include/c++/7/bits/stl_vector.h ****       /**
 612:/usr/include/c++/7/bits/stl_vector.h ****        *  Returns a read/write reverse iterator that points to one
 613:/usr/include/c++/7/bits/stl_vector.h ****        *  before the first element in the %vector.  Iteration is done
 614:/usr/include/c++/7/bits/stl_vector.h ****        *  in reverse element order.
 615:/usr/include/c++/7/bits/stl_vector.h ****        */
 616:/usr/include/c++/7/bits/stl_vector.h ****       reverse_iterator
 617:/usr/include/c++/7/bits/stl_vector.h ****       rend() _GLIBCXX_NOEXCEPT
 618:/usr/include/c++/7/bits/stl_vector.h ****       { return reverse_iterator(begin()); }
 619:/usr/include/c++/7/bits/stl_vector.h **** 
 620:/usr/include/c++/7/bits/stl_vector.h ****       /**
 621:/usr/include/c++/7/bits/stl_vector.h ****        *  Returns a read-only (constant) reverse iterator that points
 622:/usr/include/c++/7/bits/stl_vector.h ****        *  to one before the first element in the %vector.  Iteration
 623:/usr/include/c++/7/bits/stl_vector.h ****        *  is done in reverse element order.
 624:/usr/include/c++/7/bits/stl_vector.h ****        */
 625:/usr/include/c++/7/bits/stl_vector.h ****       const_reverse_iterator
 626:/usr/include/c++/7/bits/stl_vector.h ****       rend() const _GLIBCXX_NOEXCEPT
 627:/usr/include/c++/7/bits/stl_vector.h ****       { return const_reverse_iterator(begin()); }
 628:/usr/include/c++/7/bits/stl_vector.h **** 
 629:/usr/include/c++/7/bits/stl_vector.h **** #if __cplusplus >= 201103L
 630:/usr/include/c++/7/bits/stl_vector.h ****       /**
 631:/usr/include/c++/7/bits/stl_vector.h ****        *  Returns a read-only (constant) iterator that points to the
 632:/usr/include/c++/7/bits/stl_vector.h ****        *  first element in the %vector.  Iteration is done in ordinary
 633:/usr/include/c++/7/bits/stl_vector.h ****        *  element order.
 634:/usr/include/c++/7/bits/stl_vector.h ****        */
 635:/usr/include/c++/7/bits/stl_vector.h ****       const_iterator
 636:/usr/include/c++/7/bits/stl_vector.h ****       cbegin() const noexcept
 637:/usr/include/c++/7/bits/stl_vector.h ****       { return const_iterator(this->_M_impl._M_start); }
 638:/usr/include/c++/7/bits/stl_vector.h **** 
 639:/usr/include/c++/7/bits/stl_vector.h ****       /**
 640:/usr/include/c++/7/bits/stl_vector.h ****        *  Returns a read-only (constant) iterator that points one past
 641:/usr/include/c++/7/bits/stl_vector.h ****        *  the last element in the %vector.  Iteration is done in
 642:/usr/include/c++/7/bits/stl_vector.h ****        *  ordinary element order.
 643:/usr/include/c++/7/bits/stl_vector.h ****        */
 644:/usr/include/c++/7/bits/stl_vector.h ****       const_iterator
 645:/usr/include/c++/7/bits/stl_vector.h ****       cend() const noexcept
 646:/usr/include/c++/7/bits/stl_vector.h ****       { return const_iterator(this->_M_impl._M_finish); }
 647:/usr/include/c++/7/bits/stl_vector.h **** 
 648:/usr/include/c++/7/bits/stl_vector.h ****       /**
 649:/usr/include/c++/7/bits/stl_vector.h ****        *  Returns a read-only (constant) reverse iterator that points
 650:/usr/include/c++/7/bits/stl_vector.h ****        *  to the last element in the %vector.  Iteration is done in
 651:/usr/include/c++/7/bits/stl_vector.h ****        *  reverse element order.
 652:/usr/include/c++/7/bits/stl_vector.h ****        */
 653:/usr/include/c++/7/bits/stl_vector.h ****       const_reverse_iterator
 654:/usr/include/c++/7/bits/stl_vector.h ****       crbegin() const noexcept
 655:/usr/include/c++/7/bits/stl_vector.h ****       { return const_reverse_iterator(end()); }
 656:/usr/include/c++/7/bits/stl_vector.h **** 
 657:/usr/include/c++/7/bits/stl_vector.h ****       /**
 658:/usr/include/c++/7/bits/stl_vector.h ****        *  Returns a read-only (constant) reverse iterator that points
 659:/usr/include/c++/7/bits/stl_vector.h ****        *  to one before the first element in the %vector.  Iteration
 660:/usr/include/c++/7/bits/stl_vector.h ****        *  is done in reverse element order.
 661:/usr/include/c++/7/bits/stl_vector.h ****        */
 662:/usr/include/c++/7/bits/stl_vector.h ****       const_reverse_iterator
 663:/usr/include/c++/7/bits/stl_vector.h ****       crend() const noexcept
 664:/usr/include/c++/7/bits/stl_vector.h ****       { return const_reverse_iterator(begin()); }
 665:/usr/include/c++/7/bits/stl_vector.h **** #endif
 666:/usr/include/c++/7/bits/stl_vector.h **** 
 667:/usr/include/c++/7/bits/stl_vector.h ****       // [23.2.4.2] capacity
 668:/usr/include/c++/7/bits/stl_vector.h ****       /**  Returns the number of elements in the %vector.  */
 669:/usr/include/c++/7/bits/stl_vector.h ****       size_type
 670:/usr/include/c++/7/bits/stl_vector.h ****       size() const _GLIBCXX_NOEXCEPT
 671:/usr/include/c++/7/bits/stl_vector.h ****       { return size_type(this->_M_impl._M_finish - this->_M_impl._M_start); }
 672:/usr/include/c++/7/bits/stl_vector.h **** 
 673:/usr/include/c++/7/bits/stl_vector.h ****       /**  Returns the size() of the largest possible %vector.  */
 674:/usr/include/c++/7/bits/stl_vector.h ****       size_type
 675:/usr/include/c++/7/bits/stl_vector.h ****       max_size() const _GLIBCXX_NOEXCEPT
 676:/usr/include/c++/7/bits/stl_vector.h ****       { return _Alloc_traits::max_size(_M_get_Tp_allocator()); }
 677:/usr/include/c++/7/bits/stl_vector.h **** 
 678:/usr/include/c++/7/bits/stl_vector.h **** #if __cplusplus >= 201103L
 679:/usr/include/c++/7/bits/stl_vector.h ****       /**
 680:/usr/include/c++/7/bits/stl_vector.h ****        *  @brief  Resizes the %vector to the specified number of elements.
 681:/usr/include/c++/7/bits/stl_vector.h ****        *  @param  __new_size  Number of elements the %vector should contain.
 682:/usr/include/c++/7/bits/stl_vector.h ****        *
 683:/usr/include/c++/7/bits/stl_vector.h ****        *  This function will %resize the %vector to the specified
 684:/usr/include/c++/7/bits/stl_vector.h ****        *  number of elements.  If the number is smaller than the
 685:/usr/include/c++/7/bits/stl_vector.h ****        *  %vector's current size the %vector is truncated, otherwise
 686:/usr/include/c++/7/bits/stl_vector.h ****        *  default constructed elements are appended.
 687:/usr/include/c++/7/bits/stl_vector.h ****        */
 688:/usr/include/c++/7/bits/stl_vector.h ****       void
 689:/usr/include/c++/7/bits/stl_vector.h ****       resize(size_type __new_size)
 690:/usr/include/c++/7/bits/stl_vector.h ****       {
 691:/usr/include/c++/7/bits/stl_vector.h **** 	if (__new_size > size())
 692:/usr/include/c++/7/bits/stl_vector.h **** 	  _M_default_append(__new_size - size());
 693:/usr/include/c++/7/bits/stl_vector.h **** 	else if (__new_size < size())
 694:/usr/include/c++/7/bits/stl_vector.h **** 	  _M_erase_at_end(this->_M_impl._M_start + __new_size);
 695:/usr/include/c++/7/bits/stl_vector.h ****       }
 696:/usr/include/c++/7/bits/stl_vector.h **** 
 697:/usr/include/c++/7/bits/stl_vector.h ****       /**
 698:/usr/include/c++/7/bits/stl_vector.h ****        *  @brief  Resizes the %vector to the specified number of elements.
 699:/usr/include/c++/7/bits/stl_vector.h ****        *  @param  __new_size  Number of elements the %vector should contain.
 700:/usr/include/c++/7/bits/stl_vector.h ****        *  @param  __x  Data with which new elements should be populated.
 701:/usr/include/c++/7/bits/stl_vector.h ****        *
 702:/usr/include/c++/7/bits/stl_vector.h ****        *  This function will %resize the %vector to the specified
 703:/usr/include/c++/7/bits/stl_vector.h ****        *  number of elements.  If the number is smaller than the
 704:/usr/include/c++/7/bits/stl_vector.h ****        *  %vector's current size the %vector is truncated, otherwise
 705:/usr/include/c++/7/bits/stl_vector.h ****        *  the %vector is extended and new elements are populated with
 706:/usr/include/c++/7/bits/stl_vector.h ****        *  given data.
 707:/usr/include/c++/7/bits/stl_vector.h ****        */
 708:/usr/include/c++/7/bits/stl_vector.h ****       void
 709:/usr/include/c++/7/bits/stl_vector.h ****       resize(size_type __new_size, const value_type& __x)
 710:/usr/include/c++/7/bits/stl_vector.h ****       {
 711:/usr/include/c++/7/bits/stl_vector.h **** 	if (__new_size > size())
 712:/usr/include/c++/7/bits/stl_vector.h **** 	  _M_fill_insert(end(), __new_size - size(), __x);
 713:/usr/include/c++/7/bits/stl_vector.h **** 	else if (__new_size < size())
 714:/usr/include/c++/7/bits/stl_vector.h **** 	  _M_erase_at_end(this->_M_impl._M_start + __new_size);
 715:/usr/include/c++/7/bits/stl_vector.h ****       }
 716:/usr/include/c++/7/bits/stl_vector.h **** #else
 717:/usr/include/c++/7/bits/stl_vector.h ****       /**
 718:/usr/include/c++/7/bits/stl_vector.h ****        *  @brief  Resizes the %vector to the specified number of elements.
 719:/usr/include/c++/7/bits/stl_vector.h ****        *  @param  __new_size  Number of elements the %vector should contain.
 720:/usr/include/c++/7/bits/stl_vector.h ****        *  @param  __x  Data with which new elements should be populated.
 721:/usr/include/c++/7/bits/stl_vector.h ****        *
 722:/usr/include/c++/7/bits/stl_vector.h ****        *  This function will %resize the %vector to the specified
 723:/usr/include/c++/7/bits/stl_vector.h ****        *  number of elements.  If the number is smaller than the
 724:/usr/include/c++/7/bits/stl_vector.h ****        *  %vector's current size the %vector is truncated, otherwise
 725:/usr/include/c++/7/bits/stl_vector.h ****        *  the %vector is extended and new elements are populated with
 726:/usr/include/c++/7/bits/stl_vector.h ****        *  given data.
 727:/usr/include/c++/7/bits/stl_vector.h ****        */
 728:/usr/include/c++/7/bits/stl_vector.h ****       void
 729:/usr/include/c++/7/bits/stl_vector.h ****       resize(size_type __new_size, value_type __x = value_type())
 730:/usr/include/c++/7/bits/stl_vector.h ****       {
 731:/usr/include/c++/7/bits/stl_vector.h **** 	if (__new_size > size())
 732:/usr/include/c++/7/bits/stl_vector.h **** 	  _M_fill_insert(end(), __new_size - size(), __x);
 733:/usr/include/c++/7/bits/stl_vector.h **** 	else if (__new_size < size())
 734:/usr/include/c++/7/bits/stl_vector.h **** 	  _M_erase_at_end(this->_M_impl._M_start + __new_size);
 735:/usr/include/c++/7/bits/stl_vector.h ****       }
 736:/usr/include/c++/7/bits/stl_vector.h **** #endif
 737:/usr/include/c++/7/bits/stl_vector.h **** 
 738:/usr/include/c++/7/bits/stl_vector.h **** #if __cplusplus >= 201103L
 739:/usr/include/c++/7/bits/stl_vector.h ****       /**  A non-binding request to reduce capacity() to size().  */
 740:/usr/include/c++/7/bits/stl_vector.h ****       void
 741:/usr/include/c++/7/bits/stl_vector.h ****       shrink_to_fit()
 742:/usr/include/c++/7/bits/stl_vector.h ****       { _M_shrink_to_fit(); }
 743:/usr/include/c++/7/bits/stl_vector.h **** #endif
 744:/usr/include/c++/7/bits/stl_vector.h **** 
 745:/usr/include/c++/7/bits/stl_vector.h ****       /**
 746:/usr/include/c++/7/bits/stl_vector.h ****        *  Returns the total number of elements that the %vector can
 747:/usr/include/c++/7/bits/stl_vector.h ****        *  hold before needing to allocate more memory.
 748:/usr/include/c++/7/bits/stl_vector.h ****        */
 749:/usr/include/c++/7/bits/stl_vector.h ****       size_type
 750:/usr/include/c++/7/bits/stl_vector.h ****       capacity() const _GLIBCXX_NOEXCEPT
 751:/usr/include/c++/7/bits/stl_vector.h ****       { return size_type(this->_M_impl._M_end_of_storage
 752:/usr/include/c++/7/bits/stl_vector.h **** 			 - this->_M_impl._M_start); }
 753:/usr/include/c++/7/bits/stl_vector.h **** 
 754:/usr/include/c++/7/bits/stl_vector.h ****       /**
 755:/usr/include/c++/7/bits/stl_vector.h ****        *  Returns true if the %vector is empty.  (Thus begin() would
 756:/usr/include/c++/7/bits/stl_vector.h ****        *  equal end().)
 757:/usr/include/c++/7/bits/stl_vector.h ****        */
 758:/usr/include/c++/7/bits/stl_vector.h ****       bool
 759:/usr/include/c++/7/bits/stl_vector.h ****       empty() const _GLIBCXX_NOEXCEPT
 760:/usr/include/c++/7/bits/stl_vector.h ****       { return begin() == end(); }
 761:/usr/include/c++/7/bits/stl_vector.h **** 
 762:/usr/include/c++/7/bits/stl_vector.h ****       /**
 763:/usr/include/c++/7/bits/stl_vector.h ****        *  @brief  Attempt to preallocate enough memory for specified number of
 764:/usr/include/c++/7/bits/stl_vector.h ****        *          elements.
 765:/usr/include/c++/7/bits/stl_vector.h ****        *  @param  __n  Number of elements required.
 766:/usr/include/c++/7/bits/stl_vector.h ****        *  @throw  std::length_error  If @a n exceeds @c max_size().
 767:/usr/include/c++/7/bits/stl_vector.h ****        *
 768:/usr/include/c++/7/bits/stl_vector.h ****        *  This function attempts to reserve enough memory for the
 769:/usr/include/c++/7/bits/stl_vector.h ****        *  %vector to hold the specified number of elements.  If the
 770:/usr/include/c++/7/bits/stl_vector.h ****        *  number requested is more than max_size(), length_error is
 771:/usr/include/c++/7/bits/stl_vector.h ****        *  thrown.
 772:/usr/include/c++/7/bits/stl_vector.h ****        *
 773:/usr/include/c++/7/bits/stl_vector.h ****        *  The advantage of this function is that if optimal code is a
 774:/usr/include/c++/7/bits/stl_vector.h ****        *  necessity and the user can determine the number of elements
 775:/usr/include/c++/7/bits/stl_vector.h ****        *  that will be required, the user can reserve the memory in
 776:/usr/include/c++/7/bits/stl_vector.h ****        *  %advance, and thus prevent a possible reallocation of memory
 777:/usr/include/c++/7/bits/stl_vector.h ****        *  and copying of %vector data.
 778:/usr/include/c++/7/bits/stl_vector.h ****        */
 779:/usr/include/c++/7/bits/stl_vector.h ****       void
 780:/usr/include/c++/7/bits/stl_vector.h ****       reserve(size_type __n);
 781:/usr/include/c++/7/bits/stl_vector.h **** 
 782:/usr/include/c++/7/bits/stl_vector.h ****       // element access
 783:/usr/include/c++/7/bits/stl_vector.h ****       /**
 784:/usr/include/c++/7/bits/stl_vector.h ****        *  @brief  Subscript access to the data contained in the %vector.
 785:/usr/include/c++/7/bits/stl_vector.h ****        *  @param __n The index of the element for which data should be
 786:/usr/include/c++/7/bits/stl_vector.h ****        *  accessed.
 787:/usr/include/c++/7/bits/stl_vector.h ****        *  @return  Read/write reference to data.
 788:/usr/include/c++/7/bits/stl_vector.h ****        *
 789:/usr/include/c++/7/bits/stl_vector.h ****        *  This operator allows for easy, array-style, data access.
 790:/usr/include/c++/7/bits/stl_vector.h ****        *  Note that data access with this operator is unchecked and
 791:/usr/include/c++/7/bits/stl_vector.h ****        *  out_of_range lookups are not defined. (For checked lookups
 792:/usr/include/c++/7/bits/stl_vector.h ****        *  see at().)
 793:/usr/include/c++/7/bits/stl_vector.h ****        */
 794:/usr/include/c++/7/bits/stl_vector.h ****       reference
 795:/usr/include/c++/7/bits/stl_vector.h ****       operator[](size_type __n) _GLIBCXX_NOEXCEPT
 1621              		.loc 2 795 0
 1622              		.cfi_startproc
 1623 0000 55       		pushq	%rbp
 1624              		.cfi_def_cfa_offset 16
 1625              		.cfi_offset 6, -16
 1626 0001 4889E5   		movq	%rsp, %rbp
 1627              		.cfi_def_cfa_register 6
 1628 0004 48897DF8 		movq	%rdi, -8(%rbp)
 1629 0008 488975F0 		movq	%rsi, -16(%rbp)
 796:/usr/include/c++/7/bits/stl_vector.h ****       {
 797:/usr/include/c++/7/bits/stl_vector.h **** 	__glibcxx_requires_subscript(__n);
 798:/usr/include/c++/7/bits/stl_vector.h **** 	return *(this->_M_impl._M_start + __n);
 1630              		.loc 2 798 0
 1631 000c 488B45F8 		movq	-8(%rbp), %rax
 1632 0010 488B00   		movq	(%rax), %rax
 1633 0013 488B55F0 		movq	-16(%rbp), %rdx
 1634 0017 48C1E203 		salq	$3, %rdx
 1635 001b 4801D0   		addq	%rdx, %rax
 799:/usr/include/c++/7/bits/stl_vector.h ****       }
 1636              		.loc 2 799 0
 1637 001e 5D       		popq	%rbp
 1638              		.cfi_def_cfa 7, 8
 1639 001f C3       		ret
 1640              		.cfi_endproc
 1641              	.LFE2115:
 1643              		.section	.text._ZNKSt6vectorIdSaIdEE4sizeEv,"axG",@progbits,_ZNKSt6vectorIdSaIdEE4sizeEv,comdat
 1644              		.align 2
 1645              		.weak	_ZNKSt6vectorIdSaIdEE4sizeEv
 1647              	_ZNKSt6vectorIdSaIdEE4sizeEv:
 1648              	.LFB2116:
 670:/usr/include/c++/7/bits/stl_vector.h ****       { return size_type(this->_M_impl._M_finish - this->_M_impl._M_start); }
 1649              		.loc 2 670 0
 1650              		.cfi_startproc
 1651 0000 55       		pushq	%rbp
 1652              		.cfi_def_cfa_offset 16
 1653              		.cfi_offset 6, -16
 1654 0001 4889E5   		movq	%rsp, %rbp
 1655              		.cfi_def_cfa_register 6
 1656 0004 48897DF8 		movq	%rdi, -8(%rbp)
 671:/usr/include/c++/7/bits/stl_vector.h **** 
 1657              		.loc 2 671 0
 1658 0008 488B45F8 		movq	-8(%rbp), %rax
 1659 000c 488B4008 		movq	8(%rax), %rax
 1660 0010 4889C2   		movq	%rax, %rdx
 1661 0013 488B45F8 		movq	-8(%rbp), %rax
 1662 0017 488B00   		movq	(%rax), %rax
 1663 001a 4829C2   		subq	%rax, %rdx
 1664 001d 4889D0   		movq	%rdx, %rax
 1665 0020 48C1F803 		sarq	$3, %rax
 1666 0024 5D       		popq	%rbp
 1667              		.cfi_def_cfa 7, 8
 1668 0025 C3       		ret
 1669              		.cfi_endproc
 1670              	.LFE2116:
 1672              		.section	.text._ZNKSt6vectorIdSaIdEEixEm,"axG",@progbits,_ZNKSt6vectorIdSaIdEEixEm,comdat
 1673              		.align 2
 1674              		.weak	_ZNKSt6vectorIdSaIdEEixEm
 1676              	_ZNKSt6vectorIdSaIdEEixEm:
 1677              	.LFB2123:
 800:/usr/include/c++/7/bits/stl_vector.h **** 
 801:/usr/include/c++/7/bits/stl_vector.h ****       /**
 802:/usr/include/c++/7/bits/stl_vector.h ****        *  @brief  Subscript access to the data contained in the %vector.
 803:/usr/include/c++/7/bits/stl_vector.h ****        *  @param __n The index of the element for which data should be
 804:/usr/include/c++/7/bits/stl_vector.h ****        *  accessed.
 805:/usr/include/c++/7/bits/stl_vector.h ****        *  @return  Read-only (constant) reference to data.
 806:/usr/include/c++/7/bits/stl_vector.h ****        *
 807:/usr/include/c++/7/bits/stl_vector.h ****        *  This operator allows for easy, array-style, data access.
 808:/usr/include/c++/7/bits/stl_vector.h ****        *  Note that data access with this operator is unchecked and
 809:/usr/include/c++/7/bits/stl_vector.h ****        *  out_of_range lookups are not defined. (For checked lookups
 810:/usr/include/c++/7/bits/stl_vector.h ****        *  see at().)
 811:/usr/include/c++/7/bits/stl_vector.h ****        */
 812:/usr/include/c++/7/bits/stl_vector.h ****       const_reference
 813:/usr/include/c++/7/bits/stl_vector.h ****       operator[](size_type __n) const _GLIBCXX_NOEXCEPT
 1678              		.loc 2 813 0
 1679              		.cfi_startproc
 1680 0000 55       		pushq	%rbp
 1681              		.cfi_def_cfa_offset 16
 1682              		.cfi_offset 6, -16
 1683 0001 4889E5   		movq	%rsp, %rbp
 1684              		.cfi_def_cfa_register 6
 1685 0004 48897DF8 		movq	%rdi, -8(%rbp)
 1686 0008 488975F0 		movq	%rsi, -16(%rbp)
 814:/usr/include/c++/7/bits/stl_vector.h ****       {
 815:/usr/include/c++/7/bits/stl_vector.h **** 	__glibcxx_requires_subscript(__n);
 816:/usr/include/c++/7/bits/stl_vector.h **** 	return *(this->_M_impl._M_start + __n);
 1687              		.loc 2 816 0
 1688 000c 488B45F8 		movq	-8(%rbp), %rax
 1689 0010 488B00   		movq	(%rax), %rax
 1690 0013 488B55F0 		movq	-16(%rbp), %rdx
 1691 0017 48C1E203 		salq	$3, %rdx
 1692 001b 4801D0   		addq	%rdx, %rax
 817:/usr/include/c++/7/bits/stl_vector.h ****       }
 1693              		.loc 2 817 0
 1694 001e 5D       		popq	%rbp
 1695              		.cfi_def_cfa 7, 8
 1696 001f C3       		ret
 1697              		.cfi_endproc
 1698              	.LFE2123:
 1700              		.section	.text._ZNSt6vectorIdSaIdEE6resizeEm,"axG",@progbits,_ZNSt6vectorIdSaIdEE6resizeEm,comdat
 1701              		.align 2
 1702              		.weak	_ZNSt6vectorIdSaIdEE6resizeEm
 1704              	_ZNSt6vectorIdSaIdEE6resizeEm:
 1705              	.LFB2124:
 689:/usr/include/c++/7/bits/stl_vector.h ****       {
 1706              		.loc 2 689 0
 1707              		.cfi_startproc
 1708 0000 55       		pushq	%rbp
 1709              		.cfi_def_cfa_offset 16
 1710              		.cfi_offset 6, -16
 1711 0001 4889E5   		movq	%rsp, %rbp
 1712              		.cfi_def_cfa_register 6
 1713 0004 4883EC10 		subq	$16, %rsp
 1714 0008 48897DF8 		movq	%rdi, -8(%rbp)
 1715 000c 488975F0 		movq	%rsi, -16(%rbp)
 691:/usr/include/c++/7/bits/stl_vector.h **** 	  _M_default_append(__new_size - size());
 1716              		.loc 2 691 0
 1717 0010 488B45F8 		movq	-8(%rbp), %rax
 1718 0014 4889C7   		movq	%rax, %rdi
 1719 0017 E8000000 		call	_ZNKSt6vectorIdSaIdEE4sizeEv
 1719      00
 1720 001c 483945F0 		cmpq	%rax, -16(%rbp)
 1721 0020 0F97C0   		seta	%al
 1722 0023 84C0     		testb	%al, %al
 1723 0025 742A     		je	.L79
 692:/usr/include/c++/7/bits/stl_vector.h **** 	else if (__new_size < size())
 1724              		.loc 2 692 0
 1725 0027 488B45F8 		movq	-8(%rbp), %rax
 1726 002b 4889C7   		movq	%rax, %rdi
 1727 002e E8000000 		call	_ZNKSt6vectorIdSaIdEE4sizeEv
 1727      00
 1728 0033 4889C2   		movq	%rax, %rdx
 1729 0036 488B45F0 		movq	-16(%rbp), %rax
 1730 003a 4829D0   		subq	%rdx, %rax
 1731 003d 4889C2   		movq	%rax, %rdx
 1732 0040 488B45F8 		movq	-8(%rbp), %rax
 1733 0044 4889D6   		movq	%rdx, %rsi
 1734 0047 4889C7   		movq	%rax, %rdi
 1735 004a E8000000 		call	_ZNSt6vectorIdSaIdEE17_M_default_appendEm
 1735      00
 695:/usr/include/c++/7/bits/stl_vector.h **** 
 1736              		.loc 2 695 0
 1737 004f EB38     		jmp	.L81
 1738              	.L79:
 693:/usr/include/c++/7/bits/stl_vector.h **** 	  _M_erase_at_end(this->_M_impl._M_start + __new_size);
 1739              		.loc 2 693 0
 1740 0051 488B45F8 		movq	-8(%rbp), %rax
 1741 0055 4889C7   		movq	%rax, %rdi
 1742 0058 E8000000 		call	_ZNKSt6vectorIdSaIdEE4sizeEv
 1742      00
 1743 005d 483945F0 		cmpq	%rax, -16(%rbp)
 1744 0061 0F92C0   		setb	%al
 1745 0064 84C0     		testb	%al, %al
 1746 0066 7421     		je	.L81
 694:/usr/include/c++/7/bits/stl_vector.h ****       }
 1747              		.loc 2 694 0
 1748 0068 488B45F8 		movq	-8(%rbp), %rax
 1749 006c 488B00   		movq	(%rax), %rax
 1750 006f 488B55F0 		movq	-16(%rbp), %rdx
 1751 0073 48C1E203 		salq	$3, %rdx
 1752 0077 4801C2   		addq	%rax, %rdx
 1753 007a 488B45F8 		movq	-8(%rbp), %rax
 1754 007e 4889D6   		movq	%rdx, %rsi
 1755 0081 4889C7   		movq	%rax, %rdi
 1756 0084 E8000000 		call	_ZNSt6vectorIdSaIdEE15_M_erase_at_endEPd
 1756      00
 1757              	.L81:
 695:/usr/include/c++/7/bits/stl_vector.h **** 
 1758              		.loc 2 695 0
 1759 0089 90       		nop
 1760 008a C9       		leave
 1761              		.cfi_def_cfa 7, 8
 1762 008b C3       		ret
 1763              		.cfi_endproc
 1764              	.LFE2124:
 1766              		.section	.text._ZNSt12_Vector_baseIdSaIdEE12_Vector_implD2Ev,"axG",@progbits,_ZNSt12_Vector_baseId
 1767              		.align 2
 1768              		.weak	_ZNSt12_Vector_baseIdSaIdEE12_Vector_implD2Ev
 1770              	_ZNSt12_Vector_baseIdSaIdEE12_Vector_implD2Ev:
 1771              	.LFB2240:
  81:/usr/include/c++/7/bits/stl_vector.h ****       : public _Tp_alloc_type
 1772              		.loc 2 81 0
 1773              		.cfi_startproc
 1774 0000 55       		pushq	%rbp
 1775              		.cfi_def_cfa_offset 16
 1776              		.cfi_offset 6, -16
 1777 0001 4889E5   		movq	%rsp, %rbp
 1778              		.cfi_def_cfa_register 6
 1779 0004 4883EC10 		subq	$16, %rsp
 1780 0008 48897DF8 		movq	%rdi, -8(%rbp)
 1781              	.LBB22:
  81:/usr/include/c++/7/bits/stl_vector.h ****       : public _Tp_alloc_type
 1782              		.loc 2 81 0
 1783 000c 488B45F8 		movq	-8(%rbp), %rax
 1784 0010 4889C7   		movq	%rax, %rdi
 1785 0013 E8000000 		call	_ZNSaIdED2Ev
 1785      00
 1786              	.LBE22:
 1787 0018 90       		nop
 1788 0019 C9       		leave
 1789              		.cfi_def_cfa 7, 8
 1790 001a C3       		ret
 1791              		.cfi_endproc
 1792              	.LFE2240:
 1794              		.weak	_ZNSt12_Vector_baseIdSaIdEE12_Vector_implD1Ev
 1795              		.set	_ZNSt12_Vector_baseIdSaIdEE12_Vector_implD1Ev,_ZNSt12_Vector_baseIdSaIdEE12_Vector_implD2Ev
 1796              		.section	.text._ZNSt12_Vector_baseIdSaIdEEC2Ev,"axG",@progbits,_ZNSt12_Vector_baseIdSaIdEEC5Ev,com
 1797              		.align 2
 1798              		.weak	_ZNSt12_Vector_baseIdSaIdEEC2Ev
 1800              	_ZNSt12_Vector_baseIdSaIdEEC2Ev:
 1801              	.LFB2242:
 126:/usr/include/c++/7/bits/stl_vector.h ****       : _M_impl() { }
 1802              		.loc 2 126 0
 1803              		.cfi_startproc
 1804 0000 55       		pushq	%rbp
 1805              		.cfi_def_cfa_offset 16
 1806              		.cfi_offset 6, -16
 1807 0001 4889E5   		movq	%rsp, %rbp
 1808              		.cfi_def_cfa_register 6
 1809 0004 4883EC10 		subq	$16, %rsp
 1810 0008 48897DF8 		movq	%rdi, -8(%rbp)
 1811              	.LBB23:
 127:/usr/include/c++/7/bits/stl_vector.h **** 
 1812              		.loc 2 127 0
 1813 000c 488B45F8 		movq	-8(%rbp), %rax
 1814 0010 4889C7   		movq	%rax, %rdi
 1815 0013 E8000000 		call	_ZNSt12_Vector_baseIdSaIdEE12_Vector_implC1Ev
 1815      00
 1816              	.LBE23:
 1817 0018 90       		nop
 1818 0019 C9       		leave
 1819              		.cfi_def_cfa 7, 8
 1820 001a C3       		ret
 1821              		.cfi_endproc
 1822              	.LFE2242:
 1824              		.weak	_ZNSt12_Vector_baseIdSaIdEEC1Ev
 1825              		.set	_ZNSt12_Vector_baseIdSaIdEEC1Ev,_ZNSt12_Vector_baseIdSaIdEEC2Ev
 1826              		.section	.text._ZNSt12_Vector_baseIdSaIdEED2Ev,"axG",@progbits,_ZNSt12_Vector_baseIdSaIdEED5Ev,com
 1827              		.align 2
 1828              		.weak	_ZNSt12_Vector_baseIdSaIdEED2Ev
 1830              	_ZNSt12_Vector_baseIdSaIdEED2Ev:
 1831              	.LFB2245:
 161:/usr/include/c++/7/bits/stl_vector.h ****       { _M_deallocate(this->_M_impl._M_start, this->_M_impl._M_end_of_storage
 1832              		.loc 2 161 0
 1833              		.cfi_startproc
 1834              		.cfi_personality 0x9b,DW.ref.__gxx_personality_v0
 1835              		.cfi_lsda 0x1b,.LLSDA2245
 1836 0000 55       		pushq	%rbp
 1837              		.cfi_def_cfa_offset 16
 1838              		.cfi_offset 6, -16
 1839 0001 4889E5   		movq	%rsp, %rbp
 1840              		.cfi_def_cfa_register 6
 1841 0004 4883EC10 		subq	$16, %rsp
 1842 0008 48897DF8 		movq	%rdi, -8(%rbp)
 1843              	.LBB24:
 162:/usr/include/c++/7/bits/stl_vector.h **** 		      - this->_M_impl._M_start); }
 1844              		.loc 2 162 0
 1845 000c 488B45F8 		movq	-8(%rbp), %rax
 1846 0010 488B4010 		movq	16(%rax), %rax
 163:/usr/include/c++/7/bits/stl_vector.h **** 
 1847              		.loc 2 163 0
 1848 0014 4889C2   		movq	%rax, %rdx
 1849 0017 488B45F8 		movq	-8(%rbp), %rax
 1850 001b 488B00   		movq	(%rax), %rax
 1851 001e 4829C2   		subq	%rax, %rdx
 1852 0021 4889D0   		movq	%rdx, %rax
 1853 0024 48C1F803 		sarq	$3, %rax
 162:/usr/include/c++/7/bits/stl_vector.h **** 		      - this->_M_impl._M_start); }
 1854              		.loc 2 162 0
 1855 0028 4889C2   		movq	%rax, %rdx
 1856 002b 488B45F8 		movq	-8(%rbp), %rax
 1857 002f 488B08   		movq	(%rax), %rcx
 1858 0032 488B45F8 		movq	-8(%rbp), %rax
 1859 0036 4889CE   		movq	%rcx, %rsi
 1860 0039 4889C7   		movq	%rax, %rdi
 1861 003c E8000000 		call	_ZNSt12_Vector_baseIdSaIdEE13_M_deallocateEPdm
 1861      00
 163:/usr/include/c++/7/bits/stl_vector.h **** 
 1862              		.loc 2 163 0
 1863 0041 488B45F8 		movq	-8(%rbp), %rax
 1864 0045 4889C7   		movq	%rax, %rdi
 1865 0048 E8000000 		call	_ZNSt12_Vector_baseIdSaIdEE12_Vector_implD1Ev
 1865      00
 1866              	.LBE24:
 1867 004d 90       		nop
 1868 004e C9       		leave
 1869              		.cfi_def_cfa 7, 8
 1870 004f C3       		ret
 1871              		.cfi_endproc
 1872              	.LFE2245:
 1873              		.section	.gcc_except_table
 1874              	.LLSDA2245:
 1875 0077 FF       		.byte	0xff
 1876 0078 FF       		.byte	0xff
 1877 0079 01       		.byte	0x1
 1878 007a 00       		.uleb128 .LLSDACSE2245-.LLSDACSB2245
 1879              	.LLSDACSB2245:
 1880              	.LLSDACSE2245:
 1881              		.section	.text._ZNSt12_Vector_baseIdSaIdEED2Ev,"axG",@progbits,_ZNSt12_Vector_baseIdSaIdEED5Ev,com
 1883              		.weak	_ZNSt12_Vector_baseIdSaIdEED1Ev
 1884              		.set	_ZNSt12_Vector_baseIdSaIdEED1Ev,_ZNSt12_Vector_baseIdSaIdEED2Ev
 1885              		.section	.text._ZNSt12_Vector_baseIdSaIdEE19_M_get_Tp_allocatorEv,"axG",@progbits,_ZNSt12_Vector_b
 1886              		.align 2
 1887              		.weak	_ZNSt12_Vector_baseIdSaIdEE19_M_get_Tp_allocatorEv
 1889              	_ZNSt12_Vector_baseIdSaIdEE19_M_get_Tp_allocatorEv:
 1890              	.LFB2247:
 115:/usr/include/c++/7/bits/stl_vector.h ****       { return *static_cast<_Tp_alloc_type*>(&this->_M_impl); }
 1891              		.loc 2 115 0
 1892              		.cfi_startproc
 1893 0000 55       		pushq	%rbp
 1894              		.cfi_def_cfa_offset 16
 1895              		.cfi_offset 6, -16
 1896 0001 4889E5   		movq	%rsp, %rbp
 1897              		.cfi_def_cfa_register 6
 1898 0004 48897DF8 		movq	%rdi, -8(%rbp)
 116:/usr/include/c++/7/bits/stl_vector.h **** 
 1899              		.loc 2 116 0
 1900 0008 488B45F8 		movq	-8(%rbp), %rax
 1901 000c 5D       		popq	%rbp
 1902              		.cfi_def_cfa 7, 8
 1903 000d C3       		ret
 1904              		.cfi_endproc
 1905              	.LFE2247:
 1907              		.section	.text._ZSt8_DestroyIPddEvT_S1_RSaIT0_E,"axG",@progbits,_ZSt8_DestroyIPddEvT_S1_RSaIT0_E,c
 1908              		.weak	_ZSt8_DestroyIPddEvT_S1_RSaIT0_E
 1910              	_ZSt8_DestroyIPddEvT_S1_RSaIT0_E:
 1911              	.LFB2248:
 1912              		.file 3 "/usr/include/c++/7/bits/stl_construct.h"
   1:/usr/include/c++/7/bits/stl_construct.h **** // nonstandard construct and destroy functions -*- C++ -*-
   2:/usr/include/c++/7/bits/stl_construct.h **** 
   3:/usr/include/c++/7/bits/stl_construct.h **** // Copyright (C) 2001-2017 Free Software Foundation, Inc.
   4:/usr/include/c++/7/bits/stl_construct.h **** //
   5:/usr/include/c++/7/bits/stl_construct.h **** // This file is part of the GNU ISO C++ Library.  This library is free
   6:/usr/include/c++/7/bits/stl_construct.h **** // software; you can redistribute it and/or modify it under the
   7:/usr/include/c++/7/bits/stl_construct.h **** // terms of the GNU General Public License as published by the
   8:/usr/include/c++/7/bits/stl_construct.h **** // Free Software Foundation; either version 3, or (at your option)
   9:/usr/include/c++/7/bits/stl_construct.h **** // any later version.
  10:/usr/include/c++/7/bits/stl_construct.h **** 
  11:/usr/include/c++/7/bits/stl_construct.h **** // This library is distributed in the hope that it will be useful,
  12:/usr/include/c++/7/bits/stl_construct.h **** // but WITHOUT ANY WARRANTY; without even the implied warranty of
  13:/usr/include/c++/7/bits/stl_construct.h **** // MERCHANTABILITY or FITNESS FOR A PARTICULAR PURPOSE.  See the
  14:/usr/include/c++/7/bits/stl_construct.h **** // GNU General Public License for more details.
  15:/usr/include/c++/7/bits/stl_construct.h **** 
  16:/usr/include/c++/7/bits/stl_construct.h **** // Under Section 7 of GPL version 3, you are granted additional
  17:/usr/include/c++/7/bits/stl_construct.h **** // permissions described in the GCC Runtime Library Exception, version
  18:/usr/include/c++/7/bits/stl_construct.h **** // 3.1, as published by the Free Software Foundation.
  19:/usr/include/c++/7/bits/stl_construct.h **** 
  20:/usr/include/c++/7/bits/stl_construct.h **** // You should have received a copy of the GNU General Public License and
  21:/usr/include/c++/7/bits/stl_construct.h **** // a copy of the GCC Runtime Library Exception along with this program;
  22:/usr/include/c++/7/bits/stl_construct.h **** // see the files COPYING3 and COPYING.RUNTIME respectively.  If not, see
  23:/usr/include/c++/7/bits/stl_construct.h **** // <http://www.gnu.org/licenses/>.
  24:/usr/include/c++/7/bits/stl_construct.h **** 
  25:/usr/include/c++/7/bits/stl_construct.h **** /*
  26:/usr/include/c++/7/bits/stl_construct.h ****  *
  27:/usr/include/c++/7/bits/stl_construct.h ****  * Copyright (c) 1994
  28:/usr/include/c++/7/bits/stl_construct.h ****  * Hewlett-Packard Company
  29:/usr/include/c++/7/bits/stl_construct.h ****  *
  30:/usr/include/c++/7/bits/stl_construct.h ****  * Permission to use, copy, modify, distribute and sell this software
  31:/usr/include/c++/7/bits/stl_construct.h ****  * and its documentation for any purpose is hereby granted without fee,
  32:/usr/include/c++/7/bits/stl_construct.h ****  * provided that the above copyright notice appear in all copies and
  33:/usr/include/c++/7/bits/stl_construct.h ****  * that both that copyright notice and this permission notice appear
  34:/usr/include/c++/7/bits/stl_construct.h ****  * in supporting documentation.  Hewlett-Packard Company makes no
  35:/usr/include/c++/7/bits/stl_construct.h ****  * representations about the suitability of this software for any
  36:/usr/include/c++/7/bits/stl_construct.h ****  * purpose.  It is provided "as is" without express or implied warranty.
  37:/usr/include/c++/7/bits/stl_construct.h ****  *
  38:/usr/include/c++/7/bits/stl_construct.h ****  *
  39:/usr/include/c++/7/bits/stl_construct.h ****  * Copyright (c) 1996,1997
  40:/usr/include/c++/7/bits/stl_construct.h ****  * Silicon Graphics Computer Systems, Inc.
  41:/usr/include/c++/7/bits/stl_construct.h ****  *
  42:/usr/include/c++/7/bits/stl_construct.h ****  * Permission to use, copy, modify, distribute and sell this software
  43:/usr/include/c++/7/bits/stl_construct.h ****  * and its documentation for any purpose is hereby granted without fee,
  44:/usr/include/c++/7/bits/stl_construct.h ****  * provided that the above copyright notice appear in all copies and
  45:/usr/include/c++/7/bits/stl_construct.h ****  * that both that copyright notice and this permission notice appear
  46:/usr/include/c++/7/bits/stl_construct.h ****  * in supporting documentation.  Silicon Graphics makes no
  47:/usr/include/c++/7/bits/stl_construct.h ****  * representations about the suitability of this software for any
  48:/usr/include/c++/7/bits/stl_construct.h ****  * purpose.  It is provided "as is" without express or implied warranty.
  49:/usr/include/c++/7/bits/stl_construct.h ****  */
  50:/usr/include/c++/7/bits/stl_construct.h **** 
  51:/usr/include/c++/7/bits/stl_construct.h **** /** @file bits/stl_construct.h
  52:/usr/include/c++/7/bits/stl_construct.h ****  *  This is an internal header file, included by other library headers.
  53:/usr/include/c++/7/bits/stl_construct.h ****  *  Do not attempt to use it directly. @headername{memory}
  54:/usr/include/c++/7/bits/stl_construct.h ****  */
  55:/usr/include/c++/7/bits/stl_construct.h **** 
  56:/usr/include/c++/7/bits/stl_construct.h **** #ifndef _STL_CONSTRUCT_H
  57:/usr/include/c++/7/bits/stl_construct.h **** #define _STL_CONSTRUCT_H 1
  58:/usr/include/c++/7/bits/stl_construct.h **** 
  59:/usr/include/c++/7/bits/stl_construct.h **** #include <new>
  60:/usr/include/c++/7/bits/stl_construct.h **** #include <bits/move.h>
  61:/usr/include/c++/7/bits/stl_construct.h **** #include <ext/alloc_traits.h>
  62:/usr/include/c++/7/bits/stl_construct.h **** 
  63:/usr/include/c++/7/bits/stl_construct.h **** namespace std _GLIBCXX_VISIBILITY(default)
  64:/usr/include/c++/7/bits/stl_construct.h **** {
  65:/usr/include/c++/7/bits/stl_construct.h **** _GLIBCXX_BEGIN_NAMESPACE_VERSION
  66:/usr/include/c++/7/bits/stl_construct.h **** 
  67:/usr/include/c++/7/bits/stl_construct.h ****   /**
  68:/usr/include/c++/7/bits/stl_construct.h ****    * Constructs an object in existing memory by invoking an allocated
  69:/usr/include/c++/7/bits/stl_construct.h ****    * object's constructor with an initializer.
  70:/usr/include/c++/7/bits/stl_construct.h ****    */
  71:/usr/include/c++/7/bits/stl_construct.h **** #if __cplusplus >= 201103L
  72:/usr/include/c++/7/bits/stl_construct.h ****   template<typename _T1, typename... _Args>
  73:/usr/include/c++/7/bits/stl_construct.h ****     inline void
  74:/usr/include/c++/7/bits/stl_construct.h ****     _Construct(_T1* __p, _Args&&... __args)
  75:/usr/include/c++/7/bits/stl_construct.h ****     { ::new(static_cast<void*>(__p)) _T1(std::forward<_Args>(__args)...); }
  76:/usr/include/c++/7/bits/stl_construct.h **** #else
  77:/usr/include/c++/7/bits/stl_construct.h ****   template<typename _T1, typename _T2>
  78:/usr/include/c++/7/bits/stl_construct.h ****     inline void
  79:/usr/include/c++/7/bits/stl_construct.h ****     _Construct(_T1* __p, const _T2& __value)
  80:/usr/include/c++/7/bits/stl_construct.h ****     {
  81:/usr/include/c++/7/bits/stl_construct.h ****       // _GLIBCXX_RESOLVE_LIB_DEFECTS
  82:/usr/include/c++/7/bits/stl_construct.h ****       // 402. wrong new expression in [some_]allocator::construct
  83:/usr/include/c++/7/bits/stl_construct.h ****       ::new(static_cast<void*>(__p)) _T1(__value);
  84:/usr/include/c++/7/bits/stl_construct.h ****     }
  85:/usr/include/c++/7/bits/stl_construct.h **** #endif
  86:/usr/include/c++/7/bits/stl_construct.h **** 
  87:/usr/include/c++/7/bits/stl_construct.h ****   template<typename _T1>
  88:/usr/include/c++/7/bits/stl_construct.h ****     inline void
  89:/usr/include/c++/7/bits/stl_construct.h ****     _Construct_novalue(_T1* __p)
  90:/usr/include/c++/7/bits/stl_construct.h ****     { ::new(static_cast<void*>(__p)) _T1; }
  91:/usr/include/c++/7/bits/stl_construct.h **** 
  92:/usr/include/c++/7/bits/stl_construct.h ****   /**
  93:/usr/include/c++/7/bits/stl_construct.h ****    * Destroy the object pointed to by a pointer type.
  94:/usr/include/c++/7/bits/stl_construct.h ****    */
  95:/usr/include/c++/7/bits/stl_construct.h ****   template<typename _Tp>
  96:/usr/include/c++/7/bits/stl_construct.h ****     inline void
  97:/usr/include/c++/7/bits/stl_construct.h ****     _Destroy(_Tp* __pointer)
  98:/usr/include/c++/7/bits/stl_construct.h ****     { __pointer->~_Tp(); }
  99:/usr/include/c++/7/bits/stl_construct.h **** 
 100:/usr/include/c++/7/bits/stl_construct.h ****   template<bool>
 101:/usr/include/c++/7/bits/stl_construct.h ****     struct _Destroy_aux
 102:/usr/include/c++/7/bits/stl_construct.h ****     {
 103:/usr/include/c++/7/bits/stl_construct.h ****       template<typename _ForwardIterator>
 104:/usr/include/c++/7/bits/stl_construct.h ****         static void
 105:/usr/include/c++/7/bits/stl_construct.h ****         __destroy(_ForwardIterator __first, _ForwardIterator __last)
 106:/usr/include/c++/7/bits/stl_construct.h **** 	{
 107:/usr/include/c++/7/bits/stl_construct.h **** 	  for (; __first != __last; ++__first)
 108:/usr/include/c++/7/bits/stl_construct.h **** 	    std::_Destroy(std::__addressof(*__first));
 109:/usr/include/c++/7/bits/stl_construct.h **** 	}
 110:/usr/include/c++/7/bits/stl_construct.h ****     };
 111:/usr/include/c++/7/bits/stl_construct.h **** 
 112:/usr/include/c++/7/bits/stl_construct.h ****   template<>
 113:/usr/include/c++/7/bits/stl_construct.h ****     struct _Destroy_aux<true>
 114:/usr/include/c++/7/bits/stl_construct.h ****     {
 115:/usr/include/c++/7/bits/stl_construct.h ****       template<typename _ForwardIterator>
 116:/usr/include/c++/7/bits/stl_construct.h ****         static void
 117:/usr/include/c++/7/bits/stl_construct.h ****         __destroy(_ForwardIterator, _ForwardIterator) { }
 118:/usr/include/c++/7/bits/stl_construct.h ****     };
 119:/usr/include/c++/7/bits/stl_construct.h **** 
 120:/usr/include/c++/7/bits/stl_construct.h ****   /**
 121:/usr/include/c++/7/bits/stl_construct.h ****    * Destroy a range of objects.  If the value_type of the object has
 122:/usr/include/c++/7/bits/stl_construct.h ****    * a trivial destructor, the compiler should optimize all of this
 123:/usr/include/c++/7/bits/stl_construct.h ****    * away, otherwise the objects' destructors must be invoked.
 124:/usr/include/c++/7/bits/stl_construct.h ****    */
 125:/usr/include/c++/7/bits/stl_construct.h ****   template<typename _ForwardIterator>
 126:/usr/include/c++/7/bits/stl_construct.h ****     inline void
 127:/usr/include/c++/7/bits/stl_construct.h ****     _Destroy(_ForwardIterator __first, _ForwardIterator __last)
 128:/usr/include/c++/7/bits/stl_construct.h ****     {
 129:/usr/include/c++/7/bits/stl_construct.h ****       typedef typename iterator_traits<_ForwardIterator>::value_type
 130:/usr/include/c++/7/bits/stl_construct.h ****                        _Value_type;
 131:/usr/include/c++/7/bits/stl_construct.h **** #if __cplusplus >= 201103L
 132:/usr/include/c++/7/bits/stl_construct.h ****       // A deleted destructor is trivial, this ensures we reject such types:
 133:/usr/include/c++/7/bits/stl_construct.h ****       static_assert(is_destructible<_Value_type>::value,
 134:/usr/include/c++/7/bits/stl_construct.h **** 		    "value type is destructible");
 135:/usr/include/c++/7/bits/stl_construct.h **** #endif
 136:/usr/include/c++/7/bits/stl_construct.h ****       std::_Destroy_aux<__has_trivial_destructor(_Value_type)>::
 137:/usr/include/c++/7/bits/stl_construct.h **** 	__destroy(__first, __last);
 138:/usr/include/c++/7/bits/stl_construct.h ****     }
 139:/usr/include/c++/7/bits/stl_construct.h **** 
 140:/usr/include/c++/7/bits/stl_construct.h ****   template<bool>
 141:/usr/include/c++/7/bits/stl_construct.h ****     struct _Destroy_n_aux
 142:/usr/include/c++/7/bits/stl_construct.h ****     {
 143:/usr/include/c++/7/bits/stl_construct.h ****       template<typename _ForwardIterator, typename _Size>
 144:/usr/include/c++/7/bits/stl_construct.h ****         static _ForwardIterator
 145:/usr/include/c++/7/bits/stl_construct.h ****         __destroy_n(_ForwardIterator __first, _Size __count)
 146:/usr/include/c++/7/bits/stl_construct.h **** 	{
 147:/usr/include/c++/7/bits/stl_construct.h **** 	  for (; __count > 0; (void)++__first, --__count)
 148:/usr/include/c++/7/bits/stl_construct.h **** 	    std::_Destroy(std::__addressof(*__first));
 149:/usr/include/c++/7/bits/stl_construct.h **** 	  return __first;
 150:/usr/include/c++/7/bits/stl_construct.h **** 	}
 151:/usr/include/c++/7/bits/stl_construct.h ****     };
 152:/usr/include/c++/7/bits/stl_construct.h **** 
 153:/usr/include/c++/7/bits/stl_construct.h ****   template<>
 154:/usr/include/c++/7/bits/stl_construct.h ****     struct _Destroy_n_aux<true>
 155:/usr/include/c++/7/bits/stl_construct.h ****     {
 156:/usr/include/c++/7/bits/stl_construct.h ****       template<typename _ForwardIterator, typename _Size>
 157:/usr/include/c++/7/bits/stl_construct.h ****         static _ForwardIterator
 158:/usr/include/c++/7/bits/stl_construct.h ****         __destroy_n(_ForwardIterator __first, _Size __count)
 159:/usr/include/c++/7/bits/stl_construct.h **** 	{
 160:/usr/include/c++/7/bits/stl_construct.h **** 	  std::advance(__first, __count);
 161:/usr/include/c++/7/bits/stl_construct.h **** 	  return __first;
 162:/usr/include/c++/7/bits/stl_construct.h **** 	}
 163:/usr/include/c++/7/bits/stl_construct.h ****     };
 164:/usr/include/c++/7/bits/stl_construct.h **** 
 165:/usr/include/c++/7/bits/stl_construct.h ****   /**
 166:/usr/include/c++/7/bits/stl_construct.h ****    * Destroy a range of objects.  If the value_type of the object has
 167:/usr/include/c++/7/bits/stl_construct.h ****    * a trivial destructor, the compiler should optimize all of this
 168:/usr/include/c++/7/bits/stl_construct.h ****    * away, otherwise the objects' destructors must be invoked.
 169:/usr/include/c++/7/bits/stl_construct.h ****    */
 170:/usr/include/c++/7/bits/stl_construct.h ****   template<typename _ForwardIterator, typename _Size>
 171:/usr/include/c++/7/bits/stl_construct.h ****     inline _ForwardIterator
 172:/usr/include/c++/7/bits/stl_construct.h ****     _Destroy_n(_ForwardIterator __first, _Size __count)
 173:/usr/include/c++/7/bits/stl_construct.h ****     {
 174:/usr/include/c++/7/bits/stl_construct.h ****       typedef typename iterator_traits<_ForwardIterator>::value_type
 175:/usr/include/c++/7/bits/stl_construct.h ****                        _Value_type;
 176:/usr/include/c++/7/bits/stl_construct.h **** #if __cplusplus >= 201103L
 177:/usr/include/c++/7/bits/stl_construct.h ****       // A deleted destructor is trivial, this ensures we reject such types:
 178:/usr/include/c++/7/bits/stl_construct.h ****       static_assert(is_destructible<_Value_type>::value,
 179:/usr/include/c++/7/bits/stl_construct.h **** 		    "value type is destructible");
 180:/usr/include/c++/7/bits/stl_construct.h **** #endif
 181:/usr/include/c++/7/bits/stl_construct.h ****       return std::_Destroy_n_aux<__has_trivial_destructor(_Value_type)>::
 182:/usr/include/c++/7/bits/stl_construct.h **** 	__destroy_n(__first, __count);
 183:/usr/include/c++/7/bits/stl_construct.h ****     }
 184:/usr/include/c++/7/bits/stl_construct.h **** 
 185:/usr/include/c++/7/bits/stl_construct.h ****   /**
 186:/usr/include/c++/7/bits/stl_construct.h ****    * Destroy a range of objects using the supplied allocator.  For
 187:/usr/include/c++/7/bits/stl_construct.h ****    * nondefault allocators we do not optimize away invocation of 
 188:/usr/include/c++/7/bits/stl_construct.h ****    * destroy() even if _Tp has a trivial destructor.
 189:/usr/include/c++/7/bits/stl_construct.h ****    */
 190:/usr/include/c++/7/bits/stl_construct.h **** 
 191:/usr/include/c++/7/bits/stl_construct.h ****   template<typename _ForwardIterator, typename _Allocator>
 192:/usr/include/c++/7/bits/stl_construct.h ****     void
 193:/usr/include/c++/7/bits/stl_construct.h ****     _Destroy(_ForwardIterator __first, _ForwardIterator __last,
 194:/usr/include/c++/7/bits/stl_construct.h **** 	     _Allocator& __alloc)
 195:/usr/include/c++/7/bits/stl_construct.h ****     {
 196:/usr/include/c++/7/bits/stl_construct.h ****       typedef __gnu_cxx::__alloc_traits<_Allocator> __traits;
 197:/usr/include/c++/7/bits/stl_construct.h ****       for (; __first != __last; ++__first)
 198:/usr/include/c++/7/bits/stl_construct.h **** 	__traits::destroy(__alloc, std::__addressof(*__first));
 199:/usr/include/c++/7/bits/stl_construct.h ****     }
 200:/usr/include/c++/7/bits/stl_construct.h **** 
 201:/usr/include/c++/7/bits/stl_construct.h ****   template<typename _ForwardIterator, typename _Tp>
 202:/usr/include/c++/7/bits/stl_construct.h ****     inline void
 203:/usr/include/c++/7/bits/stl_construct.h ****     _Destroy(_ForwardIterator __first, _ForwardIterator __last,
 1913              		.loc 3 203 0
 1914              		.cfi_startproc
 1915 0000 55       		pushq	%rbp
 1916              		.cfi_def_cfa_offset 16
 1917              		.cfi_offset 6, -16
 1918 0001 4889E5   		movq	%rsp, %rbp
 1919              		.cfi_def_cfa_register 6
 1920 0004 4883EC20 		subq	$32, %rsp
 1921 0008 48897DF8 		movq	%rdi, -8(%rbp)
 1922 000c 488975F0 		movq	%rsi, -16(%rbp)
 1923 0010 488955E8 		movq	%rdx, -24(%rbp)
 204:/usr/include/c++/7/bits/stl_construct.h **** 	     allocator<_Tp>&)
 205:/usr/include/c++/7/bits/stl_construct.h ****     {
 206:/usr/include/c++/7/bits/stl_construct.h ****       _Destroy(__first, __last);
 1924              		.loc 3 206 0
 1925 0014 488B55F0 		movq	-16(%rbp), %rdx
 1926 0018 488B45F8 		movq	-8(%rbp), %rax
 1927 001c 4889D6   		movq	%rdx, %rsi
 1928 001f 4889C7   		movq	%rax, %rdi
 1929 0022 E8000000 		call	_ZSt8_DestroyIPdEvT_S1_
 1929      00
 207:/usr/include/c++/7/bits/stl_construct.h ****     }
 1930              		.loc 3 207 0
 1931 0027 90       		nop
 1932 0028 C9       		leave
 1933              		.cfi_def_cfa 7, 8
 1934 0029 C3       		ret
 1935              		.cfi_endproc
 1936              	.LFE2248:
 1938              		.section	.rodata
 1939              	.LC28:
 1940 01ae 76656374 		.string	"vector::_M_default_append"
 1940      6F723A3A 
 1940      5F4D5F64 
 1940      65666175 
 1940      6C745F61 
 1941              		.section	.text._ZNSt6vectorIdSaIdEE17_M_default_appendEm,"axG",@progbits,_ZNSt6vectorIdSaIdEE17_M_
 1942              		.align 2
 1943              		.weak	_ZNSt6vectorIdSaIdEE17_M_default_appendEm
 1945              	_ZNSt6vectorIdSaIdEE17_M_default_appendEm:
 1946              	.LFB2258:
 1947              		.file 4 "/usr/include/c++/7/bits/vector.tcc"
   1:/usr/include/c++/7/bits/vector.tcc **** // Vector implementation (out of line) -*- C++ -*-
   2:/usr/include/c++/7/bits/vector.tcc **** 
   3:/usr/include/c++/7/bits/vector.tcc **** // Copyright (C) 2001-2017 Free Software Foundation, Inc.
   4:/usr/include/c++/7/bits/vector.tcc **** //
   5:/usr/include/c++/7/bits/vector.tcc **** // This file is part of the GNU ISO C++ Library.  This library is free
   6:/usr/include/c++/7/bits/vector.tcc **** // software; you can redistribute it and/or modify it under the
   7:/usr/include/c++/7/bits/vector.tcc **** // terms of the GNU General Public License as published by the
   8:/usr/include/c++/7/bits/vector.tcc **** // Free Software Foundation; either version 3, or (at your option)
   9:/usr/include/c++/7/bits/vector.tcc **** // any later version.
  10:/usr/include/c++/7/bits/vector.tcc **** 
  11:/usr/include/c++/7/bits/vector.tcc **** // This library is distributed in the hope that it will be useful,
  12:/usr/include/c++/7/bits/vector.tcc **** // but WITHOUT ANY WARRANTY; without even the implied warranty of
  13:/usr/include/c++/7/bits/vector.tcc **** // MERCHANTABILITY or FITNESS FOR A PARTICULAR PURPOSE.  See the
  14:/usr/include/c++/7/bits/vector.tcc **** // GNU General Public License for more details.
  15:/usr/include/c++/7/bits/vector.tcc **** 
  16:/usr/include/c++/7/bits/vector.tcc **** // Under Section 7 of GPL version 3, you are granted additional
  17:/usr/include/c++/7/bits/vector.tcc **** // permissions described in the GCC Runtime Library Exception, version
  18:/usr/include/c++/7/bits/vector.tcc **** // 3.1, as published by the Free Software Foundation.
  19:/usr/include/c++/7/bits/vector.tcc **** 
  20:/usr/include/c++/7/bits/vector.tcc **** // You should have received a copy of the GNU General Public License and
  21:/usr/include/c++/7/bits/vector.tcc **** // a copy of the GCC Runtime Library Exception along with this program;
  22:/usr/include/c++/7/bits/vector.tcc **** // see the files COPYING3 and COPYING.RUNTIME respectively.  If not, see
  23:/usr/include/c++/7/bits/vector.tcc **** // <http://www.gnu.org/licenses/>.
  24:/usr/include/c++/7/bits/vector.tcc **** 
  25:/usr/include/c++/7/bits/vector.tcc **** /*
  26:/usr/include/c++/7/bits/vector.tcc ****  *
  27:/usr/include/c++/7/bits/vector.tcc ****  * Copyright (c) 1994
  28:/usr/include/c++/7/bits/vector.tcc ****  * Hewlett-Packard Company
  29:/usr/include/c++/7/bits/vector.tcc ****  *
  30:/usr/include/c++/7/bits/vector.tcc ****  * Permission to use, copy, modify, distribute and sell this software
  31:/usr/include/c++/7/bits/vector.tcc ****  * and its documentation for any purpose is hereby granted without fee,
  32:/usr/include/c++/7/bits/vector.tcc ****  * provided that the above copyright notice appear in all copies and
  33:/usr/include/c++/7/bits/vector.tcc ****  * that both that copyright notice and this permission notice appear
  34:/usr/include/c++/7/bits/vector.tcc ****  * in supporting documentation.  Hewlett-Packard Company makes no
  35:/usr/include/c++/7/bits/vector.tcc ****  * representations about the suitability of this software for any
  36:/usr/include/c++/7/bits/vector.tcc ****  * purpose.  It is provided "as is" without express or implied warranty.
  37:/usr/include/c++/7/bits/vector.tcc ****  *
  38:/usr/include/c++/7/bits/vector.tcc ****  *
  39:/usr/include/c++/7/bits/vector.tcc ****  * Copyright (c) 1996
  40:/usr/include/c++/7/bits/vector.tcc ****  * Silicon Graphics Computer Systems, Inc.
  41:/usr/include/c++/7/bits/vector.tcc ****  *
  42:/usr/include/c++/7/bits/vector.tcc ****  * Permission to use, copy, modify, distribute and sell this software
  43:/usr/include/c++/7/bits/vector.tcc ****  * and its documentation for any purpose is hereby granted without fee,
  44:/usr/include/c++/7/bits/vector.tcc ****  * provided that the above copyright notice appear in all copies and
  45:/usr/include/c++/7/bits/vector.tcc ****  * that both that copyright notice and this permission notice appear
  46:/usr/include/c++/7/bits/vector.tcc ****  * in supporting documentation.  Silicon Graphics makes no
  47:/usr/include/c++/7/bits/vector.tcc ****  * representations about the suitability of this  software for any
  48:/usr/include/c++/7/bits/vector.tcc ****  * purpose.  It is provided "as is" without express or implied warranty.
  49:/usr/include/c++/7/bits/vector.tcc ****  */
  50:/usr/include/c++/7/bits/vector.tcc **** 
  51:/usr/include/c++/7/bits/vector.tcc **** /** @file bits/vector.tcc
  52:/usr/include/c++/7/bits/vector.tcc ****  *  This is an internal header file, included by other library headers.
  53:/usr/include/c++/7/bits/vector.tcc ****  *  Do not attempt to use it directly. @headername{vector}
  54:/usr/include/c++/7/bits/vector.tcc ****  */
  55:/usr/include/c++/7/bits/vector.tcc **** 
  56:/usr/include/c++/7/bits/vector.tcc **** #ifndef _VECTOR_TCC
  57:/usr/include/c++/7/bits/vector.tcc **** #define _VECTOR_TCC 1
  58:/usr/include/c++/7/bits/vector.tcc **** 
  59:/usr/include/c++/7/bits/vector.tcc **** namespace std _GLIBCXX_VISIBILITY(default)
  60:/usr/include/c++/7/bits/vector.tcc **** {
  61:/usr/include/c++/7/bits/vector.tcc **** _GLIBCXX_BEGIN_NAMESPACE_CONTAINER
  62:/usr/include/c++/7/bits/vector.tcc **** 
  63:/usr/include/c++/7/bits/vector.tcc ****   template<typename _Tp, typename _Alloc>
  64:/usr/include/c++/7/bits/vector.tcc ****     void
  65:/usr/include/c++/7/bits/vector.tcc ****     vector<_Tp, _Alloc>::
  66:/usr/include/c++/7/bits/vector.tcc ****     reserve(size_type __n)
  67:/usr/include/c++/7/bits/vector.tcc ****     {
  68:/usr/include/c++/7/bits/vector.tcc ****       if (__n > this->max_size())
  69:/usr/include/c++/7/bits/vector.tcc **** 	__throw_length_error(__N("vector::reserve"));
  70:/usr/include/c++/7/bits/vector.tcc ****       if (this->capacity() < __n)
  71:/usr/include/c++/7/bits/vector.tcc **** 	{
  72:/usr/include/c++/7/bits/vector.tcc **** 	  const size_type __old_size = size();
  73:/usr/include/c++/7/bits/vector.tcc **** 	  pointer __tmp = _M_allocate_and_copy(__n,
  74:/usr/include/c++/7/bits/vector.tcc **** 	    _GLIBCXX_MAKE_MOVE_IF_NOEXCEPT_ITERATOR(this->_M_impl._M_start),
  75:/usr/include/c++/7/bits/vector.tcc **** 	    _GLIBCXX_MAKE_MOVE_IF_NOEXCEPT_ITERATOR(this->_M_impl._M_finish));
  76:/usr/include/c++/7/bits/vector.tcc **** 	  std::_Destroy(this->_M_impl._M_start, this->_M_impl._M_finish,
  77:/usr/include/c++/7/bits/vector.tcc **** 			_M_get_Tp_allocator());
  78:/usr/include/c++/7/bits/vector.tcc **** 	  _M_deallocate(this->_M_impl._M_start,
  79:/usr/include/c++/7/bits/vector.tcc **** 			this->_M_impl._M_end_of_storage
  80:/usr/include/c++/7/bits/vector.tcc **** 			- this->_M_impl._M_start);
  81:/usr/include/c++/7/bits/vector.tcc **** 	  this->_M_impl._M_start = __tmp;
  82:/usr/include/c++/7/bits/vector.tcc **** 	  this->_M_impl._M_finish = __tmp + __old_size;
  83:/usr/include/c++/7/bits/vector.tcc **** 	  this->_M_impl._M_end_of_storage = this->_M_impl._M_start + __n;
  84:/usr/include/c++/7/bits/vector.tcc **** 	}
  85:/usr/include/c++/7/bits/vector.tcc ****     }
  86:/usr/include/c++/7/bits/vector.tcc **** 
  87:/usr/include/c++/7/bits/vector.tcc **** #if __cplusplus >= 201103L
  88:/usr/include/c++/7/bits/vector.tcc ****   template<typename _Tp, typename _Alloc>
  89:/usr/include/c++/7/bits/vector.tcc ****     template<typename... _Args>
  90:/usr/include/c++/7/bits/vector.tcc **** #if __cplusplus > 201402L
  91:/usr/include/c++/7/bits/vector.tcc ****       typename vector<_Tp, _Alloc>::reference
  92:/usr/include/c++/7/bits/vector.tcc **** #else
  93:/usr/include/c++/7/bits/vector.tcc ****       void
  94:/usr/include/c++/7/bits/vector.tcc **** #endif
  95:/usr/include/c++/7/bits/vector.tcc ****       vector<_Tp, _Alloc>::
  96:/usr/include/c++/7/bits/vector.tcc ****       emplace_back(_Args&&... __args)
  97:/usr/include/c++/7/bits/vector.tcc ****       {
  98:/usr/include/c++/7/bits/vector.tcc **** 	if (this->_M_impl._M_finish != this->_M_impl._M_end_of_storage)
  99:/usr/include/c++/7/bits/vector.tcc **** 	  {
 100:/usr/include/c++/7/bits/vector.tcc **** 	    _Alloc_traits::construct(this->_M_impl, this->_M_impl._M_finish,
 101:/usr/include/c++/7/bits/vector.tcc **** 				     std::forward<_Args>(__args)...);
 102:/usr/include/c++/7/bits/vector.tcc **** 	    ++this->_M_impl._M_finish;
 103:/usr/include/c++/7/bits/vector.tcc **** 	  }
 104:/usr/include/c++/7/bits/vector.tcc **** 	else
 105:/usr/include/c++/7/bits/vector.tcc **** 	  _M_realloc_insert(end(), std::forward<_Args>(__args)...);
 106:/usr/include/c++/7/bits/vector.tcc **** #if __cplusplus > 201402L
 107:/usr/include/c++/7/bits/vector.tcc **** 	return back();
 108:/usr/include/c++/7/bits/vector.tcc **** #endif
 109:/usr/include/c++/7/bits/vector.tcc ****       }
 110:/usr/include/c++/7/bits/vector.tcc **** #endif
 111:/usr/include/c++/7/bits/vector.tcc **** 
 112:/usr/include/c++/7/bits/vector.tcc ****   template<typename _Tp, typename _Alloc>
 113:/usr/include/c++/7/bits/vector.tcc ****     typename vector<_Tp, _Alloc>::iterator
 114:/usr/include/c++/7/bits/vector.tcc ****     vector<_Tp, _Alloc>::
 115:/usr/include/c++/7/bits/vector.tcc **** #if __cplusplus >= 201103L
 116:/usr/include/c++/7/bits/vector.tcc ****     insert(const_iterator __position, const value_type& __x)
 117:/usr/include/c++/7/bits/vector.tcc **** #else
 118:/usr/include/c++/7/bits/vector.tcc ****     insert(iterator __position, const value_type& __x)
 119:/usr/include/c++/7/bits/vector.tcc **** #endif
 120:/usr/include/c++/7/bits/vector.tcc ****     {
 121:/usr/include/c++/7/bits/vector.tcc ****       const size_type __n = __position - begin();
 122:/usr/include/c++/7/bits/vector.tcc ****       if (this->_M_impl._M_finish != this->_M_impl._M_end_of_storage)
 123:/usr/include/c++/7/bits/vector.tcc **** 	if (__position == end())
 124:/usr/include/c++/7/bits/vector.tcc **** 	  {
 125:/usr/include/c++/7/bits/vector.tcc **** 	    _Alloc_traits::construct(this->_M_impl, this->_M_impl._M_finish,
 126:/usr/include/c++/7/bits/vector.tcc **** 				     __x);
 127:/usr/include/c++/7/bits/vector.tcc **** 	    ++this->_M_impl._M_finish;
 128:/usr/include/c++/7/bits/vector.tcc **** 	  }
 129:/usr/include/c++/7/bits/vector.tcc **** 	else
 130:/usr/include/c++/7/bits/vector.tcc **** 	  {
 131:/usr/include/c++/7/bits/vector.tcc **** #if __cplusplus >= 201103L
 132:/usr/include/c++/7/bits/vector.tcc **** 	    const auto __pos = begin() + (__position - cbegin());
 133:/usr/include/c++/7/bits/vector.tcc **** 	    // __x could be an existing element of this vector, so make a
 134:/usr/include/c++/7/bits/vector.tcc **** 	    // copy of it before _M_insert_aux moves elements around.
 135:/usr/include/c++/7/bits/vector.tcc **** 	    _Temporary_value __x_copy(this, __x);
 136:/usr/include/c++/7/bits/vector.tcc **** 	    _M_insert_aux(__pos, std::move(__x_copy._M_val()));
 137:/usr/include/c++/7/bits/vector.tcc **** #else
 138:/usr/include/c++/7/bits/vector.tcc **** 	    _M_insert_aux(__position, __x);
 139:/usr/include/c++/7/bits/vector.tcc **** #endif
 140:/usr/include/c++/7/bits/vector.tcc **** 	  }
 141:/usr/include/c++/7/bits/vector.tcc ****       else
 142:/usr/include/c++/7/bits/vector.tcc **** #if __cplusplus >= 201103L
 143:/usr/include/c++/7/bits/vector.tcc **** 	_M_realloc_insert(begin() + (__position - cbegin()), __x);
 144:/usr/include/c++/7/bits/vector.tcc **** #else
 145:/usr/include/c++/7/bits/vector.tcc **** 	_M_realloc_insert(__position, __x);
 146:/usr/include/c++/7/bits/vector.tcc **** #endif
 147:/usr/include/c++/7/bits/vector.tcc **** 
 148:/usr/include/c++/7/bits/vector.tcc ****       return iterator(this->_M_impl._M_start + __n);
 149:/usr/include/c++/7/bits/vector.tcc ****     }
 150:/usr/include/c++/7/bits/vector.tcc **** 
 151:/usr/include/c++/7/bits/vector.tcc ****   template<typename _Tp, typename _Alloc>
 152:/usr/include/c++/7/bits/vector.tcc ****     typename vector<_Tp, _Alloc>::iterator
 153:/usr/include/c++/7/bits/vector.tcc ****     vector<_Tp, _Alloc>::
 154:/usr/include/c++/7/bits/vector.tcc ****     _M_erase(iterator __position)
 155:/usr/include/c++/7/bits/vector.tcc ****     {
 156:/usr/include/c++/7/bits/vector.tcc ****       if (__position + 1 != end())
 157:/usr/include/c++/7/bits/vector.tcc **** 	_GLIBCXX_MOVE3(__position + 1, end(), __position);
 158:/usr/include/c++/7/bits/vector.tcc ****       --this->_M_impl._M_finish;
 159:/usr/include/c++/7/bits/vector.tcc ****       _Alloc_traits::destroy(this->_M_impl, this->_M_impl._M_finish);
 160:/usr/include/c++/7/bits/vector.tcc ****       return __position;
 161:/usr/include/c++/7/bits/vector.tcc ****     }
 162:/usr/include/c++/7/bits/vector.tcc **** 
 163:/usr/include/c++/7/bits/vector.tcc ****   template<typename _Tp, typename _Alloc>
 164:/usr/include/c++/7/bits/vector.tcc ****     typename vector<_Tp, _Alloc>::iterator
 165:/usr/include/c++/7/bits/vector.tcc ****     vector<_Tp, _Alloc>::
 166:/usr/include/c++/7/bits/vector.tcc ****     _M_erase(iterator __first, iterator __last)
 167:/usr/include/c++/7/bits/vector.tcc ****     {
 168:/usr/include/c++/7/bits/vector.tcc ****       if (__first != __last)
 169:/usr/include/c++/7/bits/vector.tcc **** 	{
 170:/usr/include/c++/7/bits/vector.tcc **** 	  if (__last != end())
 171:/usr/include/c++/7/bits/vector.tcc **** 	    _GLIBCXX_MOVE3(__last, end(), __first);
 172:/usr/include/c++/7/bits/vector.tcc **** 	  _M_erase_at_end(__first.base() + (end() - __last));
 173:/usr/include/c++/7/bits/vector.tcc **** 	}
 174:/usr/include/c++/7/bits/vector.tcc ****       return __first;
 175:/usr/include/c++/7/bits/vector.tcc ****     }
 176:/usr/include/c++/7/bits/vector.tcc **** 
 177:/usr/include/c++/7/bits/vector.tcc ****   template<typename _Tp, typename _Alloc>
 178:/usr/include/c++/7/bits/vector.tcc ****     vector<_Tp, _Alloc>&
 179:/usr/include/c++/7/bits/vector.tcc ****     vector<_Tp, _Alloc>::
 180:/usr/include/c++/7/bits/vector.tcc ****     operator=(const vector<_Tp, _Alloc>& __x)
 181:/usr/include/c++/7/bits/vector.tcc ****     {
 182:/usr/include/c++/7/bits/vector.tcc ****       if (&__x != this)
 183:/usr/include/c++/7/bits/vector.tcc **** 	{
 184:/usr/include/c++/7/bits/vector.tcc **** #if __cplusplus >= 201103L
 185:/usr/include/c++/7/bits/vector.tcc **** 	  if (_Alloc_traits::_S_propagate_on_copy_assign())
 186:/usr/include/c++/7/bits/vector.tcc **** 	    {
 187:/usr/include/c++/7/bits/vector.tcc **** 	      if (!_Alloc_traits::_S_always_equal()
 188:/usr/include/c++/7/bits/vector.tcc **** 	          && _M_get_Tp_allocator() != __x._M_get_Tp_allocator())
 189:/usr/include/c++/7/bits/vector.tcc **** 	        {
 190:/usr/include/c++/7/bits/vector.tcc **** 		  // replacement allocator cannot free existing storage
 191:/usr/include/c++/7/bits/vector.tcc **** 		  this->clear();
 192:/usr/include/c++/7/bits/vector.tcc **** 		  _M_deallocate(this->_M_impl._M_start,
 193:/usr/include/c++/7/bits/vector.tcc **** 				this->_M_impl._M_end_of_storage
 194:/usr/include/c++/7/bits/vector.tcc **** 				- this->_M_impl._M_start);
 195:/usr/include/c++/7/bits/vector.tcc **** 		  this->_M_impl._M_start = nullptr;
 196:/usr/include/c++/7/bits/vector.tcc **** 		  this->_M_impl._M_finish = nullptr;
 197:/usr/include/c++/7/bits/vector.tcc **** 		  this->_M_impl._M_end_of_storage = nullptr;
 198:/usr/include/c++/7/bits/vector.tcc **** 		}
 199:/usr/include/c++/7/bits/vector.tcc **** 	      std::__alloc_on_copy(_M_get_Tp_allocator(),
 200:/usr/include/c++/7/bits/vector.tcc **** 				   __x._M_get_Tp_allocator());
 201:/usr/include/c++/7/bits/vector.tcc **** 	    }
 202:/usr/include/c++/7/bits/vector.tcc **** #endif
 203:/usr/include/c++/7/bits/vector.tcc **** 	  const size_type __xlen = __x.size();
 204:/usr/include/c++/7/bits/vector.tcc **** 	  if (__xlen > capacity())
 205:/usr/include/c++/7/bits/vector.tcc **** 	    {
 206:/usr/include/c++/7/bits/vector.tcc **** 	      pointer __tmp = _M_allocate_and_copy(__xlen, __x.begin(),
 207:/usr/include/c++/7/bits/vector.tcc **** 						   __x.end());
 208:/usr/include/c++/7/bits/vector.tcc **** 	      std::_Destroy(this->_M_impl._M_start, this->_M_impl._M_finish,
 209:/usr/include/c++/7/bits/vector.tcc **** 			    _M_get_Tp_allocator());
 210:/usr/include/c++/7/bits/vector.tcc **** 	      _M_deallocate(this->_M_impl._M_start,
 211:/usr/include/c++/7/bits/vector.tcc **** 			    this->_M_impl._M_end_of_storage
 212:/usr/include/c++/7/bits/vector.tcc **** 			    - this->_M_impl._M_start);
 213:/usr/include/c++/7/bits/vector.tcc **** 	      this->_M_impl._M_start = __tmp;
 214:/usr/include/c++/7/bits/vector.tcc **** 	      this->_M_impl._M_end_of_storage = this->_M_impl._M_start + __xlen;
 215:/usr/include/c++/7/bits/vector.tcc **** 	    }
 216:/usr/include/c++/7/bits/vector.tcc **** 	  else if (size() >= __xlen)
 217:/usr/include/c++/7/bits/vector.tcc **** 	    {
 218:/usr/include/c++/7/bits/vector.tcc **** 	      std::_Destroy(std::copy(__x.begin(), __x.end(), begin()),
 219:/usr/include/c++/7/bits/vector.tcc **** 			    end(), _M_get_Tp_allocator());
 220:/usr/include/c++/7/bits/vector.tcc **** 	    }
 221:/usr/include/c++/7/bits/vector.tcc **** 	  else
 222:/usr/include/c++/7/bits/vector.tcc **** 	    {
 223:/usr/include/c++/7/bits/vector.tcc **** 	      std::copy(__x._M_impl._M_start, __x._M_impl._M_start + size(),
 224:/usr/include/c++/7/bits/vector.tcc **** 			this->_M_impl._M_start);
 225:/usr/include/c++/7/bits/vector.tcc **** 	      std::__uninitialized_copy_a(__x._M_impl._M_start + size(),
 226:/usr/include/c++/7/bits/vector.tcc **** 					  __x._M_impl._M_finish,
 227:/usr/include/c++/7/bits/vector.tcc **** 					  this->_M_impl._M_finish,
 228:/usr/include/c++/7/bits/vector.tcc **** 					  _M_get_Tp_allocator());
 229:/usr/include/c++/7/bits/vector.tcc **** 	    }
 230:/usr/include/c++/7/bits/vector.tcc **** 	  this->_M_impl._M_finish = this->_M_impl._M_start + __xlen;
 231:/usr/include/c++/7/bits/vector.tcc **** 	}
 232:/usr/include/c++/7/bits/vector.tcc ****       return *this;
 233:/usr/include/c++/7/bits/vector.tcc ****     }
 234:/usr/include/c++/7/bits/vector.tcc **** 
 235:/usr/include/c++/7/bits/vector.tcc ****   template<typename _Tp, typename _Alloc>
 236:/usr/include/c++/7/bits/vector.tcc ****     void
 237:/usr/include/c++/7/bits/vector.tcc ****     vector<_Tp, _Alloc>::
 238:/usr/include/c++/7/bits/vector.tcc ****     _M_fill_assign(size_t __n, const value_type& __val)
 239:/usr/include/c++/7/bits/vector.tcc ****     {
 240:/usr/include/c++/7/bits/vector.tcc ****       if (__n > capacity())
 241:/usr/include/c++/7/bits/vector.tcc **** 	{
 242:/usr/include/c++/7/bits/vector.tcc **** 	  vector __tmp(__n, __val, _M_get_Tp_allocator());
 243:/usr/include/c++/7/bits/vector.tcc **** 	  __tmp._M_impl._M_swap_data(this->_M_impl);
 244:/usr/include/c++/7/bits/vector.tcc **** 	}
 245:/usr/include/c++/7/bits/vector.tcc ****       else if (__n > size())
 246:/usr/include/c++/7/bits/vector.tcc **** 	{
 247:/usr/include/c++/7/bits/vector.tcc **** 	  std::fill(begin(), end(), __val);
 248:/usr/include/c++/7/bits/vector.tcc **** 	  this->_M_impl._M_finish =
 249:/usr/include/c++/7/bits/vector.tcc **** 	    std::__uninitialized_fill_n_a(this->_M_impl._M_finish,
 250:/usr/include/c++/7/bits/vector.tcc **** 					  __n - size(), __val,
 251:/usr/include/c++/7/bits/vector.tcc **** 					  _M_get_Tp_allocator());
 252:/usr/include/c++/7/bits/vector.tcc **** 	}
 253:/usr/include/c++/7/bits/vector.tcc ****       else
 254:/usr/include/c++/7/bits/vector.tcc ****         _M_erase_at_end(std::fill_n(this->_M_impl._M_start, __n, __val));
 255:/usr/include/c++/7/bits/vector.tcc ****     }
 256:/usr/include/c++/7/bits/vector.tcc **** 
 257:/usr/include/c++/7/bits/vector.tcc ****   template<typename _Tp, typename _Alloc>
 258:/usr/include/c++/7/bits/vector.tcc ****     template<typename _InputIterator>
 259:/usr/include/c++/7/bits/vector.tcc ****       void
 260:/usr/include/c++/7/bits/vector.tcc ****       vector<_Tp, _Alloc>::
 261:/usr/include/c++/7/bits/vector.tcc ****       _M_assign_aux(_InputIterator __first, _InputIterator __last,
 262:/usr/include/c++/7/bits/vector.tcc **** 		    std::input_iterator_tag)
 263:/usr/include/c++/7/bits/vector.tcc ****       {
 264:/usr/include/c++/7/bits/vector.tcc **** 	pointer __cur(this->_M_impl._M_start);
 265:/usr/include/c++/7/bits/vector.tcc **** 	for (; __first != __last && __cur != this->_M_impl._M_finish;
 266:/usr/include/c++/7/bits/vector.tcc **** 	     ++__cur, ++__first)
 267:/usr/include/c++/7/bits/vector.tcc **** 	  *__cur = *__first;
 268:/usr/include/c++/7/bits/vector.tcc **** 	if (__first == __last)
 269:/usr/include/c++/7/bits/vector.tcc **** 	  _M_erase_at_end(__cur);
 270:/usr/include/c++/7/bits/vector.tcc **** 	else
 271:/usr/include/c++/7/bits/vector.tcc **** 	  _M_range_insert(end(), __first, __last,
 272:/usr/include/c++/7/bits/vector.tcc **** 			  std::__iterator_category(__first));
 273:/usr/include/c++/7/bits/vector.tcc ****       }
 274:/usr/include/c++/7/bits/vector.tcc **** 
 275:/usr/include/c++/7/bits/vector.tcc ****   template<typename _Tp, typename _Alloc>
 276:/usr/include/c++/7/bits/vector.tcc ****     template<typename _ForwardIterator>
 277:/usr/include/c++/7/bits/vector.tcc ****       void
 278:/usr/include/c++/7/bits/vector.tcc ****       vector<_Tp, _Alloc>::
 279:/usr/include/c++/7/bits/vector.tcc ****       _M_assign_aux(_ForwardIterator __first, _ForwardIterator __last,
 280:/usr/include/c++/7/bits/vector.tcc **** 		    std::forward_iterator_tag)
 281:/usr/include/c++/7/bits/vector.tcc ****       {
 282:/usr/include/c++/7/bits/vector.tcc **** 	const size_type __len = std::distance(__first, __last);
 283:/usr/include/c++/7/bits/vector.tcc **** 
 284:/usr/include/c++/7/bits/vector.tcc **** 	if (__len > capacity())
 285:/usr/include/c++/7/bits/vector.tcc **** 	  {
 286:/usr/include/c++/7/bits/vector.tcc **** 	    pointer __tmp(_M_allocate_and_copy(__len, __first, __last));
 287:/usr/include/c++/7/bits/vector.tcc **** 	    std::_Destroy(this->_M_impl._M_start, this->_M_impl._M_finish,
 288:/usr/include/c++/7/bits/vector.tcc **** 			  _M_get_Tp_allocator());
 289:/usr/include/c++/7/bits/vector.tcc **** 	    _M_deallocate(this->_M_impl._M_start,
 290:/usr/include/c++/7/bits/vector.tcc **** 			  this->_M_impl._M_end_of_storage
 291:/usr/include/c++/7/bits/vector.tcc **** 			  - this->_M_impl._M_start);
 292:/usr/include/c++/7/bits/vector.tcc **** 	    this->_M_impl._M_start = __tmp;
 293:/usr/include/c++/7/bits/vector.tcc **** 	    this->_M_impl._M_finish = this->_M_impl._M_start + __len;
 294:/usr/include/c++/7/bits/vector.tcc **** 	    this->_M_impl._M_end_of_storage = this->_M_impl._M_finish;
 295:/usr/include/c++/7/bits/vector.tcc **** 	  }
 296:/usr/include/c++/7/bits/vector.tcc **** 	else if (size() >= __len)
 297:/usr/include/c++/7/bits/vector.tcc **** 	  _M_erase_at_end(std::copy(__first, __last, this->_M_impl._M_start));
 298:/usr/include/c++/7/bits/vector.tcc **** 	else
 299:/usr/include/c++/7/bits/vector.tcc **** 	  {
 300:/usr/include/c++/7/bits/vector.tcc **** 	    _ForwardIterator __mid = __first;
 301:/usr/include/c++/7/bits/vector.tcc **** 	    std::advance(__mid, size());
 302:/usr/include/c++/7/bits/vector.tcc **** 	    std::copy(__first, __mid, this->_M_impl._M_start);
 303:/usr/include/c++/7/bits/vector.tcc **** 	    this->_M_impl._M_finish =
 304:/usr/include/c++/7/bits/vector.tcc **** 	      std::__uninitialized_copy_a(__mid, __last,
 305:/usr/include/c++/7/bits/vector.tcc **** 					  this->_M_impl._M_finish,
 306:/usr/include/c++/7/bits/vector.tcc **** 					  _M_get_Tp_allocator());
 307:/usr/include/c++/7/bits/vector.tcc **** 	  }
 308:/usr/include/c++/7/bits/vector.tcc ****       }
 309:/usr/include/c++/7/bits/vector.tcc **** 
 310:/usr/include/c++/7/bits/vector.tcc **** #if __cplusplus >= 201103L
 311:/usr/include/c++/7/bits/vector.tcc ****   template<typename _Tp, typename _Alloc>
 312:/usr/include/c++/7/bits/vector.tcc ****     auto
 313:/usr/include/c++/7/bits/vector.tcc ****     vector<_Tp, _Alloc>::
 314:/usr/include/c++/7/bits/vector.tcc ****     _M_insert_rval(const_iterator __position, value_type&& __v) -> iterator
 315:/usr/include/c++/7/bits/vector.tcc ****     {
 316:/usr/include/c++/7/bits/vector.tcc ****       const auto __n = __position - cbegin();
 317:/usr/include/c++/7/bits/vector.tcc ****       if (this->_M_impl._M_finish != this->_M_impl._M_end_of_storage)
 318:/usr/include/c++/7/bits/vector.tcc **** 	if (__position == cend())
 319:/usr/include/c++/7/bits/vector.tcc **** 	  {
 320:/usr/include/c++/7/bits/vector.tcc **** 	    _Alloc_traits::construct(this->_M_impl, this->_M_impl._M_finish,
 321:/usr/include/c++/7/bits/vector.tcc **** 				     std::move(__v));
 322:/usr/include/c++/7/bits/vector.tcc **** 	    ++this->_M_impl._M_finish;
 323:/usr/include/c++/7/bits/vector.tcc **** 	  }
 324:/usr/include/c++/7/bits/vector.tcc **** 	else
 325:/usr/include/c++/7/bits/vector.tcc **** 	  _M_insert_aux(begin() + __n, std::move(__v));
 326:/usr/include/c++/7/bits/vector.tcc ****       else
 327:/usr/include/c++/7/bits/vector.tcc **** 	_M_realloc_insert(begin() + __n, std::move(__v));
 328:/usr/include/c++/7/bits/vector.tcc **** 
 329:/usr/include/c++/7/bits/vector.tcc ****       return iterator(this->_M_impl._M_start + __n);
 330:/usr/include/c++/7/bits/vector.tcc ****     }
 331:/usr/include/c++/7/bits/vector.tcc **** 
 332:/usr/include/c++/7/bits/vector.tcc ****   template<typename _Tp, typename _Alloc>
 333:/usr/include/c++/7/bits/vector.tcc ****     template<typename... _Args>
 334:/usr/include/c++/7/bits/vector.tcc ****       auto
 335:/usr/include/c++/7/bits/vector.tcc ****       vector<_Tp, _Alloc>::
 336:/usr/include/c++/7/bits/vector.tcc ****       _M_emplace_aux(const_iterator __position, _Args&&... __args)
 337:/usr/include/c++/7/bits/vector.tcc ****       -> iterator
 338:/usr/include/c++/7/bits/vector.tcc ****       {
 339:/usr/include/c++/7/bits/vector.tcc **** 	const auto __n = __position - cbegin();
 340:/usr/include/c++/7/bits/vector.tcc **** 	if (this->_M_impl._M_finish != this->_M_impl._M_end_of_storage)
 341:/usr/include/c++/7/bits/vector.tcc **** 	  if (__position == cend())
 342:/usr/include/c++/7/bits/vector.tcc **** 	    {
 343:/usr/include/c++/7/bits/vector.tcc **** 	      _Alloc_traits::construct(this->_M_impl, this->_M_impl._M_finish,
 344:/usr/include/c++/7/bits/vector.tcc **** 				       std::forward<_Args>(__args)...);
 345:/usr/include/c++/7/bits/vector.tcc **** 	      ++this->_M_impl._M_finish;
 346:/usr/include/c++/7/bits/vector.tcc **** 	    }
 347:/usr/include/c++/7/bits/vector.tcc **** 	  else
 348:/usr/include/c++/7/bits/vector.tcc **** 	    {
 349:/usr/include/c++/7/bits/vector.tcc **** 	      // We need to construct a temporary because something in __args...
 350:/usr/include/c++/7/bits/vector.tcc **** 	      // could alias one of the elements of the container and so we
 351:/usr/include/c++/7/bits/vector.tcc **** 	      // need to use it before _M_insert_aux moves elements around.
 352:/usr/include/c++/7/bits/vector.tcc **** 	      _Temporary_value __tmp(this, std::forward<_Args>(__args)...);
 353:/usr/include/c++/7/bits/vector.tcc **** 	      _M_insert_aux(begin() + __n, std::move(__tmp._M_val()));
 354:/usr/include/c++/7/bits/vector.tcc **** 	    }
 355:/usr/include/c++/7/bits/vector.tcc **** 	else
 356:/usr/include/c++/7/bits/vector.tcc **** 	  _M_realloc_insert(begin() + __n, std::forward<_Args>(__args)...);
 357:/usr/include/c++/7/bits/vector.tcc **** 
 358:/usr/include/c++/7/bits/vector.tcc **** 	return iterator(this->_M_impl._M_start + __n);
 359:/usr/include/c++/7/bits/vector.tcc ****       }
 360:/usr/include/c++/7/bits/vector.tcc **** 
 361:/usr/include/c++/7/bits/vector.tcc ****   template<typename _Tp, typename _Alloc>
 362:/usr/include/c++/7/bits/vector.tcc ****     template<typename _Arg>
 363:/usr/include/c++/7/bits/vector.tcc ****       void
 364:/usr/include/c++/7/bits/vector.tcc ****       vector<_Tp, _Alloc>::
 365:/usr/include/c++/7/bits/vector.tcc ****       _M_insert_aux(iterator __position, _Arg&& __arg)
 366:/usr/include/c++/7/bits/vector.tcc **** #else
 367:/usr/include/c++/7/bits/vector.tcc ****   template<typename _Tp, typename _Alloc>
 368:/usr/include/c++/7/bits/vector.tcc ****     void
 369:/usr/include/c++/7/bits/vector.tcc ****     vector<_Tp, _Alloc>::
 370:/usr/include/c++/7/bits/vector.tcc ****     _M_insert_aux(iterator __position, const _Tp& __x)
 371:/usr/include/c++/7/bits/vector.tcc **** #endif
 372:/usr/include/c++/7/bits/vector.tcc ****     {
 373:/usr/include/c++/7/bits/vector.tcc ****       _Alloc_traits::construct(this->_M_impl, this->_M_impl._M_finish,
 374:/usr/include/c++/7/bits/vector.tcc **** 			       _GLIBCXX_MOVE(*(this->_M_impl._M_finish
 375:/usr/include/c++/7/bits/vector.tcc **** 					       - 1)));
 376:/usr/include/c++/7/bits/vector.tcc ****       ++this->_M_impl._M_finish;
 377:/usr/include/c++/7/bits/vector.tcc **** #if __cplusplus < 201103L
 378:/usr/include/c++/7/bits/vector.tcc ****       _Tp __x_copy = __x;
 379:/usr/include/c++/7/bits/vector.tcc **** #endif
 380:/usr/include/c++/7/bits/vector.tcc ****       _GLIBCXX_MOVE_BACKWARD3(__position.base(),
 381:/usr/include/c++/7/bits/vector.tcc **** 			      this->_M_impl._M_finish - 2,
 382:/usr/include/c++/7/bits/vector.tcc **** 			      this->_M_impl._M_finish - 1);
 383:/usr/include/c++/7/bits/vector.tcc **** #if __cplusplus < 201103L
 384:/usr/include/c++/7/bits/vector.tcc ****       *__position = __x_copy;
 385:/usr/include/c++/7/bits/vector.tcc **** #else
 386:/usr/include/c++/7/bits/vector.tcc ****       *__position = std::forward<_Arg>(__arg);
 387:/usr/include/c++/7/bits/vector.tcc **** #endif
 388:/usr/include/c++/7/bits/vector.tcc ****     }
 389:/usr/include/c++/7/bits/vector.tcc **** 
 390:/usr/include/c++/7/bits/vector.tcc **** #if __cplusplus >= 201103L
 391:/usr/include/c++/7/bits/vector.tcc ****   template<typename _Tp, typename _Alloc>
 392:/usr/include/c++/7/bits/vector.tcc ****     template<typename... _Args>
 393:/usr/include/c++/7/bits/vector.tcc ****       void
 394:/usr/include/c++/7/bits/vector.tcc ****       vector<_Tp, _Alloc>::
 395:/usr/include/c++/7/bits/vector.tcc ****       _M_realloc_insert(iterator __position, _Args&&... __args)
 396:/usr/include/c++/7/bits/vector.tcc **** #else
 397:/usr/include/c++/7/bits/vector.tcc ****   template<typename _Tp, typename _Alloc>
 398:/usr/include/c++/7/bits/vector.tcc ****     void
 399:/usr/include/c++/7/bits/vector.tcc ****     vector<_Tp, _Alloc>::
 400:/usr/include/c++/7/bits/vector.tcc ****     _M_realloc_insert(iterator __position, const _Tp& __x)
 401:/usr/include/c++/7/bits/vector.tcc **** #endif
 402:/usr/include/c++/7/bits/vector.tcc ****     {
 403:/usr/include/c++/7/bits/vector.tcc ****       const size_type __len =
 404:/usr/include/c++/7/bits/vector.tcc **** 	_M_check_len(size_type(1), "vector::_M_realloc_insert");
 405:/usr/include/c++/7/bits/vector.tcc ****       const size_type __elems_before = __position - begin();
 406:/usr/include/c++/7/bits/vector.tcc ****       pointer __new_start(this->_M_allocate(__len));
 407:/usr/include/c++/7/bits/vector.tcc ****       pointer __new_finish(__new_start);
 408:/usr/include/c++/7/bits/vector.tcc ****       __try
 409:/usr/include/c++/7/bits/vector.tcc **** 	{
 410:/usr/include/c++/7/bits/vector.tcc **** 	  // The order of the three operations is dictated by the C++11
 411:/usr/include/c++/7/bits/vector.tcc **** 	  // case, where the moves could alter a new element belonging
 412:/usr/include/c++/7/bits/vector.tcc **** 	  // to the existing vector.  This is an issue only for callers
 413:/usr/include/c++/7/bits/vector.tcc **** 	  // taking the element by lvalue ref (see last bullet of C++11
 414:/usr/include/c++/7/bits/vector.tcc **** 	  // [res.on.arguments]).
 415:/usr/include/c++/7/bits/vector.tcc **** 	  _Alloc_traits::construct(this->_M_impl,
 416:/usr/include/c++/7/bits/vector.tcc **** 				   __new_start + __elems_before,
 417:/usr/include/c++/7/bits/vector.tcc **** #if __cplusplus >= 201103L
 418:/usr/include/c++/7/bits/vector.tcc **** 				   std::forward<_Args>(__args)...);
 419:/usr/include/c++/7/bits/vector.tcc **** #else
 420:/usr/include/c++/7/bits/vector.tcc **** 				   __x);
 421:/usr/include/c++/7/bits/vector.tcc **** #endif
 422:/usr/include/c++/7/bits/vector.tcc **** 	  __new_finish = pointer();
 423:/usr/include/c++/7/bits/vector.tcc **** 
 424:/usr/include/c++/7/bits/vector.tcc **** 	  __new_finish
 425:/usr/include/c++/7/bits/vector.tcc **** 	    = std::__uninitialized_move_if_noexcept_a
 426:/usr/include/c++/7/bits/vector.tcc **** 	    (this->_M_impl._M_start, __position.base(),
 427:/usr/include/c++/7/bits/vector.tcc **** 	     __new_start, _M_get_Tp_allocator());
 428:/usr/include/c++/7/bits/vector.tcc **** 
 429:/usr/include/c++/7/bits/vector.tcc **** 	  ++__new_finish;
 430:/usr/include/c++/7/bits/vector.tcc **** 
 431:/usr/include/c++/7/bits/vector.tcc **** 	  __new_finish
 432:/usr/include/c++/7/bits/vector.tcc **** 	    = std::__uninitialized_move_if_noexcept_a
 433:/usr/include/c++/7/bits/vector.tcc **** 	    (__position.base(), this->_M_impl._M_finish,
 434:/usr/include/c++/7/bits/vector.tcc **** 	     __new_finish, _M_get_Tp_allocator());
 435:/usr/include/c++/7/bits/vector.tcc **** 	}
 436:/usr/include/c++/7/bits/vector.tcc ****       __catch(...)
 437:/usr/include/c++/7/bits/vector.tcc **** 	{
 438:/usr/include/c++/7/bits/vector.tcc **** 	  if (!__new_finish)
 439:/usr/include/c++/7/bits/vector.tcc **** 	    _Alloc_traits::destroy(this->_M_impl,
 440:/usr/include/c++/7/bits/vector.tcc **** 				   __new_start + __elems_before);
 441:/usr/include/c++/7/bits/vector.tcc **** 	  else
 442:/usr/include/c++/7/bits/vector.tcc **** 	    std::_Destroy(__new_start, __new_finish, _M_get_Tp_allocator());
 443:/usr/include/c++/7/bits/vector.tcc **** 	  _M_deallocate(__new_start, __len);
 444:/usr/include/c++/7/bits/vector.tcc **** 	  __throw_exception_again;
 445:/usr/include/c++/7/bits/vector.tcc **** 	}
 446:/usr/include/c++/7/bits/vector.tcc ****       std::_Destroy(this->_M_impl._M_start, this->_M_impl._M_finish,
 447:/usr/include/c++/7/bits/vector.tcc **** 		    _M_get_Tp_allocator());
 448:/usr/include/c++/7/bits/vector.tcc ****       _M_deallocate(this->_M_impl._M_start,
 449:/usr/include/c++/7/bits/vector.tcc **** 		    this->_M_impl._M_end_of_storage
 450:/usr/include/c++/7/bits/vector.tcc **** 		    - this->_M_impl._M_start);
 451:/usr/include/c++/7/bits/vector.tcc ****       this->_M_impl._M_start = __new_start;
 452:/usr/include/c++/7/bits/vector.tcc ****       this->_M_impl._M_finish = __new_finish;
 453:/usr/include/c++/7/bits/vector.tcc ****       this->_M_impl._M_end_of_storage = __new_start + __len;
 454:/usr/include/c++/7/bits/vector.tcc ****     }
 455:/usr/include/c++/7/bits/vector.tcc **** 
 456:/usr/include/c++/7/bits/vector.tcc ****   template<typename _Tp, typename _Alloc>
 457:/usr/include/c++/7/bits/vector.tcc ****     void
 458:/usr/include/c++/7/bits/vector.tcc ****     vector<_Tp, _Alloc>::
 459:/usr/include/c++/7/bits/vector.tcc ****     _M_fill_insert(iterator __position, size_type __n, const value_type& __x)
 460:/usr/include/c++/7/bits/vector.tcc ****     {
 461:/usr/include/c++/7/bits/vector.tcc ****       if (__n != 0)
 462:/usr/include/c++/7/bits/vector.tcc **** 	{
 463:/usr/include/c++/7/bits/vector.tcc **** 	  if (size_type(this->_M_impl._M_end_of_storage
 464:/usr/include/c++/7/bits/vector.tcc **** 			- this->_M_impl._M_finish) >= __n)
 465:/usr/include/c++/7/bits/vector.tcc **** 	    {
 466:/usr/include/c++/7/bits/vector.tcc **** #if __cplusplus < 201103L
 467:/usr/include/c++/7/bits/vector.tcc **** 	      value_type __x_copy = __x;
 468:/usr/include/c++/7/bits/vector.tcc **** #else
 469:/usr/include/c++/7/bits/vector.tcc **** 	      _Temporary_value __tmp(this, __x);
 470:/usr/include/c++/7/bits/vector.tcc **** 	      value_type& __x_copy = __tmp._M_val();
 471:/usr/include/c++/7/bits/vector.tcc **** #endif
 472:/usr/include/c++/7/bits/vector.tcc **** 	      const size_type __elems_after = end() - __position;
 473:/usr/include/c++/7/bits/vector.tcc **** 	      pointer __old_finish(this->_M_impl._M_finish);
 474:/usr/include/c++/7/bits/vector.tcc **** 	      if (__elems_after > __n)
 475:/usr/include/c++/7/bits/vector.tcc **** 		{
 476:/usr/include/c++/7/bits/vector.tcc **** 		  std::__uninitialized_move_a(this->_M_impl._M_finish - __n,
 477:/usr/include/c++/7/bits/vector.tcc **** 					      this->_M_impl._M_finish,
 478:/usr/include/c++/7/bits/vector.tcc **** 					      this->_M_impl._M_finish,
 479:/usr/include/c++/7/bits/vector.tcc **** 					      _M_get_Tp_allocator());
 480:/usr/include/c++/7/bits/vector.tcc **** 		  this->_M_impl._M_finish += __n;
 481:/usr/include/c++/7/bits/vector.tcc **** 		  _GLIBCXX_MOVE_BACKWARD3(__position.base(),
 482:/usr/include/c++/7/bits/vector.tcc **** 					  __old_finish - __n, __old_finish);
 483:/usr/include/c++/7/bits/vector.tcc **** 		  std::fill(__position.base(), __position.base() + __n,
 484:/usr/include/c++/7/bits/vector.tcc **** 			    __x_copy);
 485:/usr/include/c++/7/bits/vector.tcc **** 		}
 486:/usr/include/c++/7/bits/vector.tcc **** 	      else
 487:/usr/include/c++/7/bits/vector.tcc **** 		{
 488:/usr/include/c++/7/bits/vector.tcc **** 		  this->_M_impl._M_finish =
 489:/usr/include/c++/7/bits/vector.tcc **** 		    std::__uninitialized_fill_n_a(this->_M_impl._M_finish,
 490:/usr/include/c++/7/bits/vector.tcc **** 						  __n - __elems_after,
 491:/usr/include/c++/7/bits/vector.tcc **** 						  __x_copy,
 492:/usr/include/c++/7/bits/vector.tcc **** 						  _M_get_Tp_allocator());
 493:/usr/include/c++/7/bits/vector.tcc **** 		  std::__uninitialized_move_a(__position.base(), __old_finish,
 494:/usr/include/c++/7/bits/vector.tcc **** 					      this->_M_impl._M_finish,
 495:/usr/include/c++/7/bits/vector.tcc **** 					      _M_get_Tp_allocator());
 496:/usr/include/c++/7/bits/vector.tcc **** 		  this->_M_impl._M_finish += __elems_after;
 497:/usr/include/c++/7/bits/vector.tcc **** 		  std::fill(__position.base(), __old_finish, __x_copy);
 498:/usr/include/c++/7/bits/vector.tcc **** 		}
 499:/usr/include/c++/7/bits/vector.tcc **** 	    }
 500:/usr/include/c++/7/bits/vector.tcc **** 	  else
 501:/usr/include/c++/7/bits/vector.tcc **** 	    {
 502:/usr/include/c++/7/bits/vector.tcc **** 	      const size_type __len =
 503:/usr/include/c++/7/bits/vector.tcc **** 		_M_check_len(__n, "vector::_M_fill_insert");
 504:/usr/include/c++/7/bits/vector.tcc **** 	      const size_type __elems_before = __position - begin();
 505:/usr/include/c++/7/bits/vector.tcc **** 	      pointer __new_start(this->_M_allocate(__len));
 506:/usr/include/c++/7/bits/vector.tcc **** 	      pointer __new_finish(__new_start);
 507:/usr/include/c++/7/bits/vector.tcc **** 	      __try
 508:/usr/include/c++/7/bits/vector.tcc **** 		{
 509:/usr/include/c++/7/bits/vector.tcc **** 		  // See _M_realloc_insert above.
 510:/usr/include/c++/7/bits/vector.tcc **** 		  std::__uninitialized_fill_n_a(__new_start + __elems_before,
 511:/usr/include/c++/7/bits/vector.tcc **** 						__n, __x,
 512:/usr/include/c++/7/bits/vector.tcc **** 						_M_get_Tp_allocator());
 513:/usr/include/c++/7/bits/vector.tcc **** 		  __new_finish = pointer();
 514:/usr/include/c++/7/bits/vector.tcc **** 
 515:/usr/include/c++/7/bits/vector.tcc **** 		  __new_finish
 516:/usr/include/c++/7/bits/vector.tcc **** 		    = std::__uninitialized_move_if_noexcept_a
 517:/usr/include/c++/7/bits/vector.tcc **** 		    (this->_M_impl._M_start, __position.base(),
 518:/usr/include/c++/7/bits/vector.tcc **** 		     __new_start, _M_get_Tp_allocator());
 519:/usr/include/c++/7/bits/vector.tcc **** 
 520:/usr/include/c++/7/bits/vector.tcc **** 		  __new_finish += __n;
 521:/usr/include/c++/7/bits/vector.tcc **** 
 522:/usr/include/c++/7/bits/vector.tcc **** 		  __new_finish
 523:/usr/include/c++/7/bits/vector.tcc **** 		    = std::__uninitialized_move_if_noexcept_a
 524:/usr/include/c++/7/bits/vector.tcc **** 		    (__position.base(), this->_M_impl._M_finish,
 525:/usr/include/c++/7/bits/vector.tcc **** 		     __new_finish, _M_get_Tp_allocator());
 526:/usr/include/c++/7/bits/vector.tcc **** 		}
 527:/usr/include/c++/7/bits/vector.tcc **** 	      __catch(...)
 528:/usr/include/c++/7/bits/vector.tcc **** 		{
 529:/usr/include/c++/7/bits/vector.tcc **** 		  if (!__new_finish)
 530:/usr/include/c++/7/bits/vector.tcc **** 		    std::_Destroy(__new_start + __elems_before,
 531:/usr/include/c++/7/bits/vector.tcc **** 				  __new_start + __elems_before + __n,
 532:/usr/include/c++/7/bits/vector.tcc **** 				  _M_get_Tp_allocator());
 533:/usr/include/c++/7/bits/vector.tcc **** 		  else
 534:/usr/include/c++/7/bits/vector.tcc **** 		    std::_Destroy(__new_start, __new_finish,
 535:/usr/include/c++/7/bits/vector.tcc **** 				  _M_get_Tp_allocator());
 536:/usr/include/c++/7/bits/vector.tcc **** 		  _M_deallocate(__new_start, __len);
 537:/usr/include/c++/7/bits/vector.tcc **** 		  __throw_exception_again;
 538:/usr/include/c++/7/bits/vector.tcc **** 		}
 539:/usr/include/c++/7/bits/vector.tcc **** 	      std::_Destroy(this->_M_impl._M_start, this->_M_impl._M_finish,
 540:/usr/include/c++/7/bits/vector.tcc **** 			    _M_get_Tp_allocator());
 541:/usr/include/c++/7/bits/vector.tcc **** 	      _M_deallocate(this->_M_impl._M_start,
 542:/usr/include/c++/7/bits/vector.tcc **** 			    this->_M_impl._M_end_of_storage
 543:/usr/include/c++/7/bits/vector.tcc **** 			    - this->_M_impl._M_start);
 544:/usr/include/c++/7/bits/vector.tcc **** 	      this->_M_impl._M_start = __new_start;
 545:/usr/include/c++/7/bits/vector.tcc **** 	      this->_M_impl._M_finish = __new_finish;
 546:/usr/include/c++/7/bits/vector.tcc **** 	      this->_M_impl._M_end_of_storage = __new_start + __len;
 547:/usr/include/c++/7/bits/vector.tcc **** 	    }
 548:/usr/include/c++/7/bits/vector.tcc **** 	}
 549:/usr/include/c++/7/bits/vector.tcc ****     }
 550:/usr/include/c++/7/bits/vector.tcc **** 
 551:/usr/include/c++/7/bits/vector.tcc **** #if __cplusplus >= 201103L
 552:/usr/include/c++/7/bits/vector.tcc ****   template<typename _Tp, typename _Alloc>
 553:/usr/include/c++/7/bits/vector.tcc ****     void
 554:/usr/include/c++/7/bits/vector.tcc ****     vector<_Tp, _Alloc>::
 1948              		.loc 4 554 0
 1949              		.cfi_startproc
 1950              		.cfi_personality 0x9b,DW.ref.__gxx_personality_v0
 1951              		.cfi_lsda 0x1b,.LLSDA2258
 1952 0000 55       		pushq	%rbp
 1953              		.cfi_def_cfa_offset 16
 1954              		.cfi_offset 6, -16
 1955 0001 4889E5   		movq	%rsp, %rbp
 1956              		.cfi_def_cfa_register 6
 1957 0004 53       		pushq	%rbx
 1958 0005 4883EC38 		subq	$56, %rsp
 1959              		.cfi_offset 3, -24
 1960 0009 48897DC8 		movq	%rdi, -56(%rbp)
 1961 000d 488975C0 		movq	%rsi, -64(%rbp)
 1962              	.LBB25:
 555:/usr/include/c++/7/bits/vector.tcc ****     _M_default_append(size_type __n)
 556:/usr/include/c++/7/bits/vector.tcc ****     {
 557:/usr/include/c++/7/bits/vector.tcc ****       if (__n != 0)
 1963              		.loc 4 557 0
 1964 0011 48837DC0 		cmpq	$0, -64(%rbp)
 1964      00
 1965 0016 0F84E801 		je	.L96
 1965      0000
 1966              	.LBB26:
 1967              	.LBB27:
 558:/usr/include/c++/7/bits/vector.tcc **** 	{
 559:/usr/include/c++/7/bits/vector.tcc **** 	  if (size_type(this->_M_impl._M_end_of_storage
 1968              		.loc 4 559 0
 1969 001c 488B45C8 		movq	-56(%rbp), %rax
 1970 0020 488B4010 		movq	16(%rax), %rax
 560:/usr/include/c++/7/bits/vector.tcc **** 			- this->_M_impl._M_finish) >= __n)
 1971              		.loc 4 560 0
 1972 0024 4889C2   		movq	%rax, %rdx
 1973 0027 488B45C8 		movq	-56(%rbp), %rax
 1974 002b 488B4008 		movq	8(%rax), %rax
 1975 002f 4829C2   		subq	%rax, %rdx
 1976 0032 4889D0   		movq	%rdx, %rax
 1977 0035 48C1F803 		sarq	$3, %rax
 559:/usr/include/c++/7/bits/vector.tcc **** 			- this->_M_impl._M_finish) >= __n)
 1978              		.loc 4 559 0
 1979 0039 483945C0 		cmpq	%rax, -64(%rbp)
 1980 003d 7736     		ja	.L90
 561:/usr/include/c++/7/bits/vector.tcc **** 	    {
 562:/usr/include/c++/7/bits/vector.tcc **** 	      this->_M_impl._M_finish =
 563:/usr/include/c++/7/bits/vector.tcc **** 		std::__uninitialized_default_n_a(this->_M_impl._M_finish,
 564:/usr/include/c++/7/bits/vector.tcc **** 						 __n, _M_get_Tp_allocator());
 1981              		.loc 4 564 0
 1982 003f 488B45C8 		movq	-56(%rbp), %rax
 1983 0043 4889C7   		movq	%rax, %rdi
 1984 0046 E8000000 		call	_ZNSt12_Vector_baseIdSaIdEE19_M_get_Tp_allocatorEv
 1984      00
 1985 004b 4889C2   		movq	%rax, %rdx
 563:/usr/include/c++/7/bits/vector.tcc **** 						 __n, _M_get_Tp_allocator());
 1986              		.loc 4 563 0
 1987 004e 488B45C8 		movq	-56(%rbp), %rax
 1988 0052 488B4008 		movq	8(%rax), %rax
 1989 0056 488B4DC0 		movq	-64(%rbp), %rcx
 1990 005a 4889CE   		movq	%rcx, %rsi
 1991 005d 4889C7   		movq	%rax, %rdi
 1992              	.LEHB24:
 1993 0060 E8000000 		call	_ZSt27__uninitialized_default_n_aIPdmdET_S1_T0_RSaIT1_E
 1993      00
 1994 0065 4889C2   		movq	%rax, %rdx
 562:/usr/include/c++/7/bits/vector.tcc **** 		std::__uninitialized_default_n_a(this->_M_impl._M_finish,
 1995              		.loc 4 562 0
 1996 0068 488B45C8 		movq	-56(%rbp), %rax
 1997 006c 48895008 		movq	%rdx, 8(%rax)
 1998              	.LBE27:
 1999              	.LBE26:
 2000              	.LBE25:
 565:/usr/include/c++/7/bits/vector.tcc **** 	    }
 566:/usr/include/c++/7/bits/vector.tcc **** 	  else
 567:/usr/include/c++/7/bits/vector.tcc **** 	    {
 568:/usr/include/c++/7/bits/vector.tcc **** 	      const size_type __len =
 569:/usr/include/c++/7/bits/vector.tcc **** 		_M_check_len(__n, "vector::_M_default_append");
 570:/usr/include/c++/7/bits/vector.tcc **** 	      const size_type __old_size = this->size();
 571:/usr/include/c++/7/bits/vector.tcc **** 	      pointer __new_start(this->_M_allocate(__len));
 572:/usr/include/c++/7/bits/vector.tcc **** 	      pointer __new_finish(__new_start);
 573:/usr/include/c++/7/bits/vector.tcc **** 	      __try
 574:/usr/include/c++/7/bits/vector.tcc **** 		{
 575:/usr/include/c++/7/bits/vector.tcc **** 		  __new_finish
 576:/usr/include/c++/7/bits/vector.tcc **** 		    = std::__uninitialized_move_if_noexcept_a
 577:/usr/include/c++/7/bits/vector.tcc **** 		    (this->_M_impl._M_start, this->_M_impl._M_finish,
 578:/usr/include/c++/7/bits/vector.tcc **** 		     __new_start, _M_get_Tp_allocator());
 579:/usr/include/c++/7/bits/vector.tcc **** 		  __new_finish =
 580:/usr/include/c++/7/bits/vector.tcc **** 		    std::__uninitialized_default_n_a(__new_finish, __n,
 581:/usr/include/c++/7/bits/vector.tcc **** 						     _M_get_Tp_allocator());
 582:/usr/include/c++/7/bits/vector.tcc **** 		}
 583:/usr/include/c++/7/bits/vector.tcc **** 	      __catch(...)
 584:/usr/include/c++/7/bits/vector.tcc **** 		{
 585:/usr/include/c++/7/bits/vector.tcc **** 		  std::_Destroy(__new_start, __new_finish,
 586:/usr/include/c++/7/bits/vector.tcc **** 				_M_get_Tp_allocator());
 587:/usr/include/c++/7/bits/vector.tcc **** 		  _M_deallocate(__new_start, __len);
 588:/usr/include/c++/7/bits/vector.tcc **** 		  __throw_exception_again;
 589:/usr/include/c++/7/bits/vector.tcc **** 		}
 590:/usr/include/c++/7/bits/vector.tcc **** 	      std::_Destroy(this->_M_impl._M_start, this->_M_impl._M_finish,
 591:/usr/include/c++/7/bits/vector.tcc **** 			    _M_get_Tp_allocator());
 592:/usr/include/c++/7/bits/vector.tcc **** 	      _M_deallocate(this->_M_impl._M_start,
 593:/usr/include/c++/7/bits/vector.tcc **** 			    this->_M_impl._M_end_of_storage
 594:/usr/include/c++/7/bits/vector.tcc **** 			    - this->_M_impl._M_start);
 595:/usr/include/c++/7/bits/vector.tcc **** 	      this->_M_impl._M_start = __new_start;
 596:/usr/include/c++/7/bits/vector.tcc **** 	      this->_M_impl._M_finish = __new_finish;
 597:/usr/include/c++/7/bits/vector.tcc **** 	      this->_M_impl._M_end_of_storage = __new_start + __len;
 598:/usr/include/c++/7/bits/vector.tcc **** 	    }
 599:/usr/include/c++/7/bits/vector.tcc **** 	}
 600:/usr/include/c++/7/bits/vector.tcc ****     }
 2001              		.loc 4 600 0
 2002 0070 E98F0100 		jmp	.L96
 2002      00
 2003              	.L90:
 2004              	.LBB34:
 2005              	.LBB32:
 2006              	.LBB30:
 2007              	.LBB28:
 568:/usr/include/c++/7/bits/vector.tcc **** 		_M_check_len(__n, "vector::_M_default_append");
 2008              		.loc 4 568 0
 2009 0075 488B4DC0 		movq	-64(%rbp), %rcx
 2010 0079 488B45C8 		movq	-56(%rbp), %rax
 2011 007d 488D1500 		leaq	.LC28(%rip), %rdx
 2011      000000
 2012 0084 4889CE   		movq	%rcx, %rsi
 2013 0087 4889C7   		movq	%rax, %rdi
 2014 008a E8000000 		call	_ZNKSt6vectorIdSaIdEE12_M_check_lenEmPKc
 2014      00
 2015 008f 488945D8 		movq	%rax, -40(%rbp)
 570:/usr/include/c++/7/bits/vector.tcc **** 	      pointer __new_start(this->_M_allocate(__len));
 2016              		.loc 4 570 0
 2017 0093 488B45C8 		movq	-56(%rbp), %rax
 2018 0097 4889C7   		movq	%rax, %rdi
 2019 009a E8000000 		call	_ZNKSt6vectorIdSaIdEE4sizeEv
 2019      00
 2020 009f 488945E0 		movq	%rax, -32(%rbp)
 571:/usr/include/c++/7/bits/vector.tcc **** 	      pointer __new_finish(__new_start);
 2021              		.loc 4 571 0
 2022 00a3 488B45C8 		movq	-56(%rbp), %rax
 2023 00a7 488B55D8 		movq	-40(%rbp), %rdx
 2024 00ab 4889D6   		movq	%rdx, %rsi
 2025 00ae 4889C7   		movq	%rax, %rdi
 2026 00b1 E8000000 		call	_ZNSt12_Vector_baseIdSaIdEE11_M_allocateEm
 2026      00
 2027              	.LEHE24:
 2028 00b6 488945E8 		movq	%rax, -24(%rbp)
 572:/usr/include/c++/7/bits/vector.tcc **** 	      __try
 2029              		.loc 4 572 0
 2030 00ba 488B45E8 		movq	-24(%rbp), %rax
 2031 00be 488945D0 		movq	%rax, -48(%rbp)
 578:/usr/include/c++/7/bits/vector.tcc **** 		  __new_finish =
 2032              		.loc 4 578 0
 2033 00c2 488B45C8 		movq	-56(%rbp), %rax
 2034 00c6 4889C7   		movq	%rax, %rdi
 2035 00c9 E8000000 		call	_ZNSt12_Vector_baseIdSaIdEE19_M_get_Tp_allocatorEv
 2035      00
 2036 00ce 4889C1   		movq	%rax, %rcx
 577:/usr/include/c++/7/bits/vector.tcc **** 		     __new_start, _M_get_Tp_allocator());
 2037              		.loc 4 577 0
 2038 00d1 488B45C8 		movq	-56(%rbp), %rax
 2039 00d5 488B7008 		movq	8(%rax), %rsi
 2040 00d9 488B45C8 		movq	-56(%rbp), %rax
 2041 00dd 488B00   		movq	(%rax), %rax
 575:/usr/include/c++/7/bits/vector.tcc **** 		    = std::__uninitialized_move_if_noexcept_a
 2042              		.loc 4 575 0
 2043 00e0 488B55E8 		movq	-24(%rbp), %rdx
 2044 00e4 4889C7   		movq	%rax, %rdi
 2045              	.LEHB25:
 2046 00e7 E8000000 		call	_ZSt34__uninitialized_move_if_noexcept_aIPdS0_SaIdEET0_T_S3_S2_RT1_
 2046      00
 2047 00ec 488945D0 		movq	%rax, -48(%rbp)
 581:/usr/include/c++/7/bits/vector.tcc **** 		}
 2048              		.loc 4 581 0
 2049 00f0 488B45C8 		movq	-56(%rbp), %rax
 2050 00f4 4889C7   		movq	%rax, %rdi
 2051 00f7 E8000000 		call	_ZNSt12_Vector_baseIdSaIdEE19_M_get_Tp_allocatorEv
 2051      00
 2052 00fc 4889C2   		movq	%rax, %rdx
 579:/usr/include/c++/7/bits/vector.tcc **** 		    std::__uninitialized_default_n_a(__new_finish, __n,
 2053              		.loc 4 579 0
 2054 00ff 488B4DC0 		movq	-64(%rbp), %rcx
 2055 0103 488B45D0 		movq	-48(%rbp), %rax
 2056 0107 4889CE   		movq	%rcx, %rsi
 2057 010a 4889C7   		movq	%rax, %rdi
 2058 010d E8000000 		call	_ZSt27__uninitialized_default_n_aIPdmdET_S1_T0_RSaIT1_E
 2058      00
 2059              	.LEHE25:
 579:/usr/include/c++/7/bits/vector.tcc **** 		    std::__uninitialized_default_n_a(__new_finish, __n,
 2060              		.loc 4 579 0 is_stmt 0 discriminator 1
 2061 0112 488945D0 		movq	%rax, -48(%rbp)
 591:/usr/include/c++/7/bits/vector.tcc **** 	      _M_deallocate(this->_M_impl._M_start,
 2062              		.loc 4 591 0 is_stmt 1 discriminator 1
 2063 0116 488B45C8 		movq	-56(%rbp), %rax
 2064 011a 4889C7   		movq	%rax, %rdi
 2065 011d E8000000 		call	_ZNSt12_Vector_baseIdSaIdEE19_M_get_Tp_allocatorEv
 2065      00
 2066 0122 4889C2   		movq	%rax, %rdx
 590:/usr/include/c++/7/bits/vector.tcc **** 			    _M_get_Tp_allocator());
 2067              		.loc 4 590 0 discriminator 1
 2068 0125 488B45C8 		movq	-56(%rbp), %rax
 2069 0129 488B4808 		movq	8(%rax), %rcx
 2070 012d 488B45C8 		movq	-56(%rbp), %rax
 2071 0131 488B00   		movq	(%rax), %rax
 2072 0134 4889CE   		movq	%rcx, %rsi
 2073 0137 4889C7   		movq	%rax, %rdi
 2074              	.LEHB26:
 2075 013a E8000000 		call	_ZSt8_DestroyIPddEvT_S1_RSaIT0_E
 2075      00
 592:/usr/include/c++/7/bits/vector.tcc **** 			    this->_M_impl._M_end_of_storage
 2076              		.loc 4 592 0 discriminator 1
 2077 013f 488B45C8 		movq	-56(%rbp), %rax
 593:/usr/include/c++/7/bits/vector.tcc **** 			    - this->_M_impl._M_start);
 2078              		.loc 4 593 0 discriminator 1
 2079 0143 488B55C8 		movq	-56(%rbp), %rdx
 2080 0147 488B5210 		movq	16(%rdx), %rdx
 594:/usr/include/c++/7/bits/vector.tcc **** 	      this->_M_impl._M_start = __new_start;
 2081              		.loc 4 594 0 discriminator 1
 2082 014b 4889D1   		movq	%rdx, %rcx
 2083 014e 488B55C8 		movq	-56(%rbp), %rdx
 2084 0152 488B12   		movq	(%rdx), %rdx
 2085 0155 4829D1   		subq	%rdx, %rcx
 2086 0158 4889CA   		movq	%rcx, %rdx
 2087 015b 48C1FA03 		sarq	$3, %rdx
 592:/usr/include/c++/7/bits/vector.tcc **** 			    this->_M_impl._M_end_of_storage
 2088              		.loc 4 592 0 discriminator 1
 2089 015f 4889D6   		movq	%rdx, %rsi
 2090 0162 488B55C8 		movq	-56(%rbp), %rdx
 2091 0166 488B0A   		movq	(%rdx), %rcx
 2092 0169 4889F2   		movq	%rsi, %rdx
 2093 016c 4889CE   		movq	%rcx, %rsi
 2094 016f 4889C7   		movq	%rax, %rdi
 2095 0172 E8000000 		call	_ZNSt12_Vector_baseIdSaIdEE13_M_deallocateEPdm
 2095      00
 2096              	.LEHE26:
 595:/usr/include/c++/7/bits/vector.tcc **** 	      this->_M_impl._M_finish = __new_finish;
 2097              		.loc 4 595 0 discriminator 1
 2098 0177 488B45C8 		movq	-56(%rbp), %rax
 2099 017b 488B55E8 		movq	-24(%rbp), %rdx
 2100 017f 488910   		movq	%rdx, (%rax)
 596:/usr/include/c++/7/bits/vector.tcc **** 	      this->_M_impl._M_end_of_storage = __new_start + __len;
 2101              		.loc 4 596 0 discriminator 1
 2102 0182 488B45C8 		movq	-56(%rbp), %rax
 2103 0186 488B55D0 		movq	-48(%rbp), %rdx
 2104 018a 48895008 		movq	%rdx, 8(%rax)
 597:/usr/include/c++/7/bits/vector.tcc **** 	    }
 2105              		.loc 4 597 0 discriminator 1
 2106 018e 488B45D8 		movq	-40(%rbp), %rax
 2107 0192 488D14C5 		leaq	0(,%rax,8), %rdx
 2107      00000000 
 2108 019a 488B45E8 		movq	-24(%rbp), %rax
 2109 019e 4801C2   		addq	%rax, %rdx
 2110 01a1 488B45C8 		movq	-56(%rbp), %rax
 2111 01a5 48895010 		movq	%rdx, 16(%rax)
 2112              	.LBE28:
 2113              	.LBE30:
 2114              	.LBE32:
 2115              	.LBE34:
 2116              		.loc 4 600 0 discriminator 1
 2117 01a9 EB59     		jmp	.L96
 2118              	.L94:
 2119              	.LBB35:
 2120              	.LBB33:
 2121              	.LBB31:
 2122              	.LBB29:
 583:/usr/include/c++/7/bits/vector.tcc **** 		{
 2123              		.loc 4 583 0
 2124 01ab 4889C7   		movq	%rax, %rdi
 2125 01ae E8000000 		call	__cxa_begin_catch@PLT
 2125      00
 586:/usr/include/c++/7/bits/vector.tcc **** 		  _M_deallocate(__new_start, __len);
 2126              		.loc 4 586 0
 2127 01b3 488B45C8 		movq	-56(%rbp), %rax
 2128 01b7 4889C7   		movq	%rax, %rdi
 2129 01ba E8000000 		call	_ZNSt12_Vector_baseIdSaIdEE19_M_get_Tp_allocatorEv
 2129      00
 2130 01bf 4889C2   		movq	%rax, %rdx
 585:/usr/include/c++/7/bits/vector.tcc **** 				_M_get_Tp_allocator());
 2131              		.loc 4 585 0
 2132 01c2 488B4DD0 		movq	-48(%rbp), %rcx
 2133 01c6 488B45E8 		movq	-24(%rbp), %rax
 2134 01ca 4889CE   		movq	%rcx, %rsi
 2135 01cd 4889C7   		movq	%rax, %rdi
 2136              	.LEHB27:
 2137 01d0 E8000000 		call	_ZSt8_DestroyIPddEvT_S1_RSaIT0_E
 2137      00
 587:/usr/include/c++/7/bits/vector.tcc **** 		  __throw_exception_again;
 2138              		.loc 4 587 0
 2139 01d5 488B45C8 		movq	-56(%rbp), %rax
 2140 01d9 488B55D8 		movq	-40(%rbp), %rdx
 2141 01dd 488B4DE8 		movq	-24(%rbp), %rcx
 2142 01e1 4889CE   		movq	%rcx, %rsi
 2143 01e4 4889C7   		movq	%rax, %rdi
 2144 01e7 E8000000 		call	_ZNSt12_Vector_baseIdSaIdEE13_M_deallocateEPdm
 2144      00
 588:/usr/include/c++/7/bits/vector.tcc **** 		}
 2145              		.loc 4 588 0
 2146 01ec E8000000 		call	__cxa_rethrow@PLT
 2146      00
 2147              	.LEHE27:
 2148              	.L95:
 2149 01f1 4889C3   		movq	%rax, %rbx
 583:/usr/include/c++/7/bits/vector.tcc **** 		{
 2150              		.loc 4 583 0
 2151 01f4 E8000000 		call	__cxa_end_catch@PLT
 2151      00
 2152 01f9 4889D8   		movq	%rbx, %rax
 2153 01fc 4889C7   		movq	%rax, %rdi
 2154              	.LEHB28:
 2155 01ff E8000000 		call	_Unwind_Resume@PLT
 2155      00
 2156              	.LEHE28:
 2157              	.L96:
 2158              	.LBE29:
 2159              	.LBE31:
 2160              	.LBE33:
 2161              	.LBE35:
 2162              		.loc 4 600 0
 2163 0204 90       		nop
 2164 0205 4883C438 		addq	$56, %rsp
 2165 0209 5B       		popq	%rbx
 2166 020a 5D       		popq	%rbp
 2167              		.cfi_def_cfa 7, 8
 2168 020b C3       		ret
 2169              		.cfi_endproc
 2170              	.LFE2258:
 2171              		.section	.gcc_except_table
 2172 007b 00       		.align 4
 2173              	.LLSDA2258:
 2174 007c FF       		.byte	0xff
 2175 007d 9B       		.byte	0x9b
 2176 007e 25       		.uleb128 .LLSDATT2258-.LLSDATTD2258
 2177              	.LLSDATTD2258:
 2178 007f 01       		.byte	0x1
 2179 0080 1A       		.uleb128 .LLSDACSE2258-.LLSDACSB2258
 2180              	.LLSDACSB2258:
 2181 0081 60       		.uleb128 .LEHB24-.LFB2258
 2182 0082 56       		.uleb128 .LEHE24-.LEHB24
 2183 0083 00       		.uleb128 0
 2184 0084 00       		.uleb128 0
 2185 0085 E701     		.uleb128 .LEHB25-.LFB2258
 2186 0087 2B       		.uleb128 .LEHE25-.LEHB25
 2187 0088 AB03     		.uleb128 .L94-.LFB2258
 2188 008a 01       		.uleb128 0x1
 2189 008b BA02     		.uleb128 .LEHB26-.LFB2258
 2190 008d 3D       		.uleb128 .LEHE26-.LEHB26
 2191 008e 00       		.uleb128 0
 2192 008f 00       		.uleb128 0
 2193 0090 D003     		.uleb128 .LEHB27-.LFB2258
 2194 0092 21       		.uleb128 .LEHE27-.LEHB27
 2195 0093 F103     		.uleb128 .L95-.LFB2258
 2196 0095 00       		.uleb128 0
 2197 0096 FF03     		.uleb128 .LEHB28-.LFB2258
 2198 0098 05       		.uleb128 .LEHE28-.LEHB28
 2199 0099 00       		.uleb128 0
 2200 009a 00       		.uleb128 0
 2201              	.LLSDACSE2258:
 2202 009b 01       		.byte	0x1
 2203 009c 00       		.byte	0
 2204 009d 000000   		.align 4
 2205 00a0 00000000 		.long	0
 2206              	
 2207              	.LLSDATT2258:
 2208              		.section	.text._ZNSt6vectorIdSaIdEE17_M_default_appendEm,"axG",@progbits,_ZNSt6vectorIdSaIdEE17_M_
 2210              		.section	.text._ZNSt6vectorIdSaIdEE15_M_erase_at_endEPd,"axG",@progbits,_ZNSt6vectorIdSaIdEE15_M_e
 2211              		.align 2
 2212              		.weak	_ZNSt6vectorIdSaIdEE15_M_erase_at_endEPd
 2214              	_ZNSt6vectorIdSaIdEE15_M_erase_at_endEPd:
 2215              	.LFB2259:
 818:/usr/include/c++/7/bits/stl_vector.h **** 
 819:/usr/include/c++/7/bits/stl_vector.h ****     protected:
 820:/usr/include/c++/7/bits/stl_vector.h ****       /// Safety check used only from at().
 821:/usr/include/c++/7/bits/stl_vector.h ****       void
 822:/usr/include/c++/7/bits/stl_vector.h ****       _M_range_check(size_type __n) const
 823:/usr/include/c++/7/bits/stl_vector.h ****       {
 824:/usr/include/c++/7/bits/stl_vector.h **** 	if (__n >= this->size())
 825:/usr/include/c++/7/bits/stl_vector.h **** 	  __throw_out_of_range_fmt(__N("vector::_M_range_check: __n "
 826:/usr/include/c++/7/bits/stl_vector.h **** 				       "(which is %zu) >= this->size() "
 827:/usr/include/c++/7/bits/stl_vector.h **** 				       "(which is %zu)"),
 828:/usr/include/c++/7/bits/stl_vector.h **** 				   __n, this->size());
 829:/usr/include/c++/7/bits/stl_vector.h ****       }
 830:/usr/include/c++/7/bits/stl_vector.h **** 
 831:/usr/include/c++/7/bits/stl_vector.h ****     public:
 832:/usr/include/c++/7/bits/stl_vector.h ****       /**
 833:/usr/include/c++/7/bits/stl_vector.h ****        *  @brief  Provides access to the data contained in the %vector.
 834:/usr/include/c++/7/bits/stl_vector.h ****        *  @param __n The index of the element for which data should be
 835:/usr/include/c++/7/bits/stl_vector.h ****        *  accessed.
 836:/usr/include/c++/7/bits/stl_vector.h ****        *  @return  Read/write reference to data.
 837:/usr/include/c++/7/bits/stl_vector.h ****        *  @throw  std::out_of_range  If @a __n is an invalid index.
 838:/usr/include/c++/7/bits/stl_vector.h ****        *
 839:/usr/include/c++/7/bits/stl_vector.h ****        *  This function provides for safer data access.  The parameter
 840:/usr/include/c++/7/bits/stl_vector.h ****        *  is first checked that it is in the range of the vector.  The
 841:/usr/include/c++/7/bits/stl_vector.h ****        *  function throws out_of_range if the check fails.
 842:/usr/include/c++/7/bits/stl_vector.h ****        */
 843:/usr/include/c++/7/bits/stl_vector.h ****       reference
 844:/usr/include/c++/7/bits/stl_vector.h ****       at(size_type __n)
 845:/usr/include/c++/7/bits/stl_vector.h ****       {
 846:/usr/include/c++/7/bits/stl_vector.h **** 	_M_range_check(__n);
 847:/usr/include/c++/7/bits/stl_vector.h **** 	return (*this)[__n];
 848:/usr/include/c++/7/bits/stl_vector.h ****       }
 849:/usr/include/c++/7/bits/stl_vector.h **** 
 850:/usr/include/c++/7/bits/stl_vector.h ****       /**
 851:/usr/include/c++/7/bits/stl_vector.h ****        *  @brief  Provides access to the data contained in the %vector.
 852:/usr/include/c++/7/bits/stl_vector.h ****        *  @param __n The index of the element for which data should be
 853:/usr/include/c++/7/bits/stl_vector.h ****        *  accessed.
 854:/usr/include/c++/7/bits/stl_vector.h ****        *  @return  Read-only (constant) reference to data.
 855:/usr/include/c++/7/bits/stl_vector.h ****        *  @throw  std::out_of_range  If @a __n is an invalid index.
 856:/usr/include/c++/7/bits/stl_vector.h ****        *
 857:/usr/include/c++/7/bits/stl_vector.h ****        *  This function provides for safer data access.  The parameter
 858:/usr/include/c++/7/bits/stl_vector.h ****        *  is first checked that it is in the range of the vector.  The
 859:/usr/include/c++/7/bits/stl_vector.h ****        *  function throws out_of_range if the check fails.
 860:/usr/include/c++/7/bits/stl_vector.h ****        */
 861:/usr/include/c++/7/bits/stl_vector.h ****       const_reference
 862:/usr/include/c++/7/bits/stl_vector.h ****       at(size_type __n) const
 863:/usr/include/c++/7/bits/stl_vector.h ****       {
 864:/usr/include/c++/7/bits/stl_vector.h **** 	_M_range_check(__n);
 865:/usr/include/c++/7/bits/stl_vector.h **** 	return (*this)[__n];
 866:/usr/include/c++/7/bits/stl_vector.h ****       }
 867:/usr/include/c++/7/bits/stl_vector.h **** 
 868:/usr/include/c++/7/bits/stl_vector.h ****       /**
 869:/usr/include/c++/7/bits/stl_vector.h ****        *  Returns a read/write reference to the data at the first
 870:/usr/include/c++/7/bits/stl_vector.h ****        *  element of the %vector.
 871:/usr/include/c++/7/bits/stl_vector.h ****        */
 872:/usr/include/c++/7/bits/stl_vector.h ****       reference
 873:/usr/include/c++/7/bits/stl_vector.h ****       front() _GLIBCXX_NOEXCEPT
 874:/usr/include/c++/7/bits/stl_vector.h ****       {
 875:/usr/include/c++/7/bits/stl_vector.h **** 	__glibcxx_requires_nonempty();
 876:/usr/include/c++/7/bits/stl_vector.h **** 	return *begin();
 877:/usr/include/c++/7/bits/stl_vector.h ****       }
 878:/usr/include/c++/7/bits/stl_vector.h **** 
 879:/usr/include/c++/7/bits/stl_vector.h ****       /**
 880:/usr/include/c++/7/bits/stl_vector.h ****        *  Returns a read-only (constant) reference to the data at the first
 881:/usr/include/c++/7/bits/stl_vector.h ****        *  element of the %vector.
 882:/usr/include/c++/7/bits/stl_vector.h ****        */
 883:/usr/include/c++/7/bits/stl_vector.h ****       const_reference
 884:/usr/include/c++/7/bits/stl_vector.h ****       front() const _GLIBCXX_NOEXCEPT
 885:/usr/include/c++/7/bits/stl_vector.h ****       {
 886:/usr/include/c++/7/bits/stl_vector.h **** 	__glibcxx_requires_nonempty();
 887:/usr/include/c++/7/bits/stl_vector.h **** 	return *begin();
 888:/usr/include/c++/7/bits/stl_vector.h ****       }
 889:/usr/include/c++/7/bits/stl_vector.h **** 
 890:/usr/include/c++/7/bits/stl_vector.h ****       /**
 891:/usr/include/c++/7/bits/stl_vector.h ****        *  Returns a read/write reference to the data at the last
 892:/usr/include/c++/7/bits/stl_vector.h ****        *  element of the %vector.
 893:/usr/include/c++/7/bits/stl_vector.h ****        */
 894:/usr/include/c++/7/bits/stl_vector.h ****       reference
 895:/usr/include/c++/7/bits/stl_vector.h ****       back() _GLIBCXX_NOEXCEPT
 896:/usr/include/c++/7/bits/stl_vector.h ****       {
 897:/usr/include/c++/7/bits/stl_vector.h **** 	__glibcxx_requires_nonempty();
 898:/usr/include/c++/7/bits/stl_vector.h **** 	return *(end() - 1);
 899:/usr/include/c++/7/bits/stl_vector.h ****       }
 900:/usr/include/c++/7/bits/stl_vector.h **** 
 901:/usr/include/c++/7/bits/stl_vector.h ****       /**
 902:/usr/include/c++/7/bits/stl_vector.h ****        *  Returns a read-only (constant) reference to the data at the
 903:/usr/include/c++/7/bits/stl_vector.h ****        *  last element of the %vector.
 904:/usr/include/c++/7/bits/stl_vector.h ****        */
 905:/usr/include/c++/7/bits/stl_vector.h ****       const_reference
 906:/usr/include/c++/7/bits/stl_vector.h ****       back() const _GLIBCXX_NOEXCEPT
 907:/usr/include/c++/7/bits/stl_vector.h ****       {
 908:/usr/include/c++/7/bits/stl_vector.h **** 	__glibcxx_requires_nonempty();
 909:/usr/include/c++/7/bits/stl_vector.h **** 	return *(end() - 1);
 910:/usr/include/c++/7/bits/stl_vector.h ****       }
 911:/usr/include/c++/7/bits/stl_vector.h **** 
 912:/usr/include/c++/7/bits/stl_vector.h ****       // _GLIBCXX_RESOLVE_LIB_DEFECTS
 913:/usr/include/c++/7/bits/stl_vector.h ****       // DR 464. Suggestion for new member functions in standard containers.
 914:/usr/include/c++/7/bits/stl_vector.h ****       // data access
 915:/usr/include/c++/7/bits/stl_vector.h ****       /**
 916:/usr/include/c++/7/bits/stl_vector.h ****        *   Returns a pointer such that [data(), data() + size()) is a valid
 917:/usr/include/c++/7/bits/stl_vector.h ****        *   range.  For a non-empty %vector, data() == &front().
 918:/usr/include/c++/7/bits/stl_vector.h ****        */
 919:/usr/include/c++/7/bits/stl_vector.h ****       _Tp*
 920:/usr/include/c++/7/bits/stl_vector.h ****       data() _GLIBCXX_NOEXCEPT
 921:/usr/include/c++/7/bits/stl_vector.h ****       { return _M_data_ptr(this->_M_impl._M_start); }
 922:/usr/include/c++/7/bits/stl_vector.h **** 
 923:/usr/include/c++/7/bits/stl_vector.h ****       const _Tp*
 924:/usr/include/c++/7/bits/stl_vector.h ****       data() const _GLIBCXX_NOEXCEPT
 925:/usr/include/c++/7/bits/stl_vector.h ****       { return _M_data_ptr(this->_M_impl._M_start); }
 926:/usr/include/c++/7/bits/stl_vector.h **** 
 927:/usr/include/c++/7/bits/stl_vector.h ****       // [23.2.4.3] modifiers
 928:/usr/include/c++/7/bits/stl_vector.h ****       /**
 929:/usr/include/c++/7/bits/stl_vector.h ****        *  @brief  Add data to the end of the %vector.
 930:/usr/include/c++/7/bits/stl_vector.h ****        *  @param  __x  Data to be added.
 931:/usr/include/c++/7/bits/stl_vector.h ****        *
 932:/usr/include/c++/7/bits/stl_vector.h ****        *  This is a typical stack operation.  The function creates an
 933:/usr/include/c++/7/bits/stl_vector.h ****        *  element at the end of the %vector and assigns the given data
 934:/usr/include/c++/7/bits/stl_vector.h ****        *  to it.  Due to the nature of a %vector this operation can be
 935:/usr/include/c++/7/bits/stl_vector.h ****        *  done in constant time if the %vector has preallocated space
 936:/usr/include/c++/7/bits/stl_vector.h ****        *  available.
 937:/usr/include/c++/7/bits/stl_vector.h ****        */
 938:/usr/include/c++/7/bits/stl_vector.h ****       void
 939:/usr/include/c++/7/bits/stl_vector.h ****       push_back(const value_type& __x)
 940:/usr/include/c++/7/bits/stl_vector.h ****       {
 941:/usr/include/c++/7/bits/stl_vector.h **** 	if (this->_M_impl._M_finish != this->_M_impl._M_end_of_storage)
 942:/usr/include/c++/7/bits/stl_vector.h **** 	  {
 943:/usr/include/c++/7/bits/stl_vector.h **** 	    _Alloc_traits::construct(this->_M_impl, this->_M_impl._M_finish,
 944:/usr/include/c++/7/bits/stl_vector.h **** 				     __x);
 945:/usr/include/c++/7/bits/stl_vector.h **** 	    ++this->_M_impl._M_finish;
 946:/usr/include/c++/7/bits/stl_vector.h **** 	  }
 947:/usr/include/c++/7/bits/stl_vector.h **** 	else
 948:/usr/include/c++/7/bits/stl_vector.h **** 	  _M_realloc_insert(end(), __x);
 949:/usr/include/c++/7/bits/stl_vector.h ****       }
 950:/usr/include/c++/7/bits/stl_vector.h **** 
 951:/usr/include/c++/7/bits/stl_vector.h **** #if __cplusplus >= 201103L
 952:/usr/include/c++/7/bits/stl_vector.h ****       void
 953:/usr/include/c++/7/bits/stl_vector.h ****       push_back(value_type&& __x)
 954:/usr/include/c++/7/bits/stl_vector.h ****       { emplace_back(std::move(__x)); }
 955:/usr/include/c++/7/bits/stl_vector.h **** 
 956:/usr/include/c++/7/bits/stl_vector.h ****       template<typename... _Args>
 957:/usr/include/c++/7/bits/stl_vector.h **** #if __cplusplus > 201402L
 958:/usr/include/c++/7/bits/stl_vector.h **** 	reference
 959:/usr/include/c++/7/bits/stl_vector.h **** #else
 960:/usr/include/c++/7/bits/stl_vector.h **** 	void
 961:/usr/include/c++/7/bits/stl_vector.h **** #endif
 962:/usr/include/c++/7/bits/stl_vector.h **** 	emplace_back(_Args&&... __args);
 963:/usr/include/c++/7/bits/stl_vector.h **** #endif
 964:/usr/include/c++/7/bits/stl_vector.h **** 
 965:/usr/include/c++/7/bits/stl_vector.h ****       /**
 966:/usr/include/c++/7/bits/stl_vector.h ****        *  @brief  Removes last element.
 967:/usr/include/c++/7/bits/stl_vector.h ****        *
 968:/usr/include/c++/7/bits/stl_vector.h ****        *  This is a typical stack operation. It shrinks the %vector by one.
 969:/usr/include/c++/7/bits/stl_vector.h ****        *
 970:/usr/include/c++/7/bits/stl_vector.h ****        *  Note that no data is returned, and if the last element's
 971:/usr/include/c++/7/bits/stl_vector.h ****        *  data is needed, it should be retrieved before pop_back() is
 972:/usr/include/c++/7/bits/stl_vector.h ****        *  called.
 973:/usr/include/c++/7/bits/stl_vector.h ****        */
 974:/usr/include/c++/7/bits/stl_vector.h ****       void
 975:/usr/include/c++/7/bits/stl_vector.h ****       pop_back() _GLIBCXX_NOEXCEPT
 976:/usr/include/c++/7/bits/stl_vector.h ****       {
 977:/usr/include/c++/7/bits/stl_vector.h **** 	__glibcxx_requires_nonempty();
 978:/usr/include/c++/7/bits/stl_vector.h **** 	--this->_M_impl._M_finish;
 979:/usr/include/c++/7/bits/stl_vector.h **** 	_Alloc_traits::destroy(this->_M_impl, this->_M_impl._M_finish);
 980:/usr/include/c++/7/bits/stl_vector.h ****       }
 981:/usr/include/c++/7/bits/stl_vector.h **** 
 982:/usr/include/c++/7/bits/stl_vector.h **** #if __cplusplus >= 201103L
 983:/usr/include/c++/7/bits/stl_vector.h ****       /**
 984:/usr/include/c++/7/bits/stl_vector.h ****        *  @brief  Inserts an object in %vector before specified iterator.
 985:/usr/include/c++/7/bits/stl_vector.h ****        *  @param  __position  A const_iterator into the %vector.
 986:/usr/include/c++/7/bits/stl_vector.h ****        *  @param  __args  Arguments.
 987:/usr/include/c++/7/bits/stl_vector.h ****        *  @return  An iterator that points to the inserted data.
 988:/usr/include/c++/7/bits/stl_vector.h ****        *
 989:/usr/include/c++/7/bits/stl_vector.h ****        *  This function will insert an object of type T constructed
 990:/usr/include/c++/7/bits/stl_vector.h ****        *  with T(std::forward<Args>(args)...) before the specified location.
 991:/usr/include/c++/7/bits/stl_vector.h ****        *  Note that this kind of operation could be expensive for a %vector
 992:/usr/include/c++/7/bits/stl_vector.h ****        *  and if it is frequently used the user should consider using
 993:/usr/include/c++/7/bits/stl_vector.h ****        *  std::list.
 994:/usr/include/c++/7/bits/stl_vector.h ****        */
 995:/usr/include/c++/7/bits/stl_vector.h ****       template<typename... _Args>
 996:/usr/include/c++/7/bits/stl_vector.h **** 	iterator
 997:/usr/include/c++/7/bits/stl_vector.h **** 	emplace(const_iterator __position, _Args&&... __args)
 998:/usr/include/c++/7/bits/stl_vector.h **** 	{ return _M_emplace_aux(__position, std::forward<_Args>(__args)...); }
 999:/usr/include/c++/7/bits/stl_vector.h **** 
1000:/usr/include/c++/7/bits/stl_vector.h ****       /**
1001:/usr/include/c++/7/bits/stl_vector.h ****        *  @brief  Inserts given value into %vector before specified iterator.
1002:/usr/include/c++/7/bits/stl_vector.h ****        *  @param  __position  A const_iterator into the %vector.
1003:/usr/include/c++/7/bits/stl_vector.h ****        *  @param  __x  Data to be inserted.
1004:/usr/include/c++/7/bits/stl_vector.h ****        *  @return  An iterator that points to the inserted data.
1005:/usr/include/c++/7/bits/stl_vector.h ****        *
1006:/usr/include/c++/7/bits/stl_vector.h ****        *  This function will insert a copy of the given value before
1007:/usr/include/c++/7/bits/stl_vector.h ****        *  the specified location.  Note that this kind of operation
1008:/usr/include/c++/7/bits/stl_vector.h ****        *  could be expensive for a %vector and if it is frequently
1009:/usr/include/c++/7/bits/stl_vector.h ****        *  used the user should consider using std::list.
1010:/usr/include/c++/7/bits/stl_vector.h ****        */
1011:/usr/include/c++/7/bits/stl_vector.h ****       iterator
1012:/usr/include/c++/7/bits/stl_vector.h ****       insert(const_iterator __position, const value_type& __x);
1013:/usr/include/c++/7/bits/stl_vector.h **** #else
1014:/usr/include/c++/7/bits/stl_vector.h ****       /**
1015:/usr/include/c++/7/bits/stl_vector.h ****        *  @brief  Inserts given value into %vector before specified iterator.
1016:/usr/include/c++/7/bits/stl_vector.h ****        *  @param  __position  An iterator into the %vector.
1017:/usr/include/c++/7/bits/stl_vector.h ****        *  @param  __x  Data to be inserted.
1018:/usr/include/c++/7/bits/stl_vector.h ****        *  @return  An iterator that points to the inserted data.
1019:/usr/include/c++/7/bits/stl_vector.h ****        *
1020:/usr/include/c++/7/bits/stl_vector.h ****        *  This function will insert a copy of the given value before
1021:/usr/include/c++/7/bits/stl_vector.h ****        *  the specified location.  Note that this kind of operation
1022:/usr/include/c++/7/bits/stl_vector.h ****        *  could be expensive for a %vector and if it is frequently
1023:/usr/include/c++/7/bits/stl_vector.h ****        *  used the user should consider using std::list.
1024:/usr/include/c++/7/bits/stl_vector.h ****        */
1025:/usr/include/c++/7/bits/stl_vector.h ****       iterator
1026:/usr/include/c++/7/bits/stl_vector.h ****       insert(iterator __position, const value_type& __x);
1027:/usr/include/c++/7/bits/stl_vector.h **** #endif
1028:/usr/include/c++/7/bits/stl_vector.h **** 
1029:/usr/include/c++/7/bits/stl_vector.h **** #if __cplusplus >= 201103L
1030:/usr/include/c++/7/bits/stl_vector.h ****       /**
1031:/usr/include/c++/7/bits/stl_vector.h ****        *  @brief  Inserts given rvalue into %vector before specified iterator.
1032:/usr/include/c++/7/bits/stl_vector.h ****        *  @param  __position  A const_iterator into the %vector.
1033:/usr/include/c++/7/bits/stl_vector.h ****        *  @param  __x  Data to be inserted.
1034:/usr/include/c++/7/bits/stl_vector.h ****        *  @return  An iterator that points to the inserted data.
1035:/usr/include/c++/7/bits/stl_vector.h ****        *
1036:/usr/include/c++/7/bits/stl_vector.h ****        *  This function will insert a copy of the given rvalue before
1037:/usr/include/c++/7/bits/stl_vector.h ****        *  the specified location.  Note that this kind of operation
1038:/usr/include/c++/7/bits/stl_vector.h ****        *  could be expensive for a %vector and if it is frequently
1039:/usr/include/c++/7/bits/stl_vector.h ****        *  used the user should consider using std::list.
1040:/usr/include/c++/7/bits/stl_vector.h ****        */
1041:/usr/include/c++/7/bits/stl_vector.h ****       iterator
1042:/usr/include/c++/7/bits/stl_vector.h ****       insert(const_iterator __position, value_type&& __x)
1043:/usr/include/c++/7/bits/stl_vector.h ****       { return _M_insert_rval(__position, std::move(__x)); }
1044:/usr/include/c++/7/bits/stl_vector.h **** 
1045:/usr/include/c++/7/bits/stl_vector.h ****       /**
1046:/usr/include/c++/7/bits/stl_vector.h ****        *  @brief  Inserts an initializer_list into the %vector.
1047:/usr/include/c++/7/bits/stl_vector.h ****        *  @param  __position  An iterator into the %vector.
1048:/usr/include/c++/7/bits/stl_vector.h ****        *  @param  __l  An initializer_list.
1049:/usr/include/c++/7/bits/stl_vector.h ****        *
1050:/usr/include/c++/7/bits/stl_vector.h ****        *  This function will insert copies of the data in the
1051:/usr/include/c++/7/bits/stl_vector.h ****        *  initializer_list @a l into the %vector before the location
1052:/usr/include/c++/7/bits/stl_vector.h ****        *  specified by @a position.
1053:/usr/include/c++/7/bits/stl_vector.h ****        *
1054:/usr/include/c++/7/bits/stl_vector.h ****        *  Note that this kind of operation could be expensive for a
1055:/usr/include/c++/7/bits/stl_vector.h ****        *  %vector and if it is frequently used the user should
1056:/usr/include/c++/7/bits/stl_vector.h ****        *  consider using std::list.
1057:/usr/include/c++/7/bits/stl_vector.h ****        */
1058:/usr/include/c++/7/bits/stl_vector.h ****       iterator
1059:/usr/include/c++/7/bits/stl_vector.h ****       insert(const_iterator __position, initializer_list<value_type> __l)
1060:/usr/include/c++/7/bits/stl_vector.h ****       {
1061:/usr/include/c++/7/bits/stl_vector.h **** 	auto __offset = __position - cbegin();
1062:/usr/include/c++/7/bits/stl_vector.h **** 	_M_range_insert(begin() + __offset, __l.begin(), __l.end(),
1063:/usr/include/c++/7/bits/stl_vector.h **** 			std::random_access_iterator_tag());
1064:/usr/include/c++/7/bits/stl_vector.h **** 	return begin() + __offset;
1065:/usr/include/c++/7/bits/stl_vector.h ****       }
1066:/usr/include/c++/7/bits/stl_vector.h **** #endif
1067:/usr/include/c++/7/bits/stl_vector.h **** 
1068:/usr/include/c++/7/bits/stl_vector.h **** #if __cplusplus >= 201103L
1069:/usr/include/c++/7/bits/stl_vector.h ****       /**
1070:/usr/include/c++/7/bits/stl_vector.h ****        *  @brief  Inserts a number of copies of given data into the %vector.
1071:/usr/include/c++/7/bits/stl_vector.h ****        *  @param  __position  A const_iterator into the %vector.
1072:/usr/include/c++/7/bits/stl_vector.h ****        *  @param  __n  Number of elements to be inserted.
1073:/usr/include/c++/7/bits/stl_vector.h ****        *  @param  __x  Data to be inserted.
1074:/usr/include/c++/7/bits/stl_vector.h ****        *  @return  An iterator that points to the inserted data.
1075:/usr/include/c++/7/bits/stl_vector.h ****        *
1076:/usr/include/c++/7/bits/stl_vector.h ****        *  This function will insert a specified number of copies of
1077:/usr/include/c++/7/bits/stl_vector.h ****        *  the given data before the location specified by @a position.
1078:/usr/include/c++/7/bits/stl_vector.h ****        *
1079:/usr/include/c++/7/bits/stl_vector.h ****        *  Note that this kind of operation could be expensive for a
1080:/usr/include/c++/7/bits/stl_vector.h ****        *  %vector and if it is frequently used the user should
1081:/usr/include/c++/7/bits/stl_vector.h ****        *  consider using std::list.
1082:/usr/include/c++/7/bits/stl_vector.h ****        */
1083:/usr/include/c++/7/bits/stl_vector.h ****       iterator
1084:/usr/include/c++/7/bits/stl_vector.h ****       insert(const_iterator __position, size_type __n, const value_type& __x)
1085:/usr/include/c++/7/bits/stl_vector.h ****       {
1086:/usr/include/c++/7/bits/stl_vector.h **** 	difference_type __offset = __position - cbegin();
1087:/usr/include/c++/7/bits/stl_vector.h **** 	_M_fill_insert(begin() + __offset, __n, __x);
1088:/usr/include/c++/7/bits/stl_vector.h **** 	return begin() + __offset;
1089:/usr/include/c++/7/bits/stl_vector.h ****       }
1090:/usr/include/c++/7/bits/stl_vector.h **** #else
1091:/usr/include/c++/7/bits/stl_vector.h ****       /**
1092:/usr/include/c++/7/bits/stl_vector.h ****        *  @brief  Inserts a number of copies of given data into the %vector.
1093:/usr/include/c++/7/bits/stl_vector.h ****        *  @param  __position  An iterator into the %vector.
1094:/usr/include/c++/7/bits/stl_vector.h ****        *  @param  __n  Number of elements to be inserted.
1095:/usr/include/c++/7/bits/stl_vector.h ****        *  @param  __x  Data to be inserted.
1096:/usr/include/c++/7/bits/stl_vector.h ****        *
1097:/usr/include/c++/7/bits/stl_vector.h ****        *  This function will insert a specified number of copies of
1098:/usr/include/c++/7/bits/stl_vector.h ****        *  the given data before the location specified by @a position.
1099:/usr/include/c++/7/bits/stl_vector.h ****        *
1100:/usr/include/c++/7/bits/stl_vector.h ****        *  Note that this kind of operation could be expensive for a
1101:/usr/include/c++/7/bits/stl_vector.h ****        *  %vector and if it is frequently used the user should
1102:/usr/include/c++/7/bits/stl_vector.h ****        *  consider using std::list.
1103:/usr/include/c++/7/bits/stl_vector.h ****        */
1104:/usr/include/c++/7/bits/stl_vector.h ****       void
1105:/usr/include/c++/7/bits/stl_vector.h ****       insert(iterator __position, size_type __n, const value_type& __x)
1106:/usr/include/c++/7/bits/stl_vector.h ****       { _M_fill_insert(__position, __n, __x); }
1107:/usr/include/c++/7/bits/stl_vector.h **** #endif
1108:/usr/include/c++/7/bits/stl_vector.h **** 
1109:/usr/include/c++/7/bits/stl_vector.h **** #if __cplusplus >= 201103L
1110:/usr/include/c++/7/bits/stl_vector.h ****       /**
1111:/usr/include/c++/7/bits/stl_vector.h ****        *  @brief  Inserts a range into the %vector.
1112:/usr/include/c++/7/bits/stl_vector.h ****        *  @param  __position  A const_iterator into the %vector.
1113:/usr/include/c++/7/bits/stl_vector.h ****        *  @param  __first  An input iterator.
1114:/usr/include/c++/7/bits/stl_vector.h ****        *  @param  __last   An input iterator.
1115:/usr/include/c++/7/bits/stl_vector.h ****        *  @return  An iterator that points to the inserted data.
1116:/usr/include/c++/7/bits/stl_vector.h ****        *
1117:/usr/include/c++/7/bits/stl_vector.h ****        *  This function will insert copies of the data in the range
1118:/usr/include/c++/7/bits/stl_vector.h ****        *  [__first,__last) into the %vector before the location specified
1119:/usr/include/c++/7/bits/stl_vector.h ****        *  by @a pos.
1120:/usr/include/c++/7/bits/stl_vector.h ****        *
1121:/usr/include/c++/7/bits/stl_vector.h ****        *  Note that this kind of operation could be expensive for a
1122:/usr/include/c++/7/bits/stl_vector.h ****        *  %vector and if it is frequently used the user should
1123:/usr/include/c++/7/bits/stl_vector.h ****        *  consider using std::list.
1124:/usr/include/c++/7/bits/stl_vector.h ****        */
1125:/usr/include/c++/7/bits/stl_vector.h ****       template<typename _InputIterator,
1126:/usr/include/c++/7/bits/stl_vector.h **** 	       typename = std::_RequireInputIter<_InputIterator>>
1127:/usr/include/c++/7/bits/stl_vector.h **** 	iterator
1128:/usr/include/c++/7/bits/stl_vector.h **** 	insert(const_iterator __position, _InputIterator __first,
1129:/usr/include/c++/7/bits/stl_vector.h **** 	       _InputIterator __last)
1130:/usr/include/c++/7/bits/stl_vector.h **** 	{
1131:/usr/include/c++/7/bits/stl_vector.h **** 	  difference_type __offset = __position - cbegin();
1132:/usr/include/c++/7/bits/stl_vector.h **** 	  _M_insert_dispatch(begin() + __offset,
1133:/usr/include/c++/7/bits/stl_vector.h **** 			     __first, __last, __false_type());
1134:/usr/include/c++/7/bits/stl_vector.h **** 	  return begin() + __offset;
1135:/usr/include/c++/7/bits/stl_vector.h **** 	}
1136:/usr/include/c++/7/bits/stl_vector.h **** #else
1137:/usr/include/c++/7/bits/stl_vector.h ****       /**
1138:/usr/include/c++/7/bits/stl_vector.h ****        *  @brief  Inserts a range into the %vector.
1139:/usr/include/c++/7/bits/stl_vector.h ****        *  @param  __position  An iterator into the %vector.
1140:/usr/include/c++/7/bits/stl_vector.h ****        *  @param  __first  An input iterator.
1141:/usr/include/c++/7/bits/stl_vector.h ****        *  @param  __last   An input iterator.
1142:/usr/include/c++/7/bits/stl_vector.h ****        *
1143:/usr/include/c++/7/bits/stl_vector.h ****        *  This function will insert copies of the data in the range
1144:/usr/include/c++/7/bits/stl_vector.h ****        *  [__first,__last) into the %vector before the location specified
1145:/usr/include/c++/7/bits/stl_vector.h ****        *  by @a pos.
1146:/usr/include/c++/7/bits/stl_vector.h ****        *
1147:/usr/include/c++/7/bits/stl_vector.h ****        *  Note that this kind of operation could be expensive for a
1148:/usr/include/c++/7/bits/stl_vector.h ****        *  %vector and if it is frequently used the user should
1149:/usr/include/c++/7/bits/stl_vector.h ****        *  consider using std::list.
1150:/usr/include/c++/7/bits/stl_vector.h ****        */
1151:/usr/include/c++/7/bits/stl_vector.h ****       template<typename _InputIterator>
1152:/usr/include/c++/7/bits/stl_vector.h **** 	void
1153:/usr/include/c++/7/bits/stl_vector.h **** 	insert(iterator __position, _InputIterator __first,
1154:/usr/include/c++/7/bits/stl_vector.h **** 	       _InputIterator __last)
1155:/usr/include/c++/7/bits/stl_vector.h **** 	{
1156:/usr/include/c++/7/bits/stl_vector.h **** 	  // Check whether it's an integral type.  If so, it's not an iterator.
1157:/usr/include/c++/7/bits/stl_vector.h **** 	  typedef typename std::__is_integer<_InputIterator>::__type _Integral;
1158:/usr/include/c++/7/bits/stl_vector.h **** 	  _M_insert_dispatch(__position, __first, __last, _Integral());
1159:/usr/include/c++/7/bits/stl_vector.h **** 	}
1160:/usr/include/c++/7/bits/stl_vector.h **** #endif
1161:/usr/include/c++/7/bits/stl_vector.h **** 
1162:/usr/include/c++/7/bits/stl_vector.h ****       /**
1163:/usr/include/c++/7/bits/stl_vector.h ****        *  @brief  Remove element at given position.
1164:/usr/include/c++/7/bits/stl_vector.h ****        *  @param  __position  Iterator pointing to element to be erased.
1165:/usr/include/c++/7/bits/stl_vector.h ****        *  @return  An iterator pointing to the next element (or end()).
1166:/usr/include/c++/7/bits/stl_vector.h ****        *
1167:/usr/include/c++/7/bits/stl_vector.h ****        *  This function will erase the element at the given position and thus
1168:/usr/include/c++/7/bits/stl_vector.h ****        *  shorten the %vector by one.
1169:/usr/include/c++/7/bits/stl_vector.h ****        *
1170:/usr/include/c++/7/bits/stl_vector.h ****        *  Note This operation could be expensive and if it is
1171:/usr/include/c++/7/bits/stl_vector.h ****        *  frequently used the user should consider using std::list.
1172:/usr/include/c++/7/bits/stl_vector.h ****        *  The user is also cautioned that this function only erases
1173:/usr/include/c++/7/bits/stl_vector.h ****        *  the element, and that if the element is itself a pointer,
1174:/usr/include/c++/7/bits/stl_vector.h ****        *  the pointed-to memory is not touched in any way.  Managing
1175:/usr/include/c++/7/bits/stl_vector.h ****        *  the pointer is the user's responsibility.
1176:/usr/include/c++/7/bits/stl_vector.h ****        */
1177:/usr/include/c++/7/bits/stl_vector.h ****       iterator
1178:/usr/include/c++/7/bits/stl_vector.h **** #if __cplusplus >= 201103L
1179:/usr/include/c++/7/bits/stl_vector.h ****       erase(const_iterator __position)
1180:/usr/include/c++/7/bits/stl_vector.h ****       { return _M_erase(begin() + (__position - cbegin())); }
1181:/usr/include/c++/7/bits/stl_vector.h **** #else
1182:/usr/include/c++/7/bits/stl_vector.h ****       erase(iterator __position)
1183:/usr/include/c++/7/bits/stl_vector.h ****       { return _M_erase(__position); }
1184:/usr/include/c++/7/bits/stl_vector.h **** #endif
1185:/usr/include/c++/7/bits/stl_vector.h **** 
1186:/usr/include/c++/7/bits/stl_vector.h ****       /**
1187:/usr/include/c++/7/bits/stl_vector.h ****        *  @brief  Remove a range of elements.
1188:/usr/include/c++/7/bits/stl_vector.h ****        *  @param  __first  Iterator pointing to the first element to be erased.
1189:/usr/include/c++/7/bits/stl_vector.h ****        *  @param  __last  Iterator pointing to one past the last element to be
1190:/usr/include/c++/7/bits/stl_vector.h ****        *                  erased.
1191:/usr/include/c++/7/bits/stl_vector.h ****        *  @return  An iterator pointing to the element pointed to by @a __last
1192:/usr/include/c++/7/bits/stl_vector.h ****        *           prior to erasing (or end()).
1193:/usr/include/c++/7/bits/stl_vector.h ****        *
1194:/usr/include/c++/7/bits/stl_vector.h ****        *  This function will erase the elements in the range
1195:/usr/include/c++/7/bits/stl_vector.h ****        *  [__first,__last) and shorten the %vector accordingly.
1196:/usr/include/c++/7/bits/stl_vector.h ****        *
1197:/usr/include/c++/7/bits/stl_vector.h ****        *  Note This operation could be expensive and if it is
1198:/usr/include/c++/7/bits/stl_vector.h ****        *  frequently used the user should consider using std::list.
1199:/usr/include/c++/7/bits/stl_vector.h ****        *  The user is also cautioned that this function only erases
1200:/usr/include/c++/7/bits/stl_vector.h ****        *  the elements, and that if the elements themselves are
1201:/usr/include/c++/7/bits/stl_vector.h ****        *  pointers, the pointed-to memory is not touched in any way.
1202:/usr/include/c++/7/bits/stl_vector.h ****        *  Managing the pointer is the user's responsibility.
1203:/usr/include/c++/7/bits/stl_vector.h ****        */
1204:/usr/include/c++/7/bits/stl_vector.h ****       iterator
1205:/usr/include/c++/7/bits/stl_vector.h **** #if __cplusplus >= 201103L
1206:/usr/include/c++/7/bits/stl_vector.h ****       erase(const_iterator __first, const_iterator __last)
1207:/usr/include/c++/7/bits/stl_vector.h ****       {
1208:/usr/include/c++/7/bits/stl_vector.h **** 	const auto __beg = begin();
1209:/usr/include/c++/7/bits/stl_vector.h **** 	const auto __cbeg = cbegin();
1210:/usr/include/c++/7/bits/stl_vector.h **** 	return _M_erase(__beg + (__first - __cbeg), __beg + (__last - __cbeg));
1211:/usr/include/c++/7/bits/stl_vector.h ****       }
1212:/usr/include/c++/7/bits/stl_vector.h **** #else
1213:/usr/include/c++/7/bits/stl_vector.h ****       erase(iterator __first, iterator __last)
1214:/usr/include/c++/7/bits/stl_vector.h ****       { return _M_erase(__first, __last); }
1215:/usr/include/c++/7/bits/stl_vector.h **** #endif
1216:/usr/include/c++/7/bits/stl_vector.h **** 
1217:/usr/include/c++/7/bits/stl_vector.h ****       /**
1218:/usr/include/c++/7/bits/stl_vector.h ****        *  @brief  Swaps data with another %vector.
1219:/usr/include/c++/7/bits/stl_vector.h ****        *  @param  __x  A %vector of the same element and allocator types.
1220:/usr/include/c++/7/bits/stl_vector.h ****        *
1221:/usr/include/c++/7/bits/stl_vector.h ****        *  This exchanges the elements between two vectors in constant time.
1222:/usr/include/c++/7/bits/stl_vector.h ****        *  (Three pointers, so it should be quite fast.)
1223:/usr/include/c++/7/bits/stl_vector.h ****        *  Note that the global std::swap() function is specialized such that
1224:/usr/include/c++/7/bits/stl_vector.h ****        *  std::swap(v1,v2) will feed to this function.
1225:/usr/include/c++/7/bits/stl_vector.h ****        *
1226:/usr/include/c++/7/bits/stl_vector.h ****        *  Whether the allocators are swapped depends on the allocator traits.
1227:/usr/include/c++/7/bits/stl_vector.h ****        */
1228:/usr/include/c++/7/bits/stl_vector.h ****       void
1229:/usr/include/c++/7/bits/stl_vector.h ****       swap(vector& __x) _GLIBCXX_NOEXCEPT
1230:/usr/include/c++/7/bits/stl_vector.h ****       {
1231:/usr/include/c++/7/bits/stl_vector.h **** #if __cplusplus >= 201103L
1232:/usr/include/c++/7/bits/stl_vector.h **** 	__glibcxx_assert(_Alloc_traits::propagate_on_container_swap::value
1233:/usr/include/c++/7/bits/stl_vector.h **** 			 || _M_get_Tp_allocator() == __x._M_get_Tp_allocator());
1234:/usr/include/c++/7/bits/stl_vector.h **** #endif
1235:/usr/include/c++/7/bits/stl_vector.h **** 	this->_M_impl._M_swap_data(__x._M_impl);
1236:/usr/include/c++/7/bits/stl_vector.h **** 	_Alloc_traits::_S_on_swap(_M_get_Tp_allocator(),
1237:/usr/include/c++/7/bits/stl_vector.h **** 				  __x._M_get_Tp_allocator());
1238:/usr/include/c++/7/bits/stl_vector.h ****       }
1239:/usr/include/c++/7/bits/stl_vector.h **** 
1240:/usr/include/c++/7/bits/stl_vector.h ****       /**
1241:/usr/include/c++/7/bits/stl_vector.h ****        *  Erases all the elements.  Note that this function only erases the
1242:/usr/include/c++/7/bits/stl_vector.h ****        *  elements, and that if the elements themselves are pointers, the
1243:/usr/include/c++/7/bits/stl_vector.h ****        *  pointed-to memory is not touched in any way.  Managing the pointer is
1244:/usr/include/c++/7/bits/stl_vector.h ****        *  the user's responsibility.
1245:/usr/include/c++/7/bits/stl_vector.h ****        */
1246:/usr/include/c++/7/bits/stl_vector.h ****       void
1247:/usr/include/c++/7/bits/stl_vector.h ****       clear() _GLIBCXX_NOEXCEPT
1248:/usr/include/c++/7/bits/stl_vector.h ****       { _M_erase_at_end(this->_M_impl._M_start); }
1249:/usr/include/c++/7/bits/stl_vector.h **** 
1250:/usr/include/c++/7/bits/stl_vector.h ****     protected:
1251:/usr/include/c++/7/bits/stl_vector.h ****       /**
1252:/usr/include/c++/7/bits/stl_vector.h ****        *  Memory expansion handler.  Uses the member allocation function to
1253:/usr/include/c++/7/bits/stl_vector.h ****        *  obtain @a n bytes of memory, and then copies [first,last) into it.
1254:/usr/include/c++/7/bits/stl_vector.h ****        */
1255:/usr/include/c++/7/bits/stl_vector.h ****       template<typename _ForwardIterator>
1256:/usr/include/c++/7/bits/stl_vector.h **** 	pointer
1257:/usr/include/c++/7/bits/stl_vector.h **** 	_M_allocate_and_copy(size_type __n,
1258:/usr/include/c++/7/bits/stl_vector.h **** 			     _ForwardIterator __first, _ForwardIterator __last)
1259:/usr/include/c++/7/bits/stl_vector.h **** 	{
1260:/usr/include/c++/7/bits/stl_vector.h **** 	  pointer __result = this->_M_allocate(__n);
1261:/usr/include/c++/7/bits/stl_vector.h **** 	  __try
1262:/usr/include/c++/7/bits/stl_vector.h **** 	    {
1263:/usr/include/c++/7/bits/stl_vector.h **** 	      std::__uninitialized_copy_a(__first, __last, __result,
1264:/usr/include/c++/7/bits/stl_vector.h **** 					  _M_get_Tp_allocator());
1265:/usr/include/c++/7/bits/stl_vector.h **** 	      return __result;
1266:/usr/include/c++/7/bits/stl_vector.h **** 	    }
1267:/usr/include/c++/7/bits/stl_vector.h **** 	  __catch(...)
1268:/usr/include/c++/7/bits/stl_vector.h **** 	    {
1269:/usr/include/c++/7/bits/stl_vector.h **** 	      _M_deallocate(__result, __n);
1270:/usr/include/c++/7/bits/stl_vector.h **** 	      __throw_exception_again;
1271:/usr/include/c++/7/bits/stl_vector.h **** 	    }
1272:/usr/include/c++/7/bits/stl_vector.h **** 	}
1273:/usr/include/c++/7/bits/stl_vector.h **** 
1274:/usr/include/c++/7/bits/stl_vector.h **** 
1275:/usr/include/c++/7/bits/stl_vector.h ****       // Internal constructor functions follow.
1276:/usr/include/c++/7/bits/stl_vector.h **** 
1277:/usr/include/c++/7/bits/stl_vector.h ****       // Called by the range constructor to implement [23.1.1]/9
1278:/usr/include/c++/7/bits/stl_vector.h **** 
1279:/usr/include/c++/7/bits/stl_vector.h ****       // _GLIBCXX_RESOLVE_LIB_DEFECTS
1280:/usr/include/c++/7/bits/stl_vector.h ****       // 438. Ambiguity in the "do the right thing" clause
1281:/usr/include/c++/7/bits/stl_vector.h ****       template<typename _Integer>
1282:/usr/include/c++/7/bits/stl_vector.h **** 	void
1283:/usr/include/c++/7/bits/stl_vector.h **** 	_M_initialize_dispatch(_Integer __n, _Integer __value, __true_type)
1284:/usr/include/c++/7/bits/stl_vector.h **** 	{
1285:/usr/include/c++/7/bits/stl_vector.h **** 	  this->_M_impl._M_start = _M_allocate(static_cast<size_type>(__n));
1286:/usr/include/c++/7/bits/stl_vector.h **** 	  this->_M_impl._M_end_of_storage =
1287:/usr/include/c++/7/bits/stl_vector.h **** 	    this->_M_impl._M_start + static_cast<size_type>(__n);
1288:/usr/include/c++/7/bits/stl_vector.h **** 	  _M_fill_initialize(static_cast<size_type>(__n), __value);
1289:/usr/include/c++/7/bits/stl_vector.h **** 	}
1290:/usr/include/c++/7/bits/stl_vector.h **** 
1291:/usr/include/c++/7/bits/stl_vector.h ****       // Called by the range constructor to implement [23.1.1]/9
1292:/usr/include/c++/7/bits/stl_vector.h ****       template<typename _InputIterator>
1293:/usr/include/c++/7/bits/stl_vector.h **** 	void
1294:/usr/include/c++/7/bits/stl_vector.h **** 	_M_initialize_dispatch(_InputIterator __first, _InputIterator __last,
1295:/usr/include/c++/7/bits/stl_vector.h **** 			       __false_type)
1296:/usr/include/c++/7/bits/stl_vector.h **** 	{
1297:/usr/include/c++/7/bits/stl_vector.h **** 	  typedef typename std::iterator_traits<_InputIterator>::
1298:/usr/include/c++/7/bits/stl_vector.h **** 	    iterator_category _IterCategory;
1299:/usr/include/c++/7/bits/stl_vector.h **** 	  _M_range_initialize(__first, __last, _IterCategory());
1300:/usr/include/c++/7/bits/stl_vector.h **** 	}
1301:/usr/include/c++/7/bits/stl_vector.h **** 
1302:/usr/include/c++/7/bits/stl_vector.h ****       // Called by the second initialize_dispatch above
1303:/usr/include/c++/7/bits/stl_vector.h ****       template<typename _InputIterator>
1304:/usr/include/c++/7/bits/stl_vector.h **** 	void
1305:/usr/include/c++/7/bits/stl_vector.h **** 	_M_range_initialize(_InputIterator __first,
1306:/usr/include/c++/7/bits/stl_vector.h **** 			    _InputIterator __last, std::input_iterator_tag)
1307:/usr/include/c++/7/bits/stl_vector.h **** 	{
1308:/usr/include/c++/7/bits/stl_vector.h **** 	  for (; __first != __last; ++__first)
1309:/usr/include/c++/7/bits/stl_vector.h **** #if __cplusplus >= 201103L
1310:/usr/include/c++/7/bits/stl_vector.h **** 	    emplace_back(*__first);
1311:/usr/include/c++/7/bits/stl_vector.h **** #else
1312:/usr/include/c++/7/bits/stl_vector.h **** 	    push_back(*__first);
1313:/usr/include/c++/7/bits/stl_vector.h **** #endif
1314:/usr/include/c++/7/bits/stl_vector.h **** 	}
1315:/usr/include/c++/7/bits/stl_vector.h **** 
1316:/usr/include/c++/7/bits/stl_vector.h ****       // Called by the second initialize_dispatch above
1317:/usr/include/c++/7/bits/stl_vector.h ****       template<typename _ForwardIterator>
1318:/usr/include/c++/7/bits/stl_vector.h **** 	void
1319:/usr/include/c++/7/bits/stl_vector.h **** 	_M_range_initialize(_ForwardIterator __first,
1320:/usr/include/c++/7/bits/stl_vector.h **** 			    _ForwardIterator __last, std::forward_iterator_tag)
1321:/usr/include/c++/7/bits/stl_vector.h **** 	{
1322:/usr/include/c++/7/bits/stl_vector.h **** 	  const size_type __n = std::distance(__first, __last);
1323:/usr/include/c++/7/bits/stl_vector.h **** 	  this->_M_impl._M_start = this->_M_allocate(__n);
1324:/usr/include/c++/7/bits/stl_vector.h **** 	  this->_M_impl._M_end_of_storage = this->_M_impl._M_start + __n;
1325:/usr/include/c++/7/bits/stl_vector.h **** 	  this->_M_impl._M_finish =
1326:/usr/include/c++/7/bits/stl_vector.h **** 	    std::__uninitialized_copy_a(__first, __last,
1327:/usr/include/c++/7/bits/stl_vector.h **** 					this->_M_impl._M_start,
1328:/usr/include/c++/7/bits/stl_vector.h **** 					_M_get_Tp_allocator());
1329:/usr/include/c++/7/bits/stl_vector.h **** 	}
1330:/usr/include/c++/7/bits/stl_vector.h **** 
1331:/usr/include/c++/7/bits/stl_vector.h ****       // Called by the first initialize_dispatch above and by the
1332:/usr/include/c++/7/bits/stl_vector.h ****       // vector(n,value,a) constructor.
1333:/usr/include/c++/7/bits/stl_vector.h ****       void
1334:/usr/include/c++/7/bits/stl_vector.h ****       _M_fill_initialize(size_type __n, const value_type& __value)
1335:/usr/include/c++/7/bits/stl_vector.h ****       {
1336:/usr/include/c++/7/bits/stl_vector.h **** 	this->_M_impl._M_finish =
1337:/usr/include/c++/7/bits/stl_vector.h **** 	  std::__uninitialized_fill_n_a(this->_M_impl._M_start, __n, __value,
1338:/usr/include/c++/7/bits/stl_vector.h **** 					_M_get_Tp_allocator());
1339:/usr/include/c++/7/bits/stl_vector.h ****       }
1340:/usr/include/c++/7/bits/stl_vector.h **** 
1341:/usr/include/c++/7/bits/stl_vector.h **** #if __cplusplus >= 201103L
1342:/usr/include/c++/7/bits/stl_vector.h ****       // Called by the vector(n) constructor.
1343:/usr/include/c++/7/bits/stl_vector.h ****       void
1344:/usr/include/c++/7/bits/stl_vector.h ****       _M_default_initialize(size_type __n)
1345:/usr/include/c++/7/bits/stl_vector.h ****       {
1346:/usr/include/c++/7/bits/stl_vector.h **** 	this->_M_impl._M_finish =
1347:/usr/include/c++/7/bits/stl_vector.h **** 	  std::__uninitialized_default_n_a(this->_M_impl._M_start, __n,
1348:/usr/include/c++/7/bits/stl_vector.h **** 					   _M_get_Tp_allocator());
1349:/usr/include/c++/7/bits/stl_vector.h ****       }
1350:/usr/include/c++/7/bits/stl_vector.h **** #endif
1351:/usr/include/c++/7/bits/stl_vector.h **** 
1352:/usr/include/c++/7/bits/stl_vector.h ****       // Internal assign functions follow.  The *_aux functions do the actual
1353:/usr/include/c++/7/bits/stl_vector.h ****       // assignment work for the range versions.
1354:/usr/include/c++/7/bits/stl_vector.h **** 
1355:/usr/include/c++/7/bits/stl_vector.h ****       // Called by the range assign to implement [23.1.1]/9
1356:/usr/include/c++/7/bits/stl_vector.h **** 
1357:/usr/include/c++/7/bits/stl_vector.h ****       // _GLIBCXX_RESOLVE_LIB_DEFECTS
1358:/usr/include/c++/7/bits/stl_vector.h ****       // 438. Ambiguity in the "do the right thing" clause
1359:/usr/include/c++/7/bits/stl_vector.h ****       template<typename _Integer>
1360:/usr/include/c++/7/bits/stl_vector.h **** 	void
1361:/usr/include/c++/7/bits/stl_vector.h **** 	_M_assign_dispatch(_Integer __n, _Integer __val, __true_type)
1362:/usr/include/c++/7/bits/stl_vector.h **** 	{ _M_fill_assign(__n, __val); }
1363:/usr/include/c++/7/bits/stl_vector.h **** 
1364:/usr/include/c++/7/bits/stl_vector.h ****       // Called by the range assign to implement [23.1.1]/9
1365:/usr/include/c++/7/bits/stl_vector.h ****       template<typename _InputIterator>
1366:/usr/include/c++/7/bits/stl_vector.h **** 	void
1367:/usr/include/c++/7/bits/stl_vector.h **** 	_M_assign_dispatch(_InputIterator __first, _InputIterator __last,
1368:/usr/include/c++/7/bits/stl_vector.h **** 			   __false_type)
1369:/usr/include/c++/7/bits/stl_vector.h **** 	{ _M_assign_aux(__first, __last, std::__iterator_category(__first)); }
1370:/usr/include/c++/7/bits/stl_vector.h **** 
1371:/usr/include/c++/7/bits/stl_vector.h ****       // Called by the second assign_dispatch above
1372:/usr/include/c++/7/bits/stl_vector.h ****       template<typename _InputIterator>
1373:/usr/include/c++/7/bits/stl_vector.h **** 	void
1374:/usr/include/c++/7/bits/stl_vector.h **** 	_M_assign_aux(_InputIterator __first, _InputIterator __last,
1375:/usr/include/c++/7/bits/stl_vector.h **** 		      std::input_iterator_tag);
1376:/usr/include/c++/7/bits/stl_vector.h **** 
1377:/usr/include/c++/7/bits/stl_vector.h ****       // Called by the second assign_dispatch above
1378:/usr/include/c++/7/bits/stl_vector.h ****       template<typename _ForwardIterator>
1379:/usr/include/c++/7/bits/stl_vector.h **** 	void
1380:/usr/include/c++/7/bits/stl_vector.h **** 	_M_assign_aux(_ForwardIterator __first, _ForwardIterator __last,
1381:/usr/include/c++/7/bits/stl_vector.h **** 		      std::forward_iterator_tag);
1382:/usr/include/c++/7/bits/stl_vector.h **** 
1383:/usr/include/c++/7/bits/stl_vector.h ****       // Called by assign(n,t), and the range assign when it turns out
1384:/usr/include/c++/7/bits/stl_vector.h ****       // to be the same thing.
1385:/usr/include/c++/7/bits/stl_vector.h ****       void
1386:/usr/include/c++/7/bits/stl_vector.h ****       _M_fill_assign(size_type __n, const value_type& __val);
1387:/usr/include/c++/7/bits/stl_vector.h **** 
1388:/usr/include/c++/7/bits/stl_vector.h ****       // Internal insert functions follow.
1389:/usr/include/c++/7/bits/stl_vector.h **** 
1390:/usr/include/c++/7/bits/stl_vector.h ****       // Called by the range insert to implement [23.1.1]/9
1391:/usr/include/c++/7/bits/stl_vector.h **** 
1392:/usr/include/c++/7/bits/stl_vector.h ****       // _GLIBCXX_RESOLVE_LIB_DEFECTS
1393:/usr/include/c++/7/bits/stl_vector.h ****       // 438. Ambiguity in the "do the right thing" clause
1394:/usr/include/c++/7/bits/stl_vector.h ****       template<typename _Integer>
1395:/usr/include/c++/7/bits/stl_vector.h **** 	void
1396:/usr/include/c++/7/bits/stl_vector.h **** 	_M_insert_dispatch(iterator __pos, _Integer __n, _Integer __val,
1397:/usr/include/c++/7/bits/stl_vector.h **** 			   __true_type)
1398:/usr/include/c++/7/bits/stl_vector.h **** 	{ _M_fill_insert(__pos, __n, __val); }
1399:/usr/include/c++/7/bits/stl_vector.h **** 
1400:/usr/include/c++/7/bits/stl_vector.h ****       // Called by the range insert to implement [23.1.1]/9
1401:/usr/include/c++/7/bits/stl_vector.h ****       template<typename _InputIterator>
1402:/usr/include/c++/7/bits/stl_vector.h **** 	void
1403:/usr/include/c++/7/bits/stl_vector.h **** 	_M_insert_dispatch(iterator __pos, _InputIterator __first,
1404:/usr/include/c++/7/bits/stl_vector.h **** 			   _InputIterator __last, __false_type)
1405:/usr/include/c++/7/bits/stl_vector.h **** 	{
1406:/usr/include/c++/7/bits/stl_vector.h **** 	  _M_range_insert(__pos, __first, __last,
1407:/usr/include/c++/7/bits/stl_vector.h **** 			  std::__iterator_category(__first));
1408:/usr/include/c++/7/bits/stl_vector.h **** 	}
1409:/usr/include/c++/7/bits/stl_vector.h **** 
1410:/usr/include/c++/7/bits/stl_vector.h ****       // Called by the second insert_dispatch above
1411:/usr/include/c++/7/bits/stl_vector.h ****       template<typename _InputIterator>
1412:/usr/include/c++/7/bits/stl_vector.h **** 	void
1413:/usr/include/c++/7/bits/stl_vector.h **** 	_M_range_insert(iterator __pos, _InputIterator __first,
1414:/usr/include/c++/7/bits/stl_vector.h **** 			_InputIterator __last, std::input_iterator_tag);
1415:/usr/include/c++/7/bits/stl_vector.h **** 
1416:/usr/include/c++/7/bits/stl_vector.h ****       // Called by the second insert_dispatch above
1417:/usr/include/c++/7/bits/stl_vector.h ****       template<typename _ForwardIterator>
1418:/usr/include/c++/7/bits/stl_vector.h **** 	void
1419:/usr/include/c++/7/bits/stl_vector.h **** 	_M_range_insert(iterator __pos, _ForwardIterator __first,
1420:/usr/include/c++/7/bits/stl_vector.h **** 			_ForwardIterator __last, std::forward_iterator_tag);
1421:/usr/include/c++/7/bits/stl_vector.h **** 
1422:/usr/include/c++/7/bits/stl_vector.h ****       // Called by insert(p,n,x), and the range insert when it turns out to be
1423:/usr/include/c++/7/bits/stl_vector.h ****       // the same thing.
1424:/usr/include/c++/7/bits/stl_vector.h ****       void
1425:/usr/include/c++/7/bits/stl_vector.h ****       _M_fill_insert(iterator __pos, size_type __n, const value_type& __x);
1426:/usr/include/c++/7/bits/stl_vector.h **** 
1427:/usr/include/c++/7/bits/stl_vector.h **** #if __cplusplus >= 201103L
1428:/usr/include/c++/7/bits/stl_vector.h ****       // Called by resize(n).
1429:/usr/include/c++/7/bits/stl_vector.h ****       void
1430:/usr/include/c++/7/bits/stl_vector.h ****       _M_default_append(size_type __n);
1431:/usr/include/c++/7/bits/stl_vector.h **** 
1432:/usr/include/c++/7/bits/stl_vector.h ****       bool
1433:/usr/include/c++/7/bits/stl_vector.h ****       _M_shrink_to_fit();
1434:/usr/include/c++/7/bits/stl_vector.h **** #endif
1435:/usr/include/c++/7/bits/stl_vector.h **** 
1436:/usr/include/c++/7/bits/stl_vector.h **** #if __cplusplus < 201103L
1437:/usr/include/c++/7/bits/stl_vector.h ****       // Called by insert(p,x)
1438:/usr/include/c++/7/bits/stl_vector.h ****       void
1439:/usr/include/c++/7/bits/stl_vector.h ****       _M_insert_aux(iterator __position, const value_type& __x);
1440:/usr/include/c++/7/bits/stl_vector.h **** 
1441:/usr/include/c++/7/bits/stl_vector.h ****       void
1442:/usr/include/c++/7/bits/stl_vector.h ****       _M_realloc_insert(iterator __position, const value_type& __x);
1443:/usr/include/c++/7/bits/stl_vector.h **** #else
1444:/usr/include/c++/7/bits/stl_vector.h ****       // A value_type object constructed with _Alloc_traits::construct()
1445:/usr/include/c++/7/bits/stl_vector.h ****       // and destroyed with _Alloc_traits::destroy().
1446:/usr/include/c++/7/bits/stl_vector.h ****       struct _Temporary_value
1447:/usr/include/c++/7/bits/stl_vector.h ****       {
1448:/usr/include/c++/7/bits/stl_vector.h **** 	template<typename... _Args>
1449:/usr/include/c++/7/bits/stl_vector.h **** 	  explicit
1450:/usr/include/c++/7/bits/stl_vector.h **** 	  _Temporary_value(vector* __vec, _Args&&... __args) : _M_this(__vec)
1451:/usr/include/c++/7/bits/stl_vector.h **** 	  {
1452:/usr/include/c++/7/bits/stl_vector.h **** 	    _Alloc_traits::construct(_M_this->_M_impl, _M_ptr(),
1453:/usr/include/c++/7/bits/stl_vector.h **** 				     std::forward<_Args>(__args)...);
1454:/usr/include/c++/7/bits/stl_vector.h **** 	  }
1455:/usr/include/c++/7/bits/stl_vector.h **** 
1456:/usr/include/c++/7/bits/stl_vector.h **** 	~_Temporary_value()
1457:/usr/include/c++/7/bits/stl_vector.h **** 	{ _Alloc_traits::destroy(_M_this->_M_impl, _M_ptr()); }
1458:/usr/include/c++/7/bits/stl_vector.h **** 
1459:/usr/include/c++/7/bits/stl_vector.h **** 	value_type&
1460:/usr/include/c++/7/bits/stl_vector.h **** 	_M_val() { return *reinterpret_cast<_Tp*>(&__buf); }
1461:/usr/include/c++/7/bits/stl_vector.h **** 
1462:/usr/include/c++/7/bits/stl_vector.h ****       private:
1463:/usr/include/c++/7/bits/stl_vector.h **** 	pointer
1464:/usr/include/c++/7/bits/stl_vector.h **** 	_M_ptr() { return pointer_traits<pointer>::pointer_to(_M_val()); }
1465:/usr/include/c++/7/bits/stl_vector.h **** 
1466:/usr/include/c++/7/bits/stl_vector.h **** 	vector* _M_this;
1467:/usr/include/c++/7/bits/stl_vector.h **** 	typename aligned_storage<sizeof(_Tp), alignof(_Tp)>::type __buf;
1468:/usr/include/c++/7/bits/stl_vector.h ****       };
1469:/usr/include/c++/7/bits/stl_vector.h **** 
1470:/usr/include/c++/7/bits/stl_vector.h ****       // Called by insert(p,x) and other functions when insertion needs to
1471:/usr/include/c++/7/bits/stl_vector.h ****       // reallocate or move existing elements. _Arg is either _Tp& or _Tp.
1472:/usr/include/c++/7/bits/stl_vector.h ****       template<typename _Arg>
1473:/usr/include/c++/7/bits/stl_vector.h **** 	void
1474:/usr/include/c++/7/bits/stl_vector.h **** 	_M_insert_aux(iterator __position, _Arg&& __arg);
1475:/usr/include/c++/7/bits/stl_vector.h **** 
1476:/usr/include/c++/7/bits/stl_vector.h ****       template<typename... _Args>
1477:/usr/include/c++/7/bits/stl_vector.h **** 	void
1478:/usr/include/c++/7/bits/stl_vector.h **** 	_M_realloc_insert(iterator __position, _Args&&... __args);
1479:/usr/include/c++/7/bits/stl_vector.h **** 
1480:/usr/include/c++/7/bits/stl_vector.h ****       // Either move-construct at the end, or forward to _M_insert_aux.
1481:/usr/include/c++/7/bits/stl_vector.h ****       iterator
1482:/usr/include/c++/7/bits/stl_vector.h ****       _M_insert_rval(const_iterator __position, value_type&& __v);
1483:/usr/include/c++/7/bits/stl_vector.h **** 
1484:/usr/include/c++/7/bits/stl_vector.h ****       // Try to emplace at the end, otherwise forward to _M_insert_aux.
1485:/usr/include/c++/7/bits/stl_vector.h ****       template<typename... _Args>
1486:/usr/include/c++/7/bits/stl_vector.h **** 	iterator
1487:/usr/include/c++/7/bits/stl_vector.h **** 	_M_emplace_aux(const_iterator __position, _Args&&... __args);
1488:/usr/include/c++/7/bits/stl_vector.h **** 
1489:/usr/include/c++/7/bits/stl_vector.h ****       // Emplacing an rvalue of the correct type can use _M_insert_rval.
1490:/usr/include/c++/7/bits/stl_vector.h ****       iterator
1491:/usr/include/c++/7/bits/stl_vector.h ****       _M_emplace_aux(const_iterator __position, value_type&& __v)
1492:/usr/include/c++/7/bits/stl_vector.h ****       { return _M_insert_rval(__position, std::move(__v)); }
1493:/usr/include/c++/7/bits/stl_vector.h **** #endif
1494:/usr/include/c++/7/bits/stl_vector.h **** 
1495:/usr/include/c++/7/bits/stl_vector.h ****       // Called by _M_fill_insert, _M_insert_aux etc.
1496:/usr/include/c++/7/bits/stl_vector.h ****       size_type
1497:/usr/include/c++/7/bits/stl_vector.h ****       _M_check_len(size_type __n, const char* __s) const
1498:/usr/include/c++/7/bits/stl_vector.h ****       {
1499:/usr/include/c++/7/bits/stl_vector.h **** 	if (max_size() - size() < __n)
1500:/usr/include/c++/7/bits/stl_vector.h **** 	  __throw_length_error(__N(__s));
1501:/usr/include/c++/7/bits/stl_vector.h **** 
1502:/usr/include/c++/7/bits/stl_vector.h **** 	const size_type __len = size() + std::max(size(), __n);
1503:/usr/include/c++/7/bits/stl_vector.h **** 	return (__len < size() || __len > max_size()) ? max_size() : __len;
1504:/usr/include/c++/7/bits/stl_vector.h ****       }
1505:/usr/include/c++/7/bits/stl_vector.h **** 
1506:/usr/include/c++/7/bits/stl_vector.h ****       // Internal erase functions follow.
1507:/usr/include/c++/7/bits/stl_vector.h **** 
1508:/usr/include/c++/7/bits/stl_vector.h ****       // Called by erase(q1,q2), clear(), resize(), _M_fill_assign,
1509:/usr/include/c++/7/bits/stl_vector.h ****       // _M_assign_aux.
1510:/usr/include/c++/7/bits/stl_vector.h ****       void
1511:/usr/include/c++/7/bits/stl_vector.h ****       _M_erase_at_end(pointer __pos) _GLIBCXX_NOEXCEPT
 2216              		.loc 2 1511 0
 2217              		.cfi_startproc
 2218              		.cfi_personality 0x9b,DW.ref.__gxx_personality_v0
 2219              		.cfi_lsda 0x1b,.LLSDA2259
 2220 0000 55       		pushq	%rbp
 2221              		.cfi_def_cfa_offset 16
 2222              		.cfi_offset 6, -16
 2223 0001 4889E5   		movq	%rsp, %rbp
 2224              		.cfi_def_cfa_register 6
 2225 0004 4883EC10 		subq	$16, %rsp
 2226 0008 48897DF8 		movq	%rdi, -8(%rbp)
 2227 000c 488975F0 		movq	%rsi, -16(%rbp)
1512:/usr/include/c++/7/bits/stl_vector.h ****       {
1513:/usr/include/c++/7/bits/stl_vector.h **** 	std::_Destroy(__pos, this->_M_impl._M_finish, _M_get_Tp_allocator());
 2228              		.loc 2 1513 0
 2229 0010 488B45F8 		movq	-8(%rbp), %rax
 2230 0014 4889C7   		movq	%rax, %rdi
 2231 0017 E8000000 		call	_ZNSt12_Vector_baseIdSaIdEE19_M_get_Tp_allocatorEv
 2231      00
 2232 001c 4889C2   		movq	%rax, %rdx
 2233 001f 488B45F8 		movq	-8(%rbp), %rax
 2234 0023 488B4808 		movq	8(%rax), %rcx
 2235 0027 488B45F0 		movq	-16(%rbp), %rax
 2236 002b 4889CE   		movq	%rcx, %rsi
 2237 002e 4889C7   		movq	%rax, %rdi
 2238 0031 E8000000 		call	_ZSt8_DestroyIPddEvT_S1_RSaIT0_E
 2238      00
1514:/usr/include/c++/7/bits/stl_vector.h **** 	this->_M_impl._M_finish = __pos;
 2239              		.loc 2 1514 0
 2240 0036 488B45F8 		movq	-8(%rbp), %rax
 2241 003a 488B55F0 		movq	-16(%rbp), %rdx
 2242 003e 48895008 		movq	%rdx, 8(%rax)
1515:/usr/include/c++/7/bits/stl_vector.h ****       }
 2243              		.loc 2 1515 0
 2244 0042 90       		nop
 2245 0043 C9       		leave
 2246              		.cfi_def_cfa 7, 8
 2247 0044 C3       		ret
 2248              		.cfi_endproc
 2249              	.LFE2259:
 2250              		.section	.gcc_except_table
 2251              	.LLSDA2259:
 2252 00a4 FF       		.byte	0xff
 2253 00a5 FF       		.byte	0xff
 2254 00a6 01       		.byte	0x1
 2255 00a7 00       		.uleb128 .LLSDACSE2259-.LLSDACSB2259
 2256              	.LLSDACSB2259:
 2257              	.LLSDACSE2259:
 2258              		.section	.text._ZNSt6vectorIdSaIdEE15_M_erase_at_endEPd,"axG",@progbits,_ZNSt6vectorIdSaIdEE15_M_e
 2260              		.section	.text._ZNSt12_Vector_baseIdSaIdEE12_Vector_implC2Ev,"axG",@progbits,_ZNSt12_Vector_baseId
 2261              		.align 2
 2262              		.weak	_ZNSt12_Vector_baseIdSaIdEE12_Vector_implC2Ev
 2264              	_ZNSt12_Vector_baseIdSaIdEE12_Vector_implC2Ev:
 2265              	.LFB2296:
  88:/usr/include/c++/7/bits/stl_vector.h **** 	: _Tp_alloc_type(), _M_start(), _M_finish(), _M_end_of_storage()
 2266              		.loc 2 88 0
 2267              		.cfi_startproc
 2268 0000 55       		pushq	%rbp
 2269              		.cfi_def_cfa_offset 16
 2270              		.cfi_offset 6, -16
 2271 0001 4889E5   		movq	%rsp, %rbp
 2272              		.cfi_def_cfa_register 6
 2273 0004 4883EC10 		subq	$16, %rsp
 2274 0008 48897DF8 		movq	%rdi, -8(%rbp)
 2275              	.LBB36:
  89:/usr/include/c++/7/bits/stl_vector.h **** 	{ }
 2276              		.loc 2 89 0
 2277 000c 488B45F8 		movq	-8(%rbp), %rax
 2278 0010 4889C7   		movq	%rax, %rdi
 2279 0013 E8000000 		call	_ZNSaIdEC2Ev
 2279      00
 2280 0018 488B45F8 		movq	-8(%rbp), %rax
 2281 001c 48C70000 		movq	$0, (%rax)
 2281      000000
 2282 0023 488B45F8 		movq	-8(%rbp), %rax
 2283 0027 48C74008 		movq	$0, 8(%rax)
 2283      00000000 
 2284 002f 488B45F8 		movq	-8(%rbp), %rax
 2285 0033 48C74010 		movq	$0, 16(%rax)
 2285      00000000 
 2286              	.LBE36:
  90:/usr/include/c++/7/bits/stl_vector.h **** 
 2287              		.loc 2 90 0
 2288 003b 90       		nop
 2289 003c C9       		leave
 2290              		.cfi_def_cfa 7, 8
 2291 003d C3       		ret
 2292              		.cfi_endproc
 2293              	.LFE2296:
 2295              		.weak	_ZNSt12_Vector_baseIdSaIdEE12_Vector_implC1Ev
 2296              		.set	_ZNSt12_Vector_baseIdSaIdEE12_Vector_implC1Ev,_ZNSt12_Vector_baseIdSaIdEE12_Vector_implC2Ev
 2297              		.section	.text._ZNSaIdED2Ev,"axG",@progbits,_ZNSaIdED5Ev,comdat
 2298              		.align 2
 2299              		.weak	_ZNSaIdED2Ev
 2301              	_ZNSaIdED2Ev:
 2302              	.LFB2299:
 2303              		.file 5 "/usr/include/c++/7/bits/allocator.h"
   1:/usr/include/c++/7/bits/allocator.h **** // Allocators -*- C++ -*-
   2:/usr/include/c++/7/bits/allocator.h **** 
   3:/usr/include/c++/7/bits/allocator.h **** // Copyright (C) 2001-2017 Free Software Foundation, Inc.
   4:/usr/include/c++/7/bits/allocator.h **** //
   5:/usr/include/c++/7/bits/allocator.h **** // This file is part of the GNU ISO C++ Library.  This library is free
   6:/usr/include/c++/7/bits/allocator.h **** // software; you can redistribute it and/or modify it under the
   7:/usr/include/c++/7/bits/allocator.h **** // terms of the GNU General Public License as published by the
   8:/usr/include/c++/7/bits/allocator.h **** // Free Software Foundation; either version 3, or (at your option)
   9:/usr/include/c++/7/bits/allocator.h **** // any later version.
  10:/usr/include/c++/7/bits/allocator.h **** 
  11:/usr/include/c++/7/bits/allocator.h **** // This library is distributed in the hope that it will be useful,
  12:/usr/include/c++/7/bits/allocator.h **** // but WITHOUT ANY WARRANTY; without even the implied warranty of
  13:/usr/include/c++/7/bits/allocator.h **** // MERCHANTABILITY or FITNESS FOR A PARTICULAR PURPOSE.  See the
  14:/usr/include/c++/7/bits/allocator.h **** // GNU General Public License for more details.
  15:/usr/include/c++/7/bits/allocator.h **** 
  16:/usr/include/c++/7/bits/allocator.h **** // Under Section 7 of GPL version 3, you are granted additional
  17:/usr/include/c++/7/bits/allocator.h **** // permissions described in the GCC Runtime Library Exception, version
  18:/usr/include/c++/7/bits/allocator.h **** // 3.1, as published by the Free Software Foundation.
  19:/usr/include/c++/7/bits/allocator.h **** 
  20:/usr/include/c++/7/bits/allocator.h **** // You should have received a copy of the GNU General Public License and
  21:/usr/include/c++/7/bits/allocator.h **** // a copy of the GCC Runtime Library Exception along with this program;
  22:/usr/include/c++/7/bits/allocator.h **** // see the files COPYING3 and COPYING.RUNTIME respectively.  If not, see
  23:/usr/include/c++/7/bits/allocator.h **** // <http://www.gnu.org/licenses/>.
  24:/usr/include/c++/7/bits/allocator.h **** 
  25:/usr/include/c++/7/bits/allocator.h **** /*
  26:/usr/include/c++/7/bits/allocator.h ****  * Copyright (c) 1996-1997
  27:/usr/include/c++/7/bits/allocator.h ****  * Silicon Graphics Computer Systems, Inc.
  28:/usr/include/c++/7/bits/allocator.h ****  *
  29:/usr/include/c++/7/bits/allocator.h ****  * Permission to use, copy, modify, distribute and sell this software
  30:/usr/include/c++/7/bits/allocator.h ****  * and its documentation for any purpose is hereby granted without fee,
  31:/usr/include/c++/7/bits/allocator.h ****  * provided that the above copyright notice appear in all copies and
  32:/usr/include/c++/7/bits/allocator.h ****  * that both that copyright notice and this permission notice appear
  33:/usr/include/c++/7/bits/allocator.h ****  * in supporting documentation.  Silicon Graphics makes no
  34:/usr/include/c++/7/bits/allocator.h ****  * representations about the suitability of this software for any
  35:/usr/include/c++/7/bits/allocator.h ****  * purpose.  It is provided "as is" without express or implied warranty.
  36:/usr/include/c++/7/bits/allocator.h ****  */
  37:/usr/include/c++/7/bits/allocator.h **** 
  38:/usr/include/c++/7/bits/allocator.h **** /** @file bits/allocator.h
  39:/usr/include/c++/7/bits/allocator.h ****  *  This is an internal header file, included by other library headers.
  40:/usr/include/c++/7/bits/allocator.h ****  *  Do not attempt to use it directly. @headername{memory}
  41:/usr/include/c++/7/bits/allocator.h ****  */
  42:/usr/include/c++/7/bits/allocator.h **** 
  43:/usr/include/c++/7/bits/allocator.h **** #ifndef _ALLOCATOR_H
  44:/usr/include/c++/7/bits/allocator.h **** #define _ALLOCATOR_H 1
  45:/usr/include/c++/7/bits/allocator.h **** 
  46:/usr/include/c++/7/bits/allocator.h **** #include <bits/c++allocator.h> // Define the base class to std::allocator.
  47:/usr/include/c++/7/bits/allocator.h **** #include <bits/memoryfwd.h>
  48:/usr/include/c++/7/bits/allocator.h **** #if __cplusplus >= 201103L
  49:/usr/include/c++/7/bits/allocator.h **** #include <type_traits>
  50:/usr/include/c++/7/bits/allocator.h **** #endif
  51:/usr/include/c++/7/bits/allocator.h **** 
  52:/usr/include/c++/7/bits/allocator.h **** #define __cpp_lib_incomplete_container_elements 201505
  53:/usr/include/c++/7/bits/allocator.h **** #if __cplusplus >= 201103L
  54:/usr/include/c++/7/bits/allocator.h **** # define __cpp_lib_allocator_is_always_equal 201411
  55:/usr/include/c++/7/bits/allocator.h **** #endif
  56:/usr/include/c++/7/bits/allocator.h **** 
  57:/usr/include/c++/7/bits/allocator.h **** namespace std _GLIBCXX_VISIBILITY(default)
  58:/usr/include/c++/7/bits/allocator.h **** {
  59:/usr/include/c++/7/bits/allocator.h **** _GLIBCXX_BEGIN_NAMESPACE_VERSION
  60:/usr/include/c++/7/bits/allocator.h **** 
  61:/usr/include/c++/7/bits/allocator.h ****   /**
  62:/usr/include/c++/7/bits/allocator.h ****    *  @addtogroup allocators
  63:/usr/include/c++/7/bits/allocator.h ****    *  @{
  64:/usr/include/c++/7/bits/allocator.h ****    */
  65:/usr/include/c++/7/bits/allocator.h **** 
  66:/usr/include/c++/7/bits/allocator.h ****   /// allocator<void> specialization.
  67:/usr/include/c++/7/bits/allocator.h ****   template<>
  68:/usr/include/c++/7/bits/allocator.h ****     class allocator<void>
  69:/usr/include/c++/7/bits/allocator.h ****     {
  70:/usr/include/c++/7/bits/allocator.h ****     public:
  71:/usr/include/c++/7/bits/allocator.h ****       typedef size_t      size_type;
  72:/usr/include/c++/7/bits/allocator.h ****       typedef ptrdiff_t   difference_type;
  73:/usr/include/c++/7/bits/allocator.h ****       typedef void*       pointer;
  74:/usr/include/c++/7/bits/allocator.h ****       typedef const void* const_pointer;
  75:/usr/include/c++/7/bits/allocator.h ****       typedef void        value_type;
  76:/usr/include/c++/7/bits/allocator.h **** 
  77:/usr/include/c++/7/bits/allocator.h ****       template<typename _Tp1>
  78:/usr/include/c++/7/bits/allocator.h **** 	struct rebind
  79:/usr/include/c++/7/bits/allocator.h **** 	{ typedef allocator<_Tp1> other; };
  80:/usr/include/c++/7/bits/allocator.h **** 
  81:/usr/include/c++/7/bits/allocator.h **** #if __cplusplus >= 201103L
  82:/usr/include/c++/7/bits/allocator.h ****       // _GLIBCXX_RESOLVE_LIB_DEFECTS
  83:/usr/include/c++/7/bits/allocator.h ****       // 2103. std::allocator propagate_on_container_move_assignment
  84:/usr/include/c++/7/bits/allocator.h ****       typedef true_type propagate_on_container_move_assignment;
  85:/usr/include/c++/7/bits/allocator.h **** 
  86:/usr/include/c++/7/bits/allocator.h ****       typedef true_type is_always_equal;
  87:/usr/include/c++/7/bits/allocator.h **** 
  88:/usr/include/c++/7/bits/allocator.h ****       template<typename _Up, typename... _Args>
  89:/usr/include/c++/7/bits/allocator.h **** 	void
  90:/usr/include/c++/7/bits/allocator.h **** 	construct(_Up* __p, _Args&&... __args)
  91:/usr/include/c++/7/bits/allocator.h **** 	{ ::new((void *)__p) _Up(std::forward<_Args>(__args)...); }
  92:/usr/include/c++/7/bits/allocator.h **** 
  93:/usr/include/c++/7/bits/allocator.h ****       template<typename _Up>
  94:/usr/include/c++/7/bits/allocator.h **** 	void
  95:/usr/include/c++/7/bits/allocator.h **** 	destroy(_Up* __p) { __p->~_Up(); }
  96:/usr/include/c++/7/bits/allocator.h **** #endif
  97:/usr/include/c++/7/bits/allocator.h ****     };
  98:/usr/include/c++/7/bits/allocator.h **** 
  99:/usr/include/c++/7/bits/allocator.h ****   /**
 100:/usr/include/c++/7/bits/allocator.h ****    * @brief  The @a standard allocator, as per [20.4].
 101:/usr/include/c++/7/bits/allocator.h ****    *
 102:/usr/include/c++/7/bits/allocator.h ****    *  See https://gcc.gnu.org/onlinedocs/libstdc++/manual/memory.html#std.util.memory.allocator
 103:/usr/include/c++/7/bits/allocator.h ****    *  for further details.
 104:/usr/include/c++/7/bits/allocator.h ****    *
 105:/usr/include/c++/7/bits/allocator.h ****    *  @tparam  _Tp  Type of allocated object.
 106:/usr/include/c++/7/bits/allocator.h ****    */
 107:/usr/include/c++/7/bits/allocator.h ****   template<typename _Tp>
 108:/usr/include/c++/7/bits/allocator.h ****     class allocator: public __allocator_base<_Tp>
 109:/usr/include/c++/7/bits/allocator.h ****     {
 110:/usr/include/c++/7/bits/allocator.h ****    public:
 111:/usr/include/c++/7/bits/allocator.h ****       typedef size_t     size_type;
 112:/usr/include/c++/7/bits/allocator.h ****       typedef ptrdiff_t  difference_type;
 113:/usr/include/c++/7/bits/allocator.h ****       typedef _Tp*       pointer;
 114:/usr/include/c++/7/bits/allocator.h ****       typedef const _Tp* const_pointer;
 115:/usr/include/c++/7/bits/allocator.h ****       typedef _Tp&       reference;
 116:/usr/include/c++/7/bits/allocator.h ****       typedef const _Tp& const_reference;
 117:/usr/include/c++/7/bits/allocator.h ****       typedef _Tp        value_type;
 118:/usr/include/c++/7/bits/allocator.h **** 
 119:/usr/include/c++/7/bits/allocator.h ****       template<typename _Tp1>
 120:/usr/include/c++/7/bits/allocator.h **** 	struct rebind
 121:/usr/include/c++/7/bits/allocator.h **** 	{ typedef allocator<_Tp1> other; };
 122:/usr/include/c++/7/bits/allocator.h **** 
 123:/usr/include/c++/7/bits/allocator.h **** #if __cplusplus >= 201103L
 124:/usr/include/c++/7/bits/allocator.h ****       // _GLIBCXX_RESOLVE_LIB_DEFECTS
 125:/usr/include/c++/7/bits/allocator.h ****       // 2103. std::allocator propagate_on_container_move_assignment
 126:/usr/include/c++/7/bits/allocator.h ****       typedef true_type propagate_on_container_move_assignment;
 127:/usr/include/c++/7/bits/allocator.h **** 
 128:/usr/include/c++/7/bits/allocator.h ****       typedef true_type is_always_equal;
 129:/usr/include/c++/7/bits/allocator.h **** #endif
 130:/usr/include/c++/7/bits/allocator.h **** 
 131:/usr/include/c++/7/bits/allocator.h ****       allocator() throw() { }
 132:/usr/include/c++/7/bits/allocator.h **** 
 133:/usr/include/c++/7/bits/allocator.h ****       allocator(const allocator& __a) throw()
 134:/usr/include/c++/7/bits/allocator.h ****       : __allocator_base<_Tp>(__a) { }
 135:/usr/include/c++/7/bits/allocator.h **** 
 136:/usr/include/c++/7/bits/allocator.h ****       template<typename _Tp1>
 137:/usr/include/c++/7/bits/allocator.h **** 	allocator(const allocator<_Tp1>&) throw() { }
 138:/usr/include/c++/7/bits/allocator.h **** 
 139:/usr/include/c++/7/bits/allocator.h ****       ~allocator() throw() { }
 2304              		.loc 5 139 0
 2305              		.cfi_startproc
 2306 0000 55       		pushq	%rbp
 2307              		.cfi_def_cfa_offset 16
 2308              		.cfi_offset 6, -16
 2309 0001 4889E5   		movq	%rsp, %rbp
 2310              		.cfi_def_cfa_register 6
 2311 0004 4883EC10 		subq	$16, %rsp
 2312 0008 48897DF8 		movq	%rdi, -8(%rbp)
 2313              	.LBB37:
 2314              		.loc 5 139 0
 2315 000c 488B45F8 		movq	-8(%rbp), %rax
 2316 0010 4889C7   		movq	%rax, %rdi
 2317 0013 E8000000 		call	_ZN9__gnu_cxx13new_allocatorIdED2Ev
 2317      00
 2318              	.LBE37:
 2319 0018 90       		nop
 2320 0019 C9       		leave
 2321              		.cfi_def_cfa 7, 8
 2322 001a C3       		ret
 2323              		.cfi_endproc
 2324              	.LFE2299:
 2326              		.weak	_ZNSaIdED1Ev
 2327              		.set	_ZNSaIdED1Ev,_ZNSaIdED2Ev
 2328              		.section	.text._ZNSt12_Vector_baseIdSaIdEE13_M_deallocateEPdm,"axG",@progbits,_ZNSt12_Vector_baseI
 2329              		.align 2
 2330              		.weak	_ZNSt12_Vector_baseIdSaIdEE13_M_deallocateEPdm
 2332              	_ZNSt12_Vector_baseIdSaIdEE13_M_deallocateEPdm:
 2333              	.LFB2301:
 176:/usr/include/c++/7/bits/stl_vector.h ****       {
 2334              		.loc 2 176 0
 2335              		.cfi_startproc
 2336 0000 55       		pushq	%rbp
 2337              		.cfi_def_cfa_offset 16
 2338              		.cfi_offset 6, -16
 2339 0001 4889E5   		movq	%rsp, %rbp
 2340              		.cfi_def_cfa_register 6
 2341 0004 4883EC20 		subq	$32, %rsp
 2342 0008 48897DF8 		movq	%rdi, -8(%rbp)
 2343 000c 488975F0 		movq	%rsi, -16(%rbp)
 2344 0010 488955E8 		movq	%rdx, -24(%rbp)
 179:/usr/include/c++/7/bits/stl_vector.h **** 	  _Tr::deallocate(_M_impl, __p, __n);
 2345              		.loc 2 179 0
 2346 0014 48837DF0 		cmpq	$0, -16(%rbp)
 2346      00
 2347 0019 7417     		je	.L102
 180:/usr/include/c++/7/bits/stl_vector.h ****       }
 2348              		.loc 2 180 0
 2349 001b 488B45F8 		movq	-8(%rbp), %rax
 2350 001f 488B55E8 		movq	-24(%rbp), %rdx
 2351 0023 488B4DF0 		movq	-16(%rbp), %rcx
 2352 0027 4889CE   		movq	%rcx, %rsi
 2353 002a 4889C7   		movq	%rax, %rdi
 2354 002d E8000000 		call	_ZNSt16allocator_traitsISaIdEE10deallocateERS0_Pdm
 2354      00
 2355              	.L102:
 181:/usr/include/c++/7/bits/stl_vector.h **** 
 2356              		.loc 2 181 0
 2357 0032 90       		nop
 2358 0033 C9       		leave
 2359              		.cfi_def_cfa 7, 8
 2360 0034 C3       		ret
 2361              		.cfi_endproc
 2362              	.LFE2301:
 2364              		.section	.text._ZSt8_DestroyIPdEvT_S1_,"axG",@progbits,_ZSt8_DestroyIPdEvT_S1_,comdat
 2365              		.weak	_ZSt8_DestroyIPdEvT_S1_
 2367              	_ZSt8_DestroyIPdEvT_S1_:
 2368              	.LFB2302:
 127:/usr/include/c++/7/bits/stl_construct.h ****     {
 2369              		.loc 3 127 0
 2370              		.cfi_startproc
 2371 0000 55       		pushq	%rbp
 2372              		.cfi_def_cfa_offset 16
 2373              		.cfi_offset 6, -16
 2374 0001 4889E5   		movq	%rsp, %rbp
 2375              		.cfi_def_cfa_register 6
 2376 0004 4883EC10 		subq	$16, %rsp
 2377 0008 48897DF8 		movq	%rdi, -8(%rbp)
 2378 000c 488975F0 		movq	%rsi, -16(%rbp)
 137:/usr/include/c++/7/bits/stl_construct.h ****     }
 2379              		.loc 3 137 0
 2380 0010 488B55F0 		movq	-16(%rbp), %rdx
 2381 0014 488B45F8 		movq	-8(%rbp), %rax
 2382 0018 4889D6   		movq	%rdx, %rsi
 2383 001b 4889C7   		movq	%rax, %rdi
 2384 001e E8000000 		call	_ZNSt12_Destroy_auxILb1EE9__destroyIPdEEvT_S3_
 2384      00
 138:/usr/include/c++/7/bits/stl_construct.h **** 
 2385              		.loc 3 138 0
 2386 0023 90       		nop
 2387 0024 C9       		leave
 2388              		.cfi_def_cfa 7, 8
 2389 0025 C3       		ret
 2390              		.cfi_endproc
 2391              	.LFE2302:
 2393              		.section	.text._ZSt27__uninitialized_default_n_aIPdmdET_S1_T0_RSaIT1_E,"axG",@progbits,_ZSt27__uni
 2394              		.weak	_ZSt27__uninitialized_default_n_aIPdmdET_S1_T0_RSaIT1_E
 2396              	_ZSt27__uninitialized_default_n_aIPdmdET_S1_T0_RSaIT1_E:
 2397              	.LFB2306:
 2398              		.file 6 "/usr/include/c++/7/bits/stl_uninitialized.h"
   1:/usr/include/c++/7/bits/stl_uninitialized.h **** // Raw memory manipulators -*- C++ -*-
   2:/usr/include/c++/7/bits/stl_uninitialized.h **** 
   3:/usr/include/c++/7/bits/stl_uninitialized.h **** // Copyright (C) 2001-2017 Free Software Foundation, Inc.
   4:/usr/include/c++/7/bits/stl_uninitialized.h **** //
   5:/usr/include/c++/7/bits/stl_uninitialized.h **** // This file is part of the GNU ISO C++ Library.  This library is free
   6:/usr/include/c++/7/bits/stl_uninitialized.h **** // software; you can redistribute it and/or modify it under the
   7:/usr/include/c++/7/bits/stl_uninitialized.h **** // terms of the GNU General Public License as published by the
   8:/usr/include/c++/7/bits/stl_uninitialized.h **** // Free Software Foundation; either version 3, or (at your option)
   9:/usr/include/c++/7/bits/stl_uninitialized.h **** // any later version.
  10:/usr/include/c++/7/bits/stl_uninitialized.h **** 
  11:/usr/include/c++/7/bits/stl_uninitialized.h **** // This library is distributed in the hope that it will be useful,
  12:/usr/include/c++/7/bits/stl_uninitialized.h **** // but WITHOUT ANY WARRANTY; without even the implied warranty of
  13:/usr/include/c++/7/bits/stl_uninitialized.h **** // MERCHANTABILITY or FITNESS FOR A PARTICULAR PURPOSE.  See the
  14:/usr/include/c++/7/bits/stl_uninitialized.h **** // GNU General Public License for more details.
  15:/usr/include/c++/7/bits/stl_uninitialized.h **** 
  16:/usr/include/c++/7/bits/stl_uninitialized.h **** // Under Section 7 of GPL version 3, you are granted additional
  17:/usr/include/c++/7/bits/stl_uninitialized.h **** // permissions described in the GCC Runtime Library Exception, version
  18:/usr/include/c++/7/bits/stl_uninitialized.h **** // 3.1, as published by the Free Software Foundation.
  19:/usr/include/c++/7/bits/stl_uninitialized.h **** 
  20:/usr/include/c++/7/bits/stl_uninitialized.h **** // You should have received a copy of the GNU General Public License and
  21:/usr/include/c++/7/bits/stl_uninitialized.h **** // a copy of the GCC Runtime Library Exception along with this program;
  22:/usr/include/c++/7/bits/stl_uninitialized.h **** // see the files COPYING3 and COPYING.RUNTIME respectively.  If not, see
  23:/usr/include/c++/7/bits/stl_uninitialized.h **** // <http://www.gnu.org/licenses/>.
  24:/usr/include/c++/7/bits/stl_uninitialized.h **** 
  25:/usr/include/c++/7/bits/stl_uninitialized.h **** /*
  26:/usr/include/c++/7/bits/stl_uninitialized.h ****  *
  27:/usr/include/c++/7/bits/stl_uninitialized.h ****  * Copyright (c) 1994
  28:/usr/include/c++/7/bits/stl_uninitialized.h ****  * Hewlett-Packard Company
  29:/usr/include/c++/7/bits/stl_uninitialized.h ****  *
  30:/usr/include/c++/7/bits/stl_uninitialized.h ****  * Permission to use, copy, modify, distribute and sell this software
  31:/usr/include/c++/7/bits/stl_uninitialized.h ****  * and its documentation for any purpose is hereby granted without fee,
  32:/usr/include/c++/7/bits/stl_uninitialized.h ****  * provided that the above copyright notice appear in all copies and
  33:/usr/include/c++/7/bits/stl_uninitialized.h ****  * that both that copyright notice and this permission notice appear
  34:/usr/include/c++/7/bits/stl_uninitialized.h ****  * in supporting documentation.  Hewlett-Packard Company makes no
  35:/usr/include/c++/7/bits/stl_uninitialized.h ****  * representations about the suitability of this software for any
  36:/usr/include/c++/7/bits/stl_uninitialized.h ****  * purpose.  It is provided "as is" without express or implied warranty.
  37:/usr/include/c++/7/bits/stl_uninitialized.h ****  *
  38:/usr/include/c++/7/bits/stl_uninitialized.h ****  *
  39:/usr/include/c++/7/bits/stl_uninitialized.h ****  * Copyright (c) 1996,1997
  40:/usr/include/c++/7/bits/stl_uninitialized.h ****  * Silicon Graphics Computer Systems, Inc.
  41:/usr/include/c++/7/bits/stl_uninitialized.h ****  *
  42:/usr/include/c++/7/bits/stl_uninitialized.h ****  * Permission to use, copy, modify, distribute and sell this software
  43:/usr/include/c++/7/bits/stl_uninitialized.h ****  * and its documentation for any purpose is hereby granted without fee,
  44:/usr/include/c++/7/bits/stl_uninitialized.h ****  * provided that the above copyright notice appear in all copies and
  45:/usr/include/c++/7/bits/stl_uninitialized.h ****  * that both that copyright notice and this permission notice appear
  46:/usr/include/c++/7/bits/stl_uninitialized.h ****  * in supporting documentation.  Silicon Graphics makes no
  47:/usr/include/c++/7/bits/stl_uninitialized.h ****  * representations about the suitability of this software for any
  48:/usr/include/c++/7/bits/stl_uninitialized.h ****  * purpose.  It is provided "as is" without express or implied warranty.
  49:/usr/include/c++/7/bits/stl_uninitialized.h ****  */
  50:/usr/include/c++/7/bits/stl_uninitialized.h **** 
  51:/usr/include/c++/7/bits/stl_uninitialized.h **** /** @file bits/stl_uninitialized.h
  52:/usr/include/c++/7/bits/stl_uninitialized.h ****  *  This is an internal header file, included by other library headers.
  53:/usr/include/c++/7/bits/stl_uninitialized.h ****  *  Do not attempt to use it directly. @headername{memory}
  54:/usr/include/c++/7/bits/stl_uninitialized.h ****  */
  55:/usr/include/c++/7/bits/stl_uninitialized.h **** 
  56:/usr/include/c++/7/bits/stl_uninitialized.h **** #ifndef _STL_UNINITIALIZED_H
  57:/usr/include/c++/7/bits/stl_uninitialized.h **** #define _STL_UNINITIALIZED_H 1
  58:/usr/include/c++/7/bits/stl_uninitialized.h **** 
  59:/usr/include/c++/7/bits/stl_uninitialized.h **** #if __cplusplus > 201402L
  60:/usr/include/c++/7/bits/stl_uninitialized.h **** #include <utility>
  61:/usr/include/c++/7/bits/stl_uninitialized.h **** #endif
  62:/usr/include/c++/7/bits/stl_uninitialized.h **** 
  63:/usr/include/c++/7/bits/stl_uninitialized.h **** #if __cplusplus >= 201103L
  64:/usr/include/c++/7/bits/stl_uninitialized.h **** #include <type_traits>
  65:/usr/include/c++/7/bits/stl_uninitialized.h **** #endif
  66:/usr/include/c++/7/bits/stl_uninitialized.h **** 
  67:/usr/include/c++/7/bits/stl_uninitialized.h **** namespace std _GLIBCXX_VISIBILITY(default)
  68:/usr/include/c++/7/bits/stl_uninitialized.h **** {
  69:/usr/include/c++/7/bits/stl_uninitialized.h **** _GLIBCXX_BEGIN_NAMESPACE_VERSION
  70:/usr/include/c++/7/bits/stl_uninitialized.h **** 
  71:/usr/include/c++/7/bits/stl_uninitialized.h ****   template<bool _TrivialValueTypes>
  72:/usr/include/c++/7/bits/stl_uninitialized.h ****     struct __uninitialized_copy
  73:/usr/include/c++/7/bits/stl_uninitialized.h ****     {
  74:/usr/include/c++/7/bits/stl_uninitialized.h ****       template<typename _InputIterator, typename _ForwardIterator>
  75:/usr/include/c++/7/bits/stl_uninitialized.h ****         static _ForwardIterator
  76:/usr/include/c++/7/bits/stl_uninitialized.h ****         __uninit_copy(_InputIterator __first, _InputIterator __last,
  77:/usr/include/c++/7/bits/stl_uninitialized.h **** 		      _ForwardIterator __result)
  78:/usr/include/c++/7/bits/stl_uninitialized.h ****         {
  79:/usr/include/c++/7/bits/stl_uninitialized.h **** 	  _ForwardIterator __cur = __result;
  80:/usr/include/c++/7/bits/stl_uninitialized.h **** 	  __try
  81:/usr/include/c++/7/bits/stl_uninitialized.h **** 	    {
  82:/usr/include/c++/7/bits/stl_uninitialized.h **** 	      for (; __first != __last; ++__first, (void)++__cur)
  83:/usr/include/c++/7/bits/stl_uninitialized.h **** 		std::_Construct(std::__addressof(*__cur), *__first);
  84:/usr/include/c++/7/bits/stl_uninitialized.h **** 	      return __cur;
  85:/usr/include/c++/7/bits/stl_uninitialized.h **** 	    }
  86:/usr/include/c++/7/bits/stl_uninitialized.h **** 	  __catch(...)
  87:/usr/include/c++/7/bits/stl_uninitialized.h **** 	    {
  88:/usr/include/c++/7/bits/stl_uninitialized.h **** 	      std::_Destroy(__result, __cur);
  89:/usr/include/c++/7/bits/stl_uninitialized.h **** 	      __throw_exception_again;
  90:/usr/include/c++/7/bits/stl_uninitialized.h **** 	    }
  91:/usr/include/c++/7/bits/stl_uninitialized.h **** 	}
  92:/usr/include/c++/7/bits/stl_uninitialized.h ****     };
  93:/usr/include/c++/7/bits/stl_uninitialized.h **** 
  94:/usr/include/c++/7/bits/stl_uninitialized.h ****   template<>
  95:/usr/include/c++/7/bits/stl_uninitialized.h ****     struct __uninitialized_copy<true>
  96:/usr/include/c++/7/bits/stl_uninitialized.h ****     {
  97:/usr/include/c++/7/bits/stl_uninitialized.h ****       template<typename _InputIterator, typename _ForwardIterator>
  98:/usr/include/c++/7/bits/stl_uninitialized.h ****         static _ForwardIterator
  99:/usr/include/c++/7/bits/stl_uninitialized.h ****         __uninit_copy(_InputIterator __first, _InputIterator __last,
 100:/usr/include/c++/7/bits/stl_uninitialized.h **** 		      _ForwardIterator __result)
 101:/usr/include/c++/7/bits/stl_uninitialized.h ****         { return std::copy(__first, __last, __result); }
 102:/usr/include/c++/7/bits/stl_uninitialized.h ****     };
 103:/usr/include/c++/7/bits/stl_uninitialized.h **** 
 104:/usr/include/c++/7/bits/stl_uninitialized.h ****   /**
 105:/usr/include/c++/7/bits/stl_uninitialized.h ****    *  @brief Copies the range [first,last) into result.
 106:/usr/include/c++/7/bits/stl_uninitialized.h ****    *  @param  __first  An input iterator.
 107:/usr/include/c++/7/bits/stl_uninitialized.h ****    *  @param  __last   An input iterator.
 108:/usr/include/c++/7/bits/stl_uninitialized.h ****    *  @param  __result An output iterator.
 109:/usr/include/c++/7/bits/stl_uninitialized.h ****    *  @return   __result + (__first - __last)
 110:/usr/include/c++/7/bits/stl_uninitialized.h ****    *
 111:/usr/include/c++/7/bits/stl_uninitialized.h ****    *  Like copy(), but does not require an initialized output range.
 112:/usr/include/c++/7/bits/stl_uninitialized.h ****   */
 113:/usr/include/c++/7/bits/stl_uninitialized.h ****   template<typename _InputIterator, typename _ForwardIterator>
 114:/usr/include/c++/7/bits/stl_uninitialized.h ****     inline _ForwardIterator
 115:/usr/include/c++/7/bits/stl_uninitialized.h ****     uninitialized_copy(_InputIterator __first, _InputIterator __last,
 116:/usr/include/c++/7/bits/stl_uninitialized.h **** 		       _ForwardIterator __result)
 117:/usr/include/c++/7/bits/stl_uninitialized.h ****     {
 118:/usr/include/c++/7/bits/stl_uninitialized.h ****       typedef typename iterator_traits<_InputIterator>::value_type
 119:/usr/include/c++/7/bits/stl_uninitialized.h **** 	_ValueType1;
 120:/usr/include/c++/7/bits/stl_uninitialized.h ****       typedef typename iterator_traits<_ForwardIterator>::value_type
 121:/usr/include/c++/7/bits/stl_uninitialized.h **** 	_ValueType2;
 122:/usr/include/c++/7/bits/stl_uninitialized.h **** #if __cplusplus < 201103L
 123:/usr/include/c++/7/bits/stl_uninitialized.h ****       const bool __assignable = true;
 124:/usr/include/c++/7/bits/stl_uninitialized.h **** #else
 125:/usr/include/c++/7/bits/stl_uninitialized.h ****       // trivial types can have deleted assignment
 126:/usr/include/c++/7/bits/stl_uninitialized.h ****       typedef typename iterator_traits<_InputIterator>::reference _RefType1;
 127:/usr/include/c++/7/bits/stl_uninitialized.h ****       typedef typename iterator_traits<_ForwardIterator>::reference _RefType2;
 128:/usr/include/c++/7/bits/stl_uninitialized.h ****       const bool __assignable = is_assignable<_RefType2, _RefType1>::value;
 129:/usr/include/c++/7/bits/stl_uninitialized.h **** #endif
 130:/usr/include/c++/7/bits/stl_uninitialized.h **** 
 131:/usr/include/c++/7/bits/stl_uninitialized.h ****       return std::__uninitialized_copy<__is_trivial(_ValueType1)
 132:/usr/include/c++/7/bits/stl_uninitialized.h **** 				       && __is_trivial(_ValueType2)
 133:/usr/include/c++/7/bits/stl_uninitialized.h **** 				       && __assignable>::
 134:/usr/include/c++/7/bits/stl_uninitialized.h **** 	__uninit_copy(__first, __last, __result);
 135:/usr/include/c++/7/bits/stl_uninitialized.h ****     }
 136:/usr/include/c++/7/bits/stl_uninitialized.h **** 
 137:/usr/include/c++/7/bits/stl_uninitialized.h **** 
 138:/usr/include/c++/7/bits/stl_uninitialized.h ****   template<bool _TrivialValueType>
 139:/usr/include/c++/7/bits/stl_uninitialized.h ****     struct __uninitialized_fill
 140:/usr/include/c++/7/bits/stl_uninitialized.h ****     {
 141:/usr/include/c++/7/bits/stl_uninitialized.h ****       template<typename _ForwardIterator, typename _Tp>
 142:/usr/include/c++/7/bits/stl_uninitialized.h ****         static void
 143:/usr/include/c++/7/bits/stl_uninitialized.h ****         __uninit_fill(_ForwardIterator __first, _ForwardIterator __last,
 144:/usr/include/c++/7/bits/stl_uninitialized.h **** 		      const _Tp& __x)
 145:/usr/include/c++/7/bits/stl_uninitialized.h ****         {
 146:/usr/include/c++/7/bits/stl_uninitialized.h **** 	  _ForwardIterator __cur = __first;
 147:/usr/include/c++/7/bits/stl_uninitialized.h **** 	  __try
 148:/usr/include/c++/7/bits/stl_uninitialized.h **** 	    {
 149:/usr/include/c++/7/bits/stl_uninitialized.h **** 	      for (; __cur != __last; ++__cur)
 150:/usr/include/c++/7/bits/stl_uninitialized.h **** 		std::_Construct(std::__addressof(*__cur), __x);
 151:/usr/include/c++/7/bits/stl_uninitialized.h **** 	    }
 152:/usr/include/c++/7/bits/stl_uninitialized.h **** 	  __catch(...)
 153:/usr/include/c++/7/bits/stl_uninitialized.h **** 	    {
 154:/usr/include/c++/7/bits/stl_uninitialized.h **** 	      std::_Destroy(__first, __cur);
 155:/usr/include/c++/7/bits/stl_uninitialized.h **** 	      __throw_exception_again;
 156:/usr/include/c++/7/bits/stl_uninitialized.h **** 	    }
 157:/usr/include/c++/7/bits/stl_uninitialized.h **** 	}
 158:/usr/include/c++/7/bits/stl_uninitialized.h ****     };
 159:/usr/include/c++/7/bits/stl_uninitialized.h **** 
 160:/usr/include/c++/7/bits/stl_uninitialized.h ****   template<>
 161:/usr/include/c++/7/bits/stl_uninitialized.h ****     struct __uninitialized_fill<true>
 162:/usr/include/c++/7/bits/stl_uninitialized.h ****     {
 163:/usr/include/c++/7/bits/stl_uninitialized.h ****       template<typename _ForwardIterator, typename _Tp>
 164:/usr/include/c++/7/bits/stl_uninitialized.h ****         static void
 165:/usr/include/c++/7/bits/stl_uninitialized.h ****         __uninit_fill(_ForwardIterator __first, _ForwardIterator __last,
 166:/usr/include/c++/7/bits/stl_uninitialized.h **** 		      const _Tp& __x)
 167:/usr/include/c++/7/bits/stl_uninitialized.h ****         { std::fill(__first, __last, __x); }
 168:/usr/include/c++/7/bits/stl_uninitialized.h ****     };
 169:/usr/include/c++/7/bits/stl_uninitialized.h **** 
 170:/usr/include/c++/7/bits/stl_uninitialized.h ****   /**
 171:/usr/include/c++/7/bits/stl_uninitialized.h ****    *  @brief Copies the value x into the range [first,last).
 172:/usr/include/c++/7/bits/stl_uninitialized.h ****    *  @param  __first  An input iterator.
 173:/usr/include/c++/7/bits/stl_uninitialized.h ****    *  @param  __last   An input iterator.
 174:/usr/include/c++/7/bits/stl_uninitialized.h ****    *  @param  __x      The source value.
 175:/usr/include/c++/7/bits/stl_uninitialized.h ****    *  @return   Nothing.
 176:/usr/include/c++/7/bits/stl_uninitialized.h ****    *
 177:/usr/include/c++/7/bits/stl_uninitialized.h ****    *  Like fill(), but does not require an initialized output range.
 178:/usr/include/c++/7/bits/stl_uninitialized.h ****   */
 179:/usr/include/c++/7/bits/stl_uninitialized.h ****   template<typename _ForwardIterator, typename _Tp>
 180:/usr/include/c++/7/bits/stl_uninitialized.h ****     inline void
 181:/usr/include/c++/7/bits/stl_uninitialized.h ****     uninitialized_fill(_ForwardIterator __first, _ForwardIterator __last,
 182:/usr/include/c++/7/bits/stl_uninitialized.h **** 		       const _Tp& __x)
 183:/usr/include/c++/7/bits/stl_uninitialized.h ****     {
 184:/usr/include/c++/7/bits/stl_uninitialized.h ****       typedef typename iterator_traits<_ForwardIterator>::value_type
 185:/usr/include/c++/7/bits/stl_uninitialized.h **** 	_ValueType;
 186:/usr/include/c++/7/bits/stl_uninitialized.h **** #if __cplusplus < 201103L
 187:/usr/include/c++/7/bits/stl_uninitialized.h ****       const bool __assignable = true;
 188:/usr/include/c++/7/bits/stl_uninitialized.h **** #else
 189:/usr/include/c++/7/bits/stl_uninitialized.h ****       // trivial types can have deleted assignment
 190:/usr/include/c++/7/bits/stl_uninitialized.h ****       const bool __assignable = is_copy_assignable<_ValueType>::value;
 191:/usr/include/c++/7/bits/stl_uninitialized.h **** #endif
 192:/usr/include/c++/7/bits/stl_uninitialized.h **** 
 193:/usr/include/c++/7/bits/stl_uninitialized.h ****       std::__uninitialized_fill<__is_trivial(_ValueType) && __assignable>::
 194:/usr/include/c++/7/bits/stl_uninitialized.h **** 	__uninit_fill(__first, __last, __x);
 195:/usr/include/c++/7/bits/stl_uninitialized.h ****     }
 196:/usr/include/c++/7/bits/stl_uninitialized.h **** 
 197:/usr/include/c++/7/bits/stl_uninitialized.h **** 
 198:/usr/include/c++/7/bits/stl_uninitialized.h ****   template<bool _TrivialValueType>
 199:/usr/include/c++/7/bits/stl_uninitialized.h ****     struct __uninitialized_fill_n
 200:/usr/include/c++/7/bits/stl_uninitialized.h ****     {
 201:/usr/include/c++/7/bits/stl_uninitialized.h ****       template<typename _ForwardIterator, typename _Size, typename _Tp>
 202:/usr/include/c++/7/bits/stl_uninitialized.h ****         static _ForwardIterator
 203:/usr/include/c++/7/bits/stl_uninitialized.h ****         __uninit_fill_n(_ForwardIterator __first, _Size __n,
 204:/usr/include/c++/7/bits/stl_uninitialized.h **** 			const _Tp& __x)
 205:/usr/include/c++/7/bits/stl_uninitialized.h ****         {
 206:/usr/include/c++/7/bits/stl_uninitialized.h **** 	  _ForwardIterator __cur = __first;
 207:/usr/include/c++/7/bits/stl_uninitialized.h **** 	  __try
 208:/usr/include/c++/7/bits/stl_uninitialized.h **** 	    {
 209:/usr/include/c++/7/bits/stl_uninitialized.h **** 	      for (; __n > 0; --__n, ++__cur)
 210:/usr/include/c++/7/bits/stl_uninitialized.h **** 		std::_Construct(std::__addressof(*__cur), __x);
 211:/usr/include/c++/7/bits/stl_uninitialized.h **** 	      return __cur;
 212:/usr/include/c++/7/bits/stl_uninitialized.h **** 	    }
 213:/usr/include/c++/7/bits/stl_uninitialized.h **** 	  __catch(...)
 214:/usr/include/c++/7/bits/stl_uninitialized.h **** 	    {
 215:/usr/include/c++/7/bits/stl_uninitialized.h **** 	      std::_Destroy(__first, __cur);
 216:/usr/include/c++/7/bits/stl_uninitialized.h **** 	      __throw_exception_again;
 217:/usr/include/c++/7/bits/stl_uninitialized.h **** 	    }
 218:/usr/include/c++/7/bits/stl_uninitialized.h **** 	}
 219:/usr/include/c++/7/bits/stl_uninitialized.h ****     };
 220:/usr/include/c++/7/bits/stl_uninitialized.h **** 
 221:/usr/include/c++/7/bits/stl_uninitialized.h ****   template<>
 222:/usr/include/c++/7/bits/stl_uninitialized.h ****     struct __uninitialized_fill_n<true>
 223:/usr/include/c++/7/bits/stl_uninitialized.h ****     {
 224:/usr/include/c++/7/bits/stl_uninitialized.h ****       template<typename _ForwardIterator, typename _Size, typename _Tp>
 225:/usr/include/c++/7/bits/stl_uninitialized.h ****         static _ForwardIterator
 226:/usr/include/c++/7/bits/stl_uninitialized.h ****         __uninit_fill_n(_ForwardIterator __first, _Size __n,
 227:/usr/include/c++/7/bits/stl_uninitialized.h **** 			const _Tp& __x)
 228:/usr/include/c++/7/bits/stl_uninitialized.h ****         { return std::fill_n(__first, __n, __x); }
 229:/usr/include/c++/7/bits/stl_uninitialized.h ****     };
 230:/usr/include/c++/7/bits/stl_uninitialized.h **** 
 231:/usr/include/c++/7/bits/stl_uninitialized.h ****    // _GLIBCXX_RESOLVE_LIB_DEFECTS
 232:/usr/include/c++/7/bits/stl_uninitialized.h ****    // DR 1339. uninitialized_fill_n should return the end of its range
 233:/usr/include/c++/7/bits/stl_uninitialized.h ****   /**
 234:/usr/include/c++/7/bits/stl_uninitialized.h ****    *  @brief Copies the value x into the range [first,first+n).
 235:/usr/include/c++/7/bits/stl_uninitialized.h ****    *  @param  __first  An input iterator.
 236:/usr/include/c++/7/bits/stl_uninitialized.h ****    *  @param  __n      The number of copies to make.
 237:/usr/include/c++/7/bits/stl_uninitialized.h ****    *  @param  __x      The source value.
 238:/usr/include/c++/7/bits/stl_uninitialized.h ****    *  @return   Nothing.
 239:/usr/include/c++/7/bits/stl_uninitialized.h ****    *
 240:/usr/include/c++/7/bits/stl_uninitialized.h ****    *  Like fill_n(), but does not require an initialized output range.
 241:/usr/include/c++/7/bits/stl_uninitialized.h ****   */
 242:/usr/include/c++/7/bits/stl_uninitialized.h ****   template<typename _ForwardIterator, typename _Size, typename _Tp>
 243:/usr/include/c++/7/bits/stl_uninitialized.h ****     inline _ForwardIterator
 244:/usr/include/c++/7/bits/stl_uninitialized.h ****     uninitialized_fill_n(_ForwardIterator __first, _Size __n, const _Tp& __x)
 245:/usr/include/c++/7/bits/stl_uninitialized.h ****     {
 246:/usr/include/c++/7/bits/stl_uninitialized.h ****       typedef typename iterator_traits<_ForwardIterator>::value_type
 247:/usr/include/c++/7/bits/stl_uninitialized.h **** 	_ValueType;
 248:/usr/include/c++/7/bits/stl_uninitialized.h **** #if __cplusplus < 201103L
 249:/usr/include/c++/7/bits/stl_uninitialized.h ****       const bool __assignable = true;
 250:/usr/include/c++/7/bits/stl_uninitialized.h **** #else
 251:/usr/include/c++/7/bits/stl_uninitialized.h ****       // trivial types can have deleted assignment
 252:/usr/include/c++/7/bits/stl_uninitialized.h ****       const bool __assignable = is_copy_assignable<_ValueType>::value;
 253:/usr/include/c++/7/bits/stl_uninitialized.h **** #endif
 254:/usr/include/c++/7/bits/stl_uninitialized.h ****       return __uninitialized_fill_n<__is_trivial(_ValueType) && __assignable>::
 255:/usr/include/c++/7/bits/stl_uninitialized.h **** 	__uninit_fill_n(__first, __n, __x);
 256:/usr/include/c++/7/bits/stl_uninitialized.h ****     }
 257:/usr/include/c++/7/bits/stl_uninitialized.h **** 
 258:/usr/include/c++/7/bits/stl_uninitialized.h ****   // Extensions: versions of uninitialized_copy, uninitialized_fill,
 259:/usr/include/c++/7/bits/stl_uninitialized.h ****   //  and uninitialized_fill_n that take an allocator parameter.
 260:/usr/include/c++/7/bits/stl_uninitialized.h ****   //  We dispatch back to the standard versions when we're given the
 261:/usr/include/c++/7/bits/stl_uninitialized.h ****   //  default allocator.  For nondefault allocators we do not use 
 262:/usr/include/c++/7/bits/stl_uninitialized.h ****   //  any of the POD optimizations.
 263:/usr/include/c++/7/bits/stl_uninitialized.h **** 
 264:/usr/include/c++/7/bits/stl_uninitialized.h ****   template<typename _InputIterator, typename _ForwardIterator,
 265:/usr/include/c++/7/bits/stl_uninitialized.h **** 	   typename _Allocator>
 266:/usr/include/c++/7/bits/stl_uninitialized.h ****     _ForwardIterator
 267:/usr/include/c++/7/bits/stl_uninitialized.h ****     __uninitialized_copy_a(_InputIterator __first, _InputIterator __last,
 268:/usr/include/c++/7/bits/stl_uninitialized.h **** 			   _ForwardIterator __result, _Allocator& __alloc)
 269:/usr/include/c++/7/bits/stl_uninitialized.h ****     {
 270:/usr/include/c++/7/bits/stl_uninitialized.h ****       _ForwardIterator __cur = __result;
 271:/usr/include/c++/7/bits/stl_uninitialized.h ****       __try
 272:/usr/include/c++/7/bits/stl_uninitialized.h **** 	{
 273:/usr/include/c++/7/bits/stl_uninitialized.h **** 	  typedef __gnu_cxx::__alloc_traits<_Allocator> __traits;
 274:/usr/include/c++/7/bits/stl_uninitialized.h **** 	  for (; __first != __last; ++__first, (void)++__cur)
 275:/usr/include/c++/7/bits/stl_uninitialized.h **** 	    __traits::construct(__alloc, std::__addressof(*__cur), *__first);
 276:/usr/include/c++/7/bits/stl_uninitialized.h **** 	  return __cur;
 277:/usr/include/c++/7/bits/stl_uninitialized.h **** 	}
 278:/usr/include/c++/7/bits/stl_uninitialized.h ****       __catch(...)
 279:/usr/include/c++/7/bits/stl_uninitialized.h **** 	{
 280:/usr/include/c++/7/bits/stl_uninitialized.h **** 	  std::_Destroy(__result, __cur, __alloc);
 281:/usr/include/c++/7/bits/stl_uninitialized.h **** 	  __throw_exception_again;
 282:/usr/include/c++/7/bits/stl_uninitialized.h **** 	}
 283:/usr/include/c++/7/bits/stl_uninitialized.h ****     }
 284:/usr/include/c++/7/bits/stl_uninitialized.h **** 
 285:/usr/include/c++/7/bits/stl_uninitialized.h ****   template<typename _InputIterator, typename _ForwardIterator, typename _Tp>
 286:/usr/include/c++/7/bits/stl_uninitialized.h ****     inline _ForwardIterator
 287:/usr/include/c++/7/bits/stl_uninitialized.h ****     __uninitialized_copy_a(_InputIterator __first, _InputIterator __last,
 288:/usr/include/c++/7/bits/stl_uninitialized.h **** 			   _ForwardIterator __result, allocator<_Tp>&)
 289:/usr/include/c++/7/bits/stl_uninitialized.h ****     { return std::uninitialized_copy(__first, __last, __result); }
 290:/usr/include/c++/7/bits/stl_uninitialized.h **** 
 291:/usr/include/c++/7/bits/stl_uninitialized.h ****   template<typename _InputIterator, typename _ForwardIterator,
 292:/usr/include/c++/7/bits/stl_uninitialized.h **** 	   typename _Allocator>
 293:/usr/include/c++/7/bits/stl_uninitialized.h ****     inline _ForwardIterator
 294:/usr/include/c++/7/bits/stl_uninitialized.h ****     __uninitialized_move_a(_InputIterator __first, _InputIterator __last,
 295:/usr/include/c++/7/bits/stl_uninitialized.h **** 			   _ForwardIterator __result, _Allocator& __alloc)
 296:/usr/include/c++/7/bits/stl_uninitialized.h ****     {
 297:/usr/include/c++/7/bits/stl_uninitialized.h ****       return std::__uninitialized_copy_a(_GLIBCXX_MAKE_MOVE_ITERATOR(__first),
 298:/usr/include/c++/7/bits/stl_uninitialized.h **** 					 _GLIBCXX_MAKE_MOVE_ITERATOR(__last),
 299:/usr/include/c++/7/bits/stl_uninitialized.h **** 					 __result, __alloc);
 300:/usr/include/c++/7/bits/stl_uninitialized.h ****     }
 301:/usr/include/c++/7/bits/stl_uninitialized.h **** 
 302:/usr/include/c++/7/bits/stl_uninitialized.h ****   template<typename _InputIterator, typename _ForwardIterator,
 303:/usr/include/c++/7/bits/stl_uninitialized.h **** 	   typename _Allocator>
 304:/usr/include/c++/7/bits/stl_uninitialized.h ****     inline _ForwardIterator
 305:/usr/include/c++/7/bits/stl_uninitialized.h ****     __uninitialized_move_if_noexcept_a(_InputIterator __first,
 306:/usr/include/c++/7/bits/stl_uninitialized.h **** 				       _InputIterator __last,
 307:/usr/include/c++/7/bits/stl_uninitialized.h **** 				       _ForwardIterator __result,
 308:/usr/include/c++/7/bits/stl_uninitialized.h **** 				       _Allocator& __alloc)
 309:/usr/include/c++/7/bits/stl_uninitialized.h ****     {
 310:/usr/include/c++/7/bits/stl_uninitialized.h ****       return std::__uninitialized_copy_a
 311:/usr/include/c++/7/bits/stl_uninitialized.h **** 	(_GLIBCXX_MAKE_MOVE_IF_NOEXCEPT_ITERATOR(__first),
 312:/usr/include/c++/7/bits/stl_uninitialized.h **** 	 _GLIBCXX_MAKE_MOVE_IF_NOEXCEPT_ITERATOR(__last), __result, __alloc);
 313:/usr/include/c++/7/bits/stl_uninitialized.h ****     }
 314:/usr/include/c++/7/bits/stl_uninitialized.h **** 
 315:/usr/include/c++/7/bits/stl_uninitialized.h ****   template<typename _ForwardIterator, typename _Tp, typename _Allocator>
 316:/usr/include/c++/7/bits/stl_uninitialized.h ****     void
 317:/usr/include/c++/7/bits/stl_uninitialized.h ****     __uninitialized_fill_a(_ForwardIterator __first, _ForwardIterator __last,
 318:/usr/include/c++/7/bits/stl_uninitialized.h **** 			   const _Tp& __x, _Allocator& __alloc)
 319:/usr/include/c++/7/bits/stl_uninitialized.h ****     {
 320:/usr/include/c++/7/bits/stl_uninitialized.h ****       _ForwardIterator __cur = __first;
 321:/usr/include/c++/7/bits/stl_uninitialized.h ****       __try
 322:/usr/include/c++/7/bits/stl_uninitialized.h **** 	{
 323:/usr/include/c++/7/bits/stl_uninitialized.h **** 	  typedef __gnu_cxx::__alloc_traits<_Allocator> __traits;
 324:/usr/include/c++/7/bits/stl_uninitialized.h **** 	  for (; __cur != __last; ++__cur)
 325:/usr/include/c++/7/bits/stl_uninitialized.h **** 	    __traits::construct(__alloc, std::__addressof(*__cur), __x);
 326:/usr/include/c++/7/bits/stl_uninitialized.h **** 	}
 327:/usr/include/c++/7/bits/stl_uninitialized.h ****       __catch(...)
 328:/usr/include/c++/7/bits/stl_uninitialized.h **** 	{
 329:/usr/include/c++/7/bits/stl_uninitialized.h **** 	  std::_Destroy(__first, __cur, __alloc);
 330:/usr/include/c++/7/bits/stl_uninitialized.h **** 	  __throw_exception_again;
 331:/usr/include/c++/7/bits/stl_uninitialized.h **** 	}
 332:/usr/include/c++/7/bits/stl_uninitialized.h ****     }
 333:/usr/include/c++/7/bits/stl_uninitialized.h **** 
 334:/usr/include/c++/7/bits/stl_uninitialized.h ****   template<typename _ForwardIterator, typename _Tp, typename _Tp2>
 335:/usr/include/c++/7/bits/stl_uninitialized.h ****     inline void
 336:/usr/include/c++/7/bits/stl_uninitialized.h ****     __uninitialized_fill_a(_ForwardIterator __first, _ForwardIterator __last,
 337:/usr/include/c++/7/bits/stl_uninitialized.h **** 			   const _Tp& __x, allocator<_Tp2>&)
 338:/usr/include/c++/7/bits/stl_uninitialized.h ****     { std::uninitialized_fill(__first, __last, __x); }
 339:/usr/include/c++/7/bits/stl_uninitialized.h **** 
 340:/usr/include/c++/7/bits/stl_uninitialized.h ****   template<typename _ForwardIterator, typename _Size, typename _Tp,
 341:/usr/include/c++/7/bits/stl_uninitialized.h **** 	   typename _Allocator>
 342:/usr/include/c++/7/bits/stl_uninitialized.h ****     _ForwardIterator
 343:/usr/include/c++/7/bits/stl_uninitialized.h ****     __uninitialized_fill_n_a(_ForwardIterator __first, _Size __n, 
 344:/usr/include/c++/7/bits/stl_uninitialized.h **** 			     const _Tp& __x, _Allocator& __alloc)
 345:/usr/include/c++/7/bits/stl_uninitialized.h ****     {
 346:/usr/include/c++/7/bits/stl_uninitialized.h ****       _ForwardIterator __cur = __first;
 347:/usr/include/c++/7/bits/stl_uninitialized.h ****       __try
 348:/usr/include/c++/7/bits/stl_uninitialized.h **** 	{
 349:/usr/include/c++/7/bits/stl_uninitialized.h **** 	  typedef __gnu_cxx::__alloc_traits<_Allocator> __traits;
 350:/usr/include/c++/7/bits/stl_uninitialized.h **** 	  for (; __n > 0; --__n, ++__cur)
 351:/usr/include/c++/7/bits/stl_uninitialized.h **** 	    __traits::construct(__alloc, std::__addressof(*__cur), __x);
 352:/usr/include/c++/7/bits/stl_uninitialized.h **** 	  return __cur;
 353:/usr/include/c++/7/bits/stl_uninitialized.h **** 	}
 354:/usr/include/c++/7/bits/stl_uninitialized.h ****       __catch(...)
 355:/usr/include/c++/7/bits/stl_uninitialized.h **** 	{
 356:/usr/include/c++/7/bits/stl_uninitialized.h **** 	  std::_Destroy(__first, __cur, __alloc);
 357:/usr/include/c++/7/bits/stl_uninitialized.h **** 	  __throw_exception_again;
 358:/usr/include/c++/7/bits/stl_uninitialized.h **** 	}
 359:/usr/include/c++/7/bits/stl_uninitialized.h ****     }
 360:/usr/include/c++/7/bits/stl_uninitialized.h **** 
 361:/usr/include/c++/7/bits/stl_uninitialized.h ****   template<typename _ForwardIterator, typename _Size, typename _Tp,
 362:/usr/include/c++/7/bits/stl_uninitialized.h **** 	   typename _Tp2>
 363:/usr/include/c++/7/bits/stl_uninitialized.h ****     inline _ForwardIterator
 364:/usr/include/c++/7/bits/stl_uninitialized.h ****     __uninitialized_fill_n_a(_ForwardIterator __first, _Size __n, 
 365:/usr/include/c++/7/bits/stl_uninitialized.h **** 			     const _Tp& __x, allocator<_Tp2>&)
 366:/usr/include/c++/7/bits/stl_uninitialized.h ****     { return std::uninitialized_fill_n(__first, __n, __x); }
 367:/usr/include/c++/7/bits/stl_uninitialized.h **** 
 368:/usr/include/c++/7/bits/stl_uninitialized.h **** 
 369:/usr/include/c++/7/bits/stl_uninitialized.h ****   // Extensions: __uninitialized_copy_move, __uninitialized_move_copy,
 370:/usr/include/c++/7/bits/stl_uninitialized.h ****   // __uninitialized_fill_move, __uninitialized_move_fill.
 371:/usr/include/c++/7/bits/stl_uninitialized.h ****   // All of these algorithms take a user-supplied allocator, which is used
 372:/usr/include/c++/7/bits/stl_uninitialized.h ****   // for construction and destruction.
 373:/usr/include/c++/7/bits/stl_uninitialized.h **** 
 374:/usr/include/c++/7/bits/stl_uninitialized.h ****   // __uninitialized_copy_move
 375:/usr/include/c++/7/bits/stl_uninitialized.h ****   // Copies [first1, last1) into [result, result + (last1 - first1)), and
 376:/usr/include/c++/7/bits/stl_uninitialized.h ****   //  move [first2, last2) into
 377:/usr/include/c++/7/bits/stl_uninitialized.h ****   //  [result, result + (last1 - first1) + (last2 - first2)).
 378:/usr/include/c++/7/bits/stl_uninitialized.h ****   template<typename _InputIterator1, typename _InputIterator2,
 379:/usr/include/c++/7/bits/stl_uninitialized.h **** 	   typename _ForwardIterator, typename _Allocator>
 380:/usr/include/c++/7/bits/stl_uninitialized.h ****     inline _ForwardIterator
 381:/usr/include/c++/7/bits/stl_uninitialized.h ****     __uninitialized_copy_move(_InputIterator1 __first1,
 382:/usr/include/c++/7/bits/stl_uninitialized.h **** 			      _InputIterator1 __last1,
 383:/usr/include/c++/7/bits/stl_uninitialized.h **** 			      _InputIterator2 __first2,
 384:/usr/include/c++/7/bits/stl_uninitialized.h **** 			      _InputIterator2 __last2,
 385:/usr/include/c++/7/bits/stl_uninitialized.h **** 			      _ForwardIterator __result,
 386:/usr/include/c++/7/bits/stl_uninitialized.h **** 			      _Allocator& __alloc)
 387:/usr/include/c++/7/bits/stl_uninitialized.h ****     {
 388:/usr/include/c++/7/bits/stl_uninitialized.h ****       _ForwardIterator __mid = std::__uninitialized_copy_a(__first1, __last1,
 389:/usr/include/c++/7/bits/stl_uninitialized.h **** 							   __result,
 390:/usr/include/c++/7/bits/stl_uninitialized.h **** 							   __alloc);
 391:/usr/include/c++/7/bits/stl_uninitialized.h ****       __try
 392:/usr/include/c++/7/bits/stl_uninitialized.h **** 	{
 393:/usr/include/c++/7/bits/stl_uninitialized.h **** 	  return std::__uninitialized_move_a(__first2, __last2, __mid, __alloc);
 394:/usr/include/c++/7/bits/stl_uninitialized.h **** 	}
 395:/usr/include/c++/7/bits/stl_uninitialized.h ****       __catch(...)
 396:/usr/include/c++/7/bits/stl_uninitialized.h **** 	{
 397:/usr/include/c++/7/bits/stl_uninitialized.h **** 	  std::_Destroy(__result, __mid, __alloc);
 398:/usr/include/c++/7/bits/stl_uninitialized.h **** 	  __throw_exception_again;
 399:/usr/include/c++/7/bits/stl_uninitialized.h **** 	}
 400:/usr/include/c++/7/bits/stl_uninitialized.h ****     }
 401:/usr/include/c++/7/bits/stl_uninitialized.h **** 
 402:/usr/include/c++/7/bits/stl_uninitialized.h ****   // __uninitialized_move_copy
 403:/usr/include/c++/7/bits/stl_uninitialized.h ****   // Moves [first1, last1) into [result, result + (last1 - first1)), and
 404:/usr/include/c++/7/bits/stl_uninitialized.h ****   //  copies [first2, last2) into
 405:/usr/include/c++/7/bits/stl_uninitialized.h ****   //  [result, result + (last1 - first1) + (last2 - first2)).
 406:/usr/include/c++/7/bits/stl_uninitialized.h ****   template<typename _InputIterator1, typename _InputIterator2,
 407:/usr/include/c++/7/bits/stl_uninitialized.h **** 	   typename _ForwardIterator, typename _Allocator>
 408:/usr/include/c++/7/bits/stl_uninitialized.h ****     inline _ForwardIterator
 409:/usr/include/c++/7/bits/stl_uninitialized.h ****     __uninitialized_move_copy(_InputIterator1 __first1,
 410:/usr/include/c++/7/bits/stl_uninitialized.h **** 			      _InputIterator1 __last1,
 411:/usr/include/c++/7/bits/stl_uninitialized.h **** 			      _InputIterator2 __first2,
 412:/usr/include/c++/7/bits/stl_uninitialized.h **** 			      _InputIterator2 __last2,
 413:/usr/include/c++/7/bits/stl_uninitialized.h **** 			      _ForwardIterator __result,
 414:/usr/include/c++/7/bits/stl_uninitialized.h **** 			      _Allocator& __alloc)
 415:/usr/include/c++/7/bits/stl_uninitialized.h ****     {
 416:/usr/include/c++/7/bits/stl_uninitialized.h ****       _ForwardIterator __mid = std::__uninitialized_move_a(__first1, __last1,
 417:/usr/include/c++/7/bits/stl_uninitialized.h **** 							   __result,
 418:/usr/include/c++/7/bits/stl_uninitialized.h **** 							   __alloc);
 419:/usr/include/c++/7/bits/stl_uninitialized.h ****       __try
 420:/usr/include/c++/7/bits/stl_uninitialized.h **** 	{
 421:/usr/include/c++/7/bits/stl_uninitialized.h **** 	  return std::__uninitialized_copy_a(__first2, __last2, __mid, __alloc);
 422:/usr/include/c++/7/bits/stl_uninitialized.h **** 	}
 423:/usr/include/c++/7/bits/stl_uninitialized.h ****       __catch(...)
 424:/usr/include/c++/7/bits/stl_uninitialized.h **** 	{
 425:/usr/include/c++/7/bits/stl_uninitialized.h **** 	  std::_Destroy(__result, __mid, __alloc);
 426:/usr/include/c++/7/bits/stl_uninitialized.h **** 	  __throw_exception_again;
 427:/usr/include/c++/7/bits/stl_uninitialized.h **** 	}
 428:/usr/include/c++/7/bits/stl_uninitialized.h ****     }
 429:/usr/include/c++/7/bits/stl_uninitialized.h ****   
 430:/usr/include/c++/7/bits/stl_uninitialized.h ****   // __uninitialized_fill_move
 431:/usr/include/c++/7/bits/stl_uninitialized.h ****   // Fills [result, mid) with x, and moves [first, last) into
 432:/usr/include/c++/7/bits/stl_uninitialized.h ****   //  [mid, mid + (last - first)).
 433:/usr/include/c++/7/bits/stl_uninitialized.h ****   template<typename _ForwardIterator, typename _Tp, typename _InputIterator,
 434:/usr/include/c++/7/bits/stl_uninitialized.h **** 	   typename _Allocator>
 435:/usr/include/c++/7/bits/stl_uninitialized.h ****     inline _ForwardIterator
 436:/usr/include/c++/7/bits/stl_uninitialized.h ****     __uninitialized_fill_move(_ForwardIterator __result, _ForwardIterator __mid,
 437:/usr/include/c++/7/bits/stl_uninitialized.h **** 			      const _Tp& __x, _InputIterator __first,
 438:/usr/include/c++/7/bits/stl_uninitialized.h **** 			      _InputIterator __last, _Allocator& __alloc)
 439:/usr/include/c++/7/bits/stl_uninitialized.h ****     {
 440:/usr/include/c++/7/bits/stl_uninitialized.h ****       std::__uninitialized_fill_a(__result, __mid, __x, __alloc);
 441:/usr/include/c++/7/bits/stl_uninitialized.h ****       __try
 442:/usr/include/c++/7/bits/stl_uninitialized.h **** 	{
 443:/usr/include/c++/7/bits/stl_uninitialized.h **** 	  return std::__uninitialized_move_a(__first, __last, __mid, __alloc);
 444:/usr/include/c++/7/bits/stl_uninitialized.h **** 	}
 445:/usr/include/c++/7/bits/stl_uninitialized.h ****       __catch(...)
 446:/usr/include/c++/7/bits/stl_uninitialized.h **** 	{
 447:/usr/include/c++/7/bits/stl_uninitialized.h **** 	  std::_Destroy(__result, __mid, __alloc);
 448:/usr/include/c++/7/bits/stl_uninitialized.h **** 	  __throw_exception_again;
 449:/usr/include/c++/7/bits/stl_uninitialized.h **** 	}
 450:/usr/include/c++/7/bits/stl_uninitialized.h ****     }
 451:/usr/include/c++/7/bits/stl_uninitialized.h **** 
 452:/usr/include/c++/7/bits/stl_uninitialized.h ****   // __uninitialized_move_fill
 453:/usr/include/c++/7/bits/stl_uninitialized.h ****   // Moves [first1, last1) into [first2, first2 + (last1 - first1)), and
 454:/usr/include/c++/7/bits/stl_uninitialized.h ****   //  fills [first2 + (last1 - first1), last2) with x.
 455:/usr/include/c++/7/bits/stl_uninitialized.h ****   template<typename _InputIterator, typename _ForwardIterator, typename _Tp,
 456:/usr/include/c++/7/bits/stl_uninitialized.h **** 	   typename _Allocator>
 457:/usr/include/c++/7/bits/stl_uninitialized.h ****     inline void
 458:/usr/include/c++/7/bits/stl_uninitialized.h ****     __uninitialized_move_fill(_InputIterator __first1, _InputIterator __last1,
 459:/usr/include/c++/7/bits/stl_uninitialized.h **** 			      _ForwardIterator __first2,
 460:/usr/include/c++/7/bits/stl_uninitialized.h **** 			      _ForwardIterator __last2, const _Tp& __x,
 461:/usr/include/c++/7/bits/stl_uninitialized.h **** 			      _Allocator& __alloc)
 462:/usr/include/c++/7/bits/stl_uninitialized.h ****     {
 463:/usr/include/c++/7/bits/stl_uninitialized.h ****       _ForwardIterator __mid2 = std::__uninitialized_move_a(__first1, __last1,
 464:/usr/include/c++/7/bits/stl_uninitialized.h **** 							    __first2,
 465:/usr/include/c++/7/bits/stl_uninitialized.h **** 							    __alloc);
 466:/usr/include/c++/7/bits/stl_uninitialized.h ****       __try
 467:/usr/include/c++/7/bits/stl_uninitialized.h **** 	{
 468:/usr/include/c++/7/bits/stl_uninitialized.h **** 	  std::__uninitialized_fill_a(__mid2, __last2, __x, __alloc);
 469:/usr/include/c++/7/bits/stl_uninitialized.h **** 	}
 470:/usr/include/c++/7/bits/stl_uninitialized.h ****       __catch(...)
 471:/usr/include/c++/7/bits/stl_uninitialized.h **** 	{
 472:/usr/include/c++/7/bits/stl_uninitialized.h **** 	  std::_Destroy(__first2, __mid2, __alloc);
 473:/usr/include/c++/7/bits/stl_uninitialized.h **** 	  __throw_exception_again;
 474:/usr/include/c++/7/bits/stl_uninitialized.h **** 	}
 475:/usr/include/c++/7/bits/stl_uninitialized.h ****     }
 476:/usr/include/c++/7/bits/stl_uninitialized.h **** 
 477:/usr/include/c++/7/bits/stl_uninitialized.h **** #if __cplusplus >= 201103L
 478:/usr/include/c++/7/bits/stl_uninitialized.h ****   // Extensions: __uninitialized_default, __uninitialized_default_n,
 479:/usr/include/c++/7/bits/stl_uninitialized.h ****   // __uninitialized_default_a, __uninitialized_default_n_a.
 480:/usr/include/c++/7/bits/stl_uninitialized.h **** 
 481:/usr/include/c++/7/bits/stl_uninitialized.h ****   template<bool _TrivialValueType>
 482:/usr/include/c++/7/bits/stl_uninitialized.h ****     struct __uninitialized_default_1
 483:/usr/include/c++/7/bits/stl_uninitialized.h ****     {
 484:/usr/include/c++/7/bits/stl_uninitialized.h ****       template<typename _ForwardIterator>
 485:/usr/include/c++/7/bits/stl_uninitialized.h ****         static void
 486:/usr/include/c++/7/bits/stl_uninitialized.h ****         __uninit_default(_ForwardIterator __first, _ForwardIterator __last)
 487:/usr/include/c++/7/bits/stl_uninitialized.h ****         {
 488:/usr/include/c++/7/bits/stl_uninitialized.h **** 	  _ForwardIterator __cur = __first;
 489:/usr/include/c++/7/bits/stl_uninitialized.h **** 	  __try
 490:/usr/include/c++/7/bits/stl_uninitialized.h **** 	    {
 491:/usr/include/c++/7/bits/stl_uninitialized.h **** 	      for (; __cur != __last; ++__cur)
 492:/usr/include/c++/7/bits/stl_uninitialized.h **** 		std::_Construct(std::__addressof(*__cur));
 493:/usr/include/c++/7/bits/stl_uninitialized.h **** 	    }
 494:/usr/include/c++/7/bits/stl_uninitialized.h **** 	  __catch(...)
 495:/usr/include/c++/7/bits/stl_uninitialized.h **** 	    {
 496:/usr/include/c++/7/bits/stl_uninitialized.h **** 	      std::_Destroy(__first, __cur);
 497:/usr/include/c++/7/bits/stl_uninitialized.h **** 	      __throw_exception_again;
 498:/usr/include/c++/7/bits/stl_uninitialized.h **** 	    }
 499:/usr/include/c++/7/bits/stl_uninitialized.h **** 	}
 500:/usr/include/c++/7/bits/stl_uninitialized.h ****     };
 501:/usr/include/c++/7/bits/stl_uninitialized.h **** 
 502:/usr/include/c++/7/bits/stl_uninitialized.h ****   template<>
 503:/usr/include/c++/7/bits/stl_uninitialized.h ****     struct __uninitialized_default_1<true>
 504:/usr/include/c++/7/bits/stl_uninitialized.h ****     {
 505:/usr/include/c++/7/bits/stl_uninitialized.h ****       template<typename _ForwardIterator>
 506:/usr/include/c++/7/bits/stl_uninitialized.h ****         static void
 507:/usr/include/c++/7/bits/stl_uninitialized.h ****         __uninit_default(_ForwardIterator __first, _ForwardIterator __last)
 508:/usr/include/c++/7/bits/stl_uninitialized.h ****         {
 509:/usr/include/c++/7/bits/stl_uninitialized.h **** 	  typedef typename iterator_traits<_ForwardIterator>::value_type
 510:/usr/include/c++/7/bits/stl_uninitialized.h **** 	    _ValueType;
 511:/usr/include/c++/7/bits/stl_uninitialized.h **** 
 512:/usr/include/c++/7/bits/stl_uninitialized.h **** 	  std::fill(__first, __last, _ValueType());
 513:/usr/include/c++/7/bits/stl_uninitialized.h **** 	}
 514:/usr/include/c++/7/bits/stl_uninitialized.h ****     };
 515:/usr/include/c++/7/bits/stl_uninitialized.h **** 
 516:/usr/include/c++/7/bits/stl_uninitialized.h ****   template<bool _TrivialValueType>
 517:/usr/include/c++/7/bits/stl_uninitialized.h ****     struct __uninitialized_default_n_1
 518:/usr/include/c++/7/bits/stl_uninitialized.h ****     {
 519:/usr/include/c++/7/bits/stl_uninitialized.h ****       template<typename _ForwardIterator, typename _Size>
 520:/usr/include/c++/7/bits/stl_uninitialized.h ****         static _ForwardIterator
 521:/usr/include/c++/7/bits/stl_uninitialized.h ****         __uninit_default_n(_ForwardIterator __first, _Size __n)
 522:/usr/include/c++/7/bits/stl_uninitialized.h ****         {
 523:/usr/include/c++/7/bits/stl_uninitialized.h **** 	  _ForwardIterator __cur = __first;
 524:/usr/include/c++/7/bits/stl_uninitialized.h **** 	  __try
 525:/usr/include/c++/7/bits/stl_uninitialized.h **** 	    {
 526:/usr/include/c++/7/bits/stl_uninitialized.h **** 	      for (; __n > 0; --__n, ++__cur)
 527:/usr/include/c++/7/bits/stl_uninitialized.h **** 		std::_Construct(std::__addressof(*__cur));
 528:/usr/include/c++/7/bits/stl_uninitialized.h **** 	      return __cur;
 529:/usr/include/c++/7/bits/stl_uninitialized.h **** 	    }
 530:/usr/include/c++/7/bits/stl_uninitialized.h **** 	  __catch(...)
 531:/usr/include/c++/7/bits/stl_uninitialized.h **** 	    {
 532:/usr/include/c++/7/bits/stl_uninitialized.h **** 	      std::_Destroy(__first, __cur);
 533:/usr/include/c++/7/bits/stl_uninitialized.h **** 	      __throw_exception_again;
 534:/usr/include/c++/7/bits/stl_uninitialized.h **** 	    }
 535:/usr/include/c++/7/bits/stl_uninitialized.h **** 	}
 536:/usr/include/c++/7/bits/stl_uninitialized.h ****     };
 537:/usr/include/c++/7/bits/stl_uninitialized.h **** 
 538:/usr/include/c++/7/bits/stl_uninitialized.h ****   template<>
 539:/usr/include/c++/7/bits/stl_uninitialized.h ****     struct __uninitialized_default_n_1<true>
 540:/usr/include/c++/7/bits/stl_uninitialized.h ****     {
 541:/usr/include/c++/7/bits/stl_uninitialized.h ****       template<typename _ForwardIterator, typename _Size>
 542:/usr/include/c++/7/bits/stl_uninitialized.h ****         static _ForwardIterator
 543:/usr/include/c++/7/bits/stl_uninitialized.h ****         __uninit_default_n(_ForwardIterator __first, _Size __n)
 544:/usr/include/c++/7/bits/stl_uninitialized.h ****         {
 545:/usr/include/c++/7/bits/stl_uninitialized.h **** 	  typedef typename iterator_traits<_ForwardIterator>::value_type
 546:/usr/include/c++/7/bits/stl_uninitialized.h **** 	    _ValueType;
 547:/usr/include/c++/7/bits/stl_uninitialized.h **** 
 548:/usr/include/c++/7/bits/stl_uninitialized.h **** 	  return std::fill_n(__first, __n, _ValueType());
 549:/usr/include/c++/7/bits/stl_uninitialized.h **** 	}
 550:/usr/include/c++/7/bits/stl_uninitialized.h ****     };
 551:/usr/include/c++/7/bits/stl_uninitialized.h **** 
 552:/usr/include/c++/7/bits/stl_uninitialized.h ****   // __uninitialized_default
 553:/usr/include/c++/7/bits/stl_uninitialized.h ****   // Fills [first, last) with std::distance(first, last) default
 554:/usr/include/c++/7/bits/stl_uninitialized.h ****   // constructed value_types(s).
 555:/usr/include/c++/7/bits/stl_uninitialized.h ****   template<typename _ForwardIterator>
 556:/usr/include/c++/7/bits/stl_uninitialized.h ****     inline void
 557:/usr/include/c++/7/bits/stl_uninitialized.h ****     __uninitialized_default(_ForwardIterator __first,
 558:/usr/include/c++/7/bits/stl_uninitialized.h **** 			    _ForwardIterator __last)
 559:/usr/include/c++/7/bits/stl_uninitialized.h ****     {
 560:/usr/include/c++/7/bits/stl_uninitialized.h ****       typedef typename iterator_traits<_ForwardIterator>::value_type
 561:/usr/include/c++/7/bits/stl_uninitialized.h **** 	_ValueType;
 562:/usr/include/c++/7/bits/stl_uninitialized.h ****       // trivial types can have deleted assignment
 563:/usr/include/c++/7/bits/stl_uninitialized.h ****       const bool __assignable = is_copy_assignable<_ValueType>::value;
 564:/usr/include/c++/7/bits/stl_uninitialized.h **** 
 565:/usr/include/c++/7/bits/stl_uninitialized.h ****       std::__uninitialized_default_1<__is_trivial(_ValueType)
 566:/usr/include/c++/7/bits/stl_uninitialized.h **** 				     && __assignable>::
 567:/usr/include/c++/7/bits/stl_uninitialized.h **** 	__uninit_default(__first, __last);
 568:/usr/include/c++/7/bits/stl_uninitialized.h ****     }
 569:/usr/include/c++/7/bits/stl_uninitialized.h **** 
 570:/usr/include/c++/7/bits/stl_uninitialized.h ****   // __uninitialized_default_n
 571:/usr/include/c++/7/bits/stl_uninitialized.h ****   // Fills [first, first + n) with n default constructed value_type(s).
 572:/usr/include/c++/7/bits/stl_uninitialized.h ****   template<typename _ForwardIterator, typename _Size>
 573:/usr/include/c++/7/bits/stl_uninitialized.h ****     inline _ForwardIterator
 574:/usr/include/c++/7/bits/stl_uninitialized.h ****     __uninitialized_default_n(_ForwardIterator __first, _Size __n)
 575:/usr/include/c++/7/bits/stl_uninitialized.h ****     {
 576:/usr/include/c++/7/bits/stl_uninitialized.h ****       typedef typename iterator_traits<_ForwardIterator>::value_type
 577:/usr/include/c++/7/bits/stl_uninitialized.h **** 	_ValueType;
 578:/usr/include/c++/7/bits/stl_uninitialized.h ****       // trivial types can have deleted assignment
 579:/usr/include/c++/7/bits/stl_uninitialized.h ****       const bool __assignable = is_copy_assignable<_ValueType>::value;
 580:/usr/include/c++/7/bits/stl_uninitialized.h **** 
 581:/usr/include/c++/7/bits/stl_uninitialized.h ****       return __uninitialized_default_n_1<__is_trivial(_ValueType)
 582:/usr/include/c++/7/bits/stl_uninitialized.h **** 				       && __assignable>::
 583:/usr/include/c++/7/bits/stl_uninitialized.h **** 	__uninit_default_n(__first, __n);
 584:/usr/include/c++/7/bits/stl_uninitialized.h ****     }
 585:/usr/include/c++/7/bits/stl_uninitialized.h **** 
 586:/usr/include/c++/7/bits/stl_uninitialized.h **** 
 587:/usr/include/c++/7/bits/stl_uninitialized.h ****   // __uninitialized_default_a
 588:/usr/include/c++/7/bits/stl_uninitialized.h ****   // Fills [first, last) with std::distance(first, last) default
 589:/usr/include/c++/7/bits/stl_uninitialized.h ****   // constructed value_types(s), constructed with the allocator alloc.
 590:/usr/include/c++/7/bits/stl_uninitialized.h ****   template<typename _ForwardIterator, typename _Allocator>
 591:/usr/include/c++/7/bits/stl_uninitialized.h ****     void
 592:/usr/include/c++/7/bits/stl_uninitialized.h ****     __uninitialized_default_a(_ForwardIterator __first,
 593:/usr/include/c++/7/bits/stl_uninitialized.h **** 			      _ForwardIterator __last,
 594:/usr/include/c++/7/bits/stl_uninitialized.h **** 			      _Allocator& __alloc)
 595:/usr/include/c++/7/bits/stl_uninitialized.h ****     {
 596:/usr/include/c++/7/bits/stl_uninitialized.h ****       _ForwardIterator __cur = __first;
 597:/usr/include/c++/7/bits/stl_uninitialized.h ****       __try
 598:/usr/include/c++/7/bits/stl_uninitialized.h **** 	{
 599:/usr/include/c++/7/bits/stl_uninitialized.h **** 	  typedef __gnu_cxx::__alloc_traits<_Allocator> __traits;
 600:/usr/include/c++/7/bits/stl_uninitialized.h **** 	  for (; __cur != __last; ++__cur)
 601:/usr/include/c++/7/bits/stl_uninitialized.h **** 	    __traits::construct(__alloc, std::__addressof(*__cur));
 602:/usr/include/c++/7/bits/stl_uninitialized.h **** 	}
 603:/usr/include/c++/7/bits/stl_uninitialized.h ****       __catch(...)
 604:/usr/include/c++/7/bits/stl_uninitialized.h **** 	{
 605:/usr/include/c++/7/bits/stl_uninitialized.h **** 	  std::_Destroy(__first, __cur, __alloc);
 606:/usr/include/c++/7/bits/stl_uninitialized.h **** 	  __throw_exception_again;
 607:/usr/include/c++/7/bits/stl_uninitialized.h **** 	}
 608:/usr/include/c++/7/bits/stl_uninitialized.h ****     }
 609:/usr/include/c++/7/bits/stl_uninitialized.h **** 
 610:/usr/include/c++/7/bits/stl_uninitialized.h ****   template<typename _ForwardIterator, typename _Tp>
 611:/usr/include/c++/7/bits/stl_uninitialized.h ****     inline void
 612:/usr/include/c++/7/bits/stl_uninitialized.h ****     __uninitialized_default_a(_ForwardIterator __first,
 613:/usr/include/c++/7/bits/stl_uninitialized.h **** 			      _ForwardIterator __last,
 614:/usr/include/c++/7/bits/stl_uninitialized.h **** 			      allocator<_Tp>&)
 615:/usr/include/c++/7/bits/stl_uninitialized.h ****     { std::__uninitialized_default(__first, __last); }
 616:/usr/include/c++/7/bits/stl_uninitialized.h **** 
 617:/usr/include/c++/7/bits/stl_uninitialized.h **** 
 618:/usr/include/c++/7/bits/stl_uninitialized.h ****   // __uninitialized_default_n_a
 619:/usr/include/c++/7/bits/stl_uninitialized.h ****   // Fills [first, first + n) with n default constructed value_types(s),
 620:/usr/include/c++/7/bits/stl_uninitialized.h ****   // constructed with the allocator alloc.
 621:/usr/include/c++/7/bits/stl_uninitialized.h ****   template<typename _ForwardIterator, typename _Size, typename _Allocator>
 622:/usr/include/c++/7/bits/stl_uninitialized.h ****     _ForwardIterator
 623:/usr/include/c++/7/bits/stl_uninitialized.h ****     __uninitialized_default_n_a(_ForwardIterator __first, _Size __n, 
 624:/usr/include/c++/7/bits/stl_uninitialized.h **** 				_Allocator& __alloc)
 625:/usr/include/c++/7/bits/stl_uninitialized.h ****     {
 626:/usr/include/c++/7/bits/stl_uninitialized.h ****       _ForwardIterator __cur = __first;
 627:/usr/include/c++/7/bits/stl_uninitialized.h ****       __try
 628:/usr/include/c++/7/bits/stl_uninitialized.h **** 	{
 629:/usr/include/c++/7/bits/stl_uninitialized.h **** 	  typedef __gnu_cxx::__alloc_traits<_Allocator> __traits;
 630:/usr/include/c++/7/bits/stl_uninitialized.h **** 	  for (; __n > 0; --__n, ++__cur)
 631:/usr/include/c++/7/bits/stl_uninitialized.h **** 	    __traits::construct(__alloc, std::__addressof(*__cur));
 632:/usr/include/c++/7/bits/stl_uninitialized.h **** 	  return __cur;
 633:/usr/include/c++/7/bits/stl_uninitialized.h **** 	}
 634:/usr/include/c++/7/bits/stl_uninitialized.h ****       __catch(...)
 635:/usr/include/c++/7/bits/stl_uninitialized.h **** 	{
 636:/usr/include/c++/7/bits/stl_uninitialized.h **** 	  std::_Destroy(__first, __cur, __alloc);
 637:/usr/include/c++/7/bits/stl_uninitialized.h **** 	  __throw_exception_again;
 638:/usr/include/c++/7/bits/stl_uninitialized.h **** 	}
 639:/usr/include/c++/7/bits/stl_uninitialized.h ****     }
 640:/usr/include/c++/7/bits/stl_uninitialized.h **** 
 641:/usr/include/c++/7/bits/stl_uninitialized.h ****   template<typename _ForwardIterator, typename _Size, typename _Tp>
 642:/usr/include/c++/7/bits/stl_uninitialized.h ****     inline _ForwardIterator
 643:/usr/include/c++/7/bits/stl_uninitialized.h ****     __uninitialized_default_n_a(_ForwardIterator __first, _Size __n, 
 2399              		.loc 6 643 0
 2400              		.cfi_startproc
 2401 0000 55       		pushq	%rbp
 2402              		.cfi_def_cfa_offset 16
 2403              		.cfi_offset 6, -16
 2404 0001 4889E5   		movq	%rsp, %rbp
 2405              		.cfi_def_cfa_register 6
 2406 0004 4883EC20 		subq	$32, %rsp
 2407 0008 48897DF8 		movq	%rdi, -8(%rbp)
 2408 000c 488975F0 		movq	%rsi, -16(%rbp)
 2409 0010 488955E8 		movq	%rdx, -24(%rbp)
 644:/usr/include/c++/7/bits/stl_uninitialized.h **** 				allocator<_Tp>&)
 645:/usr/include/c++/7/bits/stl_uninitialized.h ****     { return std::__uninitialized_default_n(__first, __n); }
 2410              		.loc 6 645 0
 2411 0014 488B55F0 		movq	-16(%rbp), %rdx
 2412 0018 488B45F8 		movq	-8(%rbp), %rax
 2413 001c 4889D6   		movq	%rdx, %rsi
 2414 001f 4889C7   		movq	%rax, %rdi
 2415 0022 E8000000 		call	_ZSt25__uninitialized_default_nIPdmET_S1_T0_
 2415      00
 2416 0027 C9       		leave
 2417              		.cfi_def_cfa 7, 8
 2418 0028 C3       		ret
 2419              		.cfi_endproc
 2420              	.LFE2306:
 2422              		.section	.text._ZNKSt6vectorIdSaIdEE12_M_check_lenEmPKc,"axG",@progbits,_ZNKSt6vectorIdSaIdEE12_M_
 2423              		.align 2
 2424              		.weak	_ZNKSt6vectorIdSaIdEE12_M_check_lenEmPKc
 2426              	_ZNKSt6vectorIdSaIdEE12_M_check_lenEmPKc:
 2427              	.LFB2307:
1497:/usr/include/c++/7/bits/stl_vector.h ****       {
 2428              		.loc 2 1497 0
 2429              		.cfi_startproc
 2430 0000 55       		pushq	%rbp
 2431              		.cfi_def_cfa_offset 16
 2432              		.cfi_offset 6, -16
 2433 0001 4889E5   		movq	%rsp, %rbp
 2434              		.cfi_def_cfa_register 6
 2435 0004 53       		pushq	%rbx
 2436 0005 4883EC48 		subq	$72, %rsp
 2437              		.cfi_offset 3, -24
 2438 0009 48897DC8 		movq	%rdi, -56(%rbp)
 2439 000d 488975C0 		movq	%rsi, -64(%rbp)
 2440 0011 488955B8 		movq	%rdx, -72(%rbp)
1497:/usr/include/c++/7/bits/stl_vector.h ****       {
 2441              		.loc 2 1497 0
 2442 0015 64488B04 		movq	%fs:40, %rax
 2442      25280000 
 2442      00
 2443 001e 488945E8 		movq	%rax, -24(%rbp)
 2444 0022 31C0     		xorl	%eax, %eax
1499:/usr/include/c++/7/bits/stl_vector.h **** 	  __throw_length_error(__N(__s));
 2445              		.loc 2 1499 0
 2446 0024 488B45C8 		movq	-56(%rbp), %rax
 2447 0028 4889C7   		movq	%rax, %rdi
 2448 002b E8000000 		call	_ZNKSt6vectorIdSaIdEE8max_sizeEv
 2448      00
 2449 0030 4889C3   		movq	%rax, %rbx
 2450 0033 488B45C8 		movq	-56(%rbp), %rax
 2451 0037 4889C7   		movq	%rax, %rdi
 2452 003a E8000000 		call	_ZNKSt6vectorIdSaIdEE4sizeEv
 2452      00
 2453 003f 4829C3   		subq	%rax, %rbx
 2454 0042 4889DA   		movq	%rbx, %rdx
 2455 0045 488B45C0 		movq	-64(%rbp), %rax
 2456 0049 4839C2   		cmpq	%rax, %rdx
 2457 004c 0F92C0   		setb	%al
 2458 004f 84C0     		testb	%al, %al
 2459 0051 740C     		je	.L107
1500:/usr/include/c++/7/bits/stl_vector.h **** 
 2460              		.loc 2 1500 0
 2461 0053 488B45B8 		movq	-72(%rbp), %rax
 2462 0057 4889C7   		movq	%rax, %rdi
 2463 005a E8000000 		call	_ZSt20__throw_length_errorPKc@PLT
 2463      00
 2464              	.L107:
1502:/usr/include/c++/7/bits/stl_vector.h **** 	return (__len < size() || __len > max_size()) ? max_size() : __len;
 2465              		.loc 2 1502 0
 2466 005f 488B45C8 		movq	-56(%rbp), %rax
 2467 0063 4889C7   		movq	%rax, %rdi
 2468 0066 E8000000 		call	_ZNKSt6vectorIdSaIdEE4sizeEv
 2468      00
 2469 006b 4889C3   		movq	%rax, %rbx
 2470 006e 488B45C8 		movq	-56(%rbp), %rax
 2471 0072 4889C7   		movq	%rax, %rdi
 2472 0075 E8000000 		call	_ZNKSt6vectorIdSaIdEE4sizeEv
 2472      00
 2473 007a 488945D8 		movq	%rax, -40(%rbp)
 2474 007e 488D55C0 		leaq	-64(%rbp), %rdx
 2475 0082 488D45D8 		leaq	-40(%rbp), %rax
 2476 0086 4889D6   		movq	%rdx, %rsi
 2477 0089 4889C7   		movq	%rax, %rdi
 2478 008c E8000000 		call	_ZSt3maxImERKT_S2_S2_
 2478      00
 2479 0091 488B00   		movq	(%rax), %rax
 2480 0094 4801D8   		addq	%rbx, %rax
 2481 0097 488945E0 		movq	%rax, -32(%rbp)
1503:/usr/include/c++/7/bits/stl_vector.h ****       }
 2482              		.loc 2 1503 0
 2483 009b 488B45C8 		movq	-56(%rbp), %rax
 2484 009f 4889C7   		movq	%rax, %rdi
 2485 00a2 E8000000 		call	_ZNKSt6vectorIdSaIdEE4sizeEv
 2485      00
 2486 00a7 483945E0 		cmpq	%rax, -32(%rbp)
 2487 00ab 7212     		jb	.L108
1503:/usr/include/c++/7/bits/stl_vector.h ****       }
 2488              		.loc 2 1503 0 is_stmt 0 discriminator 2
 2489 00ad 488B45C8 		movq	-56(%rbp), %rax
 2490 00b1 4889C7   		movq	%rax, %rdi
 2491 00b4 E8000000 		call	_ZNKSt6vectorIdSaIdEE8max_sizeEv
 2491      00
 2492 00b9 483945E0 		cmpq	%rax, -32(%rbp)
 2493 00bd 760E     		jbe	.L109
 2494              	.L108:
1503:/usr/include/c++/7/bits/stl_vector.h ****       }
 2495              		.loc 2 1503 0 discriminator 3
 2496 00bf 488B45C8 		movq	-56(%rbp), %rax
 2497 00c3 4889C7   		movq	%rax, %rdi
 2498 00c6 E8000000 		call	_ZNKSt6vectorIdSaIdEE8max_sizeEv
 2498      00
 2499 00cb EB04     		jmp	.L110
 2500              	.L109:
1503:/usr/include/c++/7/bits/stl_vector.h ****       }
 2501              		.loc 2 1503 0 discriminator 4
 2502 00cd 488B45E0 		movq	-32(%rbp), %rax
 2503              	.L110:
1504:/usr/include/c++/7/bits/stl_vector.h **** 
 2504              		.loc 2 1504 0 is_stmt 1 discriminator 6
 2505 00d1 488B4DE8 		movq	-24(%rbp), %rcx
 2506 00d5 6448330C 		xorq	%fs:40, %rcx
 2506      25280000 
 2506      00
 2507 00de 7405     		je	.L112
1504:/usr/include/c++/7/bits/stl_vector.h **** 
 2508              		.loc 2 1504 0 is_stmt 0
 2509 00e0 E8000000 		call	__stack_chk_fail@PLT
 2509      00
 2510              	.L112:
 2511 00e5 4883C448 		addq	$72, %rsp
 2512 00e9 5B       		popq	%rbx
 2513 00ea 5D       		popq	%rbp
 2514              		.cfi_def_cfa 7, 8
 2515 00eb C3       		ret
 2516              		.cfi_endproc
 2517              	.LFE2307:
 2519              		.section	.text._ZNSt12_Vector_baseIdSaIdEE11_M_allocateEm,"axG",@progbits,_ZNSt12_Vector_baseIdSaI
 2520              		.align 2
 2521              		.weak	_ZNSt12_Vector_baseIdSaIdEE11_M_allocateEm
 2523              	_ZNSt12_Vector_baseIdSaIdEE11_M_allocateEm:
 2524              	.LFB2308:
 169:/usr/include/c++/7/bits/stl_vector.h ****       {
 2525              		.loc 2 169 0 is_stmt 1
 2526              		.cfi_startproc
 2527 0000 55       		pushq	%rbp
 2528              		.cfi_def_cfa_offset 16
 2529              		.cfi_offset 6, -16
 2530 0001 4889E5   		movq	%rsp, %rbp
 2531              		.cfi_def_cfa_register 6
 2532 0004 4883EC10 		subq	$16, %rsp
 2533 0008 48897DF8 		movq	%rdi, -8(%rbp)
 2534 000c 488975F0 		movq	%rsi, -16(%rbp)
 172:/usr/include/c++/7/bits/stl_vector.h ****       }
 2535              		.loc 2 172 0
 2536 0010 48837DF0 		cmpq	$0, -16(%rbp)
 2536      00
 2537 0015 7415     		je	.L114
 172:/usr/include/c++/7/bits/stl_vector.h ****       }
 2538              		.loc 2 172 0 is_stmt 0 discriminator 1
 2539 0017 488B45F8 		movq	-8(%rbp), %rax
 2540 001b 488B55F0 		movq	-16(%rbp), %rdx
 2541 001f 4889D6   		movq	%rdx, %rsi
 2542 0022 4889C7   		movq	%rax, %rdi
 2543 0025 E8000000 		call	_ZNSt16allocator_traitsISaIdEE8allocateERS0_m
 2543      00
 2544 002a EB05     		jmp	.L116
 2545              	.L114:
 172:/usr/include/c++/7/bits/stl_vector.h ****       }
 2546              		.loc 2 172 0 discriminator 2
 2547 002c B8000000 		movl	$0, %eax
 2547      00
 2548              	.L116:
 173:/usr/include/c++/7/bits/stl_vector.h **** 
 2549              		.loc 2 173 0 is_stmt 1 discriminator 5
 2550 0031 C9       		leave
 2551              		.cfi_def_cfa 7, 8
 2552 0032 C3       		ret
 2553              		.cfi_endproc
 2554              	.LFE2308:
 2556              		.section	.text._ZSt34__uninitialized_move_if_noexcept_aIPdS0_SaIdEET0_T_S3_S2_RT1_,"axG",@progbits
 2557              		.weak	_ZSt34__uninitialized_move_if_noexcept_aIPdS0_SaIdEET0_T_S3_S2_RT1_
 2559              	_ZSt34__uninitialized_move_if_noexcept_aIPdS0_SaIdEET0_T_S3_S2_RT1_:
 2560              	.LFB2309:
 305:/usr/include/c++/7/bits/stl_uninitialized.h **** 				       _InputIterator __last,
 2561              		.loc 6 305 0
 2562              		.cfi_startproc
 2563 0000 55       		pushq	%rbp
 2564              		.cfi_def_cfa_offset 16
 2565              		.cfi_offset 6, -16
 2566 0001 4889E5   		movq	%rsp, %rbp
 2567              		.cfi_def_cfa_register 6
 2568 0004 53       		pushq	%rbx
 2569 0005 4883EC28 		subq	$40, %rsp
 2570              		.cfi_offset 3, -24
 2571 0009 48897DE8 		movq	%rdi, -24(%rbp)
 2572 000d 488975E0 		movq	%rsi, -32(%rbp)
 2573 0011 488955D8 		movq	%rdx, -40(%rbp)
 2574 0015 48894DD0 		movq	%rcx, -48(%rbp)
 311:/usr/include/c++/7/bits/stl_uninitialized.h **** 	 _GLIBCXX_MAKE_MOVE_IF_NOEXCEPT_ITERATOR(__last), __result, __alloc);
 2575              		.loc 6 311 0
 2576 0019 488B45E0 		movq	-32(%rbp), %rax
 2577 001d 4889C7   		movq	%rax, %rdi
 2578 0020 E8000000 		call	_ZSt32__make_move_if_noexcept_iteratorIdSt13move_iteratorIPdEET0_PT_
 2578      00
 2579 0025 4889C3   		movq	%rax, %rbx
 2580 0028 488B45E8 		movq	-24(%rbp), %rax
 2581 002c 4889C7   		movq	%rax, %rdi
 2582 002f E8000000 		call	_ZSt32__make_move_if_noexcept_iteratorIdSt13move_iteratorIPdEET0_PT_
 2582      00
 2583 0034 4889C7   		movq	%rax, %rdi
 312:/usr/include/c++/7/bits/stl_uninitialized.h ****     }
 2584              		.loc 6 312 0
 2585 0037 488B55D0 		movq	-48(%rbp), %rdx
 2586 003b 488B45D8 		movq	-40(%rbp), %rax
 2587 003f 4889D1   		movq	%rdx, %rcx
 2588 0042 4889C2   		movq	%rax, %rdx
 2589 0045 4889DE   		movq	%rbx, %rsi
 2590 0048 E8000000 		call	_ZSt22__uninitialized_copy_aISt13move_iteratorIPdES1_dET0_T_S4_S3_RSaIT1_E
 2590      00
 313:/usr/include/c++/7/bits/stl_uninitialized.h **** 
 2591              		.loc 6 313 0
 2592 004d 4883C428 		addq	$40, %rsp
 2593 0051 5B       		popq	%rbx
 2594 0052 5D       		popq	%rbp
 2595              		.cfi_def_cfa 7, 8
 2596 0053 C3       		ret
 2597              		.cfi_endproc
 2598              	.LFE2309:
 2600              		.section	.text._ZNSaIdEC2Ev,"axG",@progbits,_ZNSaIdEC5Ev,comdat
 2601              		.align 2
 2602              		.weak	_ZNSaIdEC2Ev
 2604              	_ZNSaIdEC2Ev:
 2605              	.LFB2345:
 131:/usr/include/c++/7/bits/allocator.h **** 
 2606              		.loc 5 131 0
 2607              		.cfi_startproc
 2608 0000 55       		pushq	%rbp
 2609              		.cfi_def_cfa_offset 16
 2610              		.cfi_offset 6, -16
 2611 0001 4889E5   		movq	%rsp, %rbp
 2612              		.cfi_def_cfa_register 6
 2613 0004 4883EC10 		subq	$16, %rsp
 2614 0008 48897DF8 		movq	%rdi, -8(%rbp)
 2615              	.LBB38:
 131:/usr/include/c++/7/bits/allocator.h **** 
 2616              		.loc 5 131 0
 2617 000c 488B45F8 		movq	-8(%rbp), %rax
 2618 0010 4889C7   		movq	%rax, %rdi
 2619 0013 E8000000 		call	_ZN9__gnu_cxx13new_allocatorIdEC2Ev
 2619      00
 2620              	.LBE38:
 2621 0018 90       		nop
 2622 0019 C9       		leave
 2623              		.cfi_def_cfa 7, 8
 2624 001a C3       		ret
 2625              		.cfi_endproc
 2626              	.LFE2345:
 2628              		.weak	_ZNSaIdEC1Ev
 2629              		.set	_ZNSaIdEC1Ev,_ZNSaIdEC2Ev
 2630              		.section	.text._ZN9__gnu_cxx13new_allocatorIdED2Ev,"axG",@progbits,_ZN9__gnu_cxx13new_allocatorIdE
 2631              		.align 2
 2632              		.weak	_ZN9__gnu_cxx13new_allocatorIdED2Ev
 2634              	_ZN9__gnu_cxx13new_allocatorIdED2Ev:
 2635              	.LFB2348:
 2636              		.file 7 "/usr/include/c++/7/ext/new_allocator.h"
   1:/usr/include/c++/7/ext/new_allocator.h **** // Allocator that wraps operator new -*- C++ -*-
   2:/usr/include/c++/7/ext/new_allocator.h **** 
   3:/usr/include/c++/7/ext/new_allocator.h **** // Copyright (C) 2001-2017 Free Software Foundation, Inc.
   4:/usr/include/c++/7/ext/new_allocator.h **** //
   5:/usr/include/c++/7/ext/new_allocator.h **** // This file is part of the GNU ISO C++ Library.  This library is free
   6:/usr/include/c++/7/ext/new_allocator.h **** // software; you can redistribute it and/or modify it under the
   7:/usr/include/c++/7/ext/new_allocator.h **** // terms of the GNU General Public License as published by the
   8:/usr/include/c++/7/ext/new_allocator.h **** // Free Software Foundation; either version 3, or (at your option)
   9:/usr/include/c++/7/ext/new_allocator.h **** // any later version.
  10:/usr/include/c++/7/ext/new_allocator.h **** 
  11:/usr/include/c++/7/ext/new_allocator.h **** // This library is distributed in the hope that it will be useful,
  12:/usr/include/c++/7/ext/new_allocator.h **** // but WITHOUT ANY WARRANTY; without even the implied warranty of
  13:/usr/include/c++/7/ext/new_allocator.h **** // MERCHANTABILITY or FITNESS FOR A PARTICULAR PURPOSE.  See the
  14:/usr/include/c++/7/ext/new_allocator.h **** // GNU General Public License for more details.
  15:/usr/include/c++/7/ext/new_allocator.h **** 
  16:/usr/include/c++/7/ext/new_allocator.h **** // Under Section 7 of GPL version 3, you are granted additional
  17:/usr/include/c++/7/ext/new_allocator.h **** // permissions described in the GCC Runtime Library Exception, version
  18:/usr/include/c++/7/ext/new_allocator.h **** // 3.1, as published by the Free Software Foundation.
  19:/usr/include/c++/7/ext/new_allocator.h **** 
  20:/usr/include/c++/7/ext/new_allocator.h **** // You should have received a copy of the GNU General Public License and
  21:/usr/include/c++/7/ext/new_allocator.h **** // a copy of the GCC Runtime Library Exception along with this program;
  22:/usr/include/c++/7/ext/new_allocator.h **** // see the files COPYING3 and COPYING.RUNTIME respectively.  If not, see
  23:/usr/include/c++/7/ext/new_allocator.h **** // <http://www.gnu.org/licenses/>.
  24:/usr/include/c++/7/ext/new_allocator.h **** 
  25:/usr/include/c++/7/ext/new_allocator.h **** /** @file ext/new_allocator.h
  26:/usr/include/c++/7/ext/new_allocator.h ****  *  This file is a GNU extension to the Standard C++ Library.
  27:/usr/include/c++/7/ext/new_allocator.h ****  */
  28:/usr/include/c++/7/ext/new_allocator.h **** 
  29:/usr/include/c++/7/ext/new_allocator.h **** #ifndef _NEW_ALLOCATOR_H
  30:/usr/include/c++/7/ext/new_allocator.h **** #define _NEW_ALLOCATOR_H 1
  31:/usr/include/c++/7/ext/new_allocator.h **** 
  32:/usr/include/c++/7/ext/new_allocator.h **** #include <bits/c++config.h>
  33:/usr/include/c++/7/ext/new_allocator.h **** #include <new>
  34:/usr/include/c++/7/ext/new_allocator.h **** #include <bits/functexcept.h>
  35:/usr/include/c++/7/ext/new_allocator.h **** #include <bits/move.h>
  36:/usr/include/c++/7/ext/new_allocator.h **** #if __cplusplus >= 201103L
  37:/usr/include/c++/7/ext/new_allocator.h **** #include <type_traits>
  38:/usr/include/c++/7/ext/new_allocator.h **** #endif
  39:/usr/include/c++/7/ext/new_allocator.h **** 
  40:/usr/include/c++/7/ext/new_allocator.h **** namespace __gnu_cxx _GLIBCXX_VISIBILITY(default)
  41:/usr/include/c++/7/ext/new_allocator.h **** {
  42:/usr/include/c++/7/ext/new_allocator.h **** _GLIBCXX_BEGIN_NAMESPACE_VERSION
  43:/usr/include/c++/7/ext/new_allocator.h **** 
  44:/usr/include/c++/7/ext/new_allocator.h ****   using std::size_t;
  45:/usr/include/c++/7/ext/new_allocator.h ****   using std::ptrdiff_t;
  46:/usr/include/c++/7/ext/new_allocator.h **** 
  47:/usr/include/c++/7/ext/new_allocator.h ****   /**
  48:/usr/include/c++/7/ext/new_allocator.h ****    *  @brief  An allocator that uses global new, as per [20.4].
  49:/usr/include/c++/7/ext/new_allocator.h ****    *  @ingroup allocators
  50:/usr/include/c++/7/ext/new_allocator.h ****    *
  51:/usr/include/c++/7/ext/new_allocator.h ****    *  This is precisely the allocator defined in the C++ Standard.
  52:/usr/include/c++/7/ext/new_allocator.h ****    *    - all allocation calls operator new
  53:/usr/include/c++/7/ext/new_allocator.h ****    *    - all deallocation calls operator delete
  54:/usr/include/c++/7/ext/new_allocator.h ****    *
  55:/usr/include/c++/7/ext/new_allocator.h ****    *  @tparam  _Tp  Type of allocated object.
  56:/usr/include/c++/7/ext/new_allocator.h ****    */
  57:/usr/include/c++/7/ext/new_allocator.h ****   template<typename _Tp>
  58:/usr/include/c++/7/ext/new_allocator.h ****     class new_allocator
  59:/usr/include/c++/7/ext/new_allocator.h ****     {
  60:/usr/include/c++/7/ext/new_allocator.h ****     public:
  61:/usr/include/c++/7/ext/new_allocator.h ****       typedef size_t     size_type;
  62:/usr/include/c++/7/ext/new_allocator.h ****       typedef ptrdiff_t  difference_type;
  63:/usr/include/c++/7/ext/new_allocator.h ****       typedef _Tp*       pointer;
  64:/usr/include/c++/7/ext/new_allocator.h ****       typedef const _Tp* const_pointer;
  65:/usr/include/c++/7/ext/new_allocator.h ****       typedef _Tp&       reference;
  66:/usr/include/c++/7/ext/new_allocator.h ****       typedef const _Tp& const_reference;
  67:/usr/include/c++/7/ext/new_allocator.h ****       typedef _Tp        value_type;
  68:/usr/include/c++/7/ext/new_allocator.h **** 
  69:/usr/include/c++/7/ext/new_allocator.h ****       template<typename _Tp1>
  70:/usr/include/c++/7/ext/new_allocator.h **** 	struct rebind
  71:/usr/include/c++/7/ext/new_allocator.h **** 	{ typedef new_allocator<_Tp1> other; };
  72:/usr/include/c++/7/ext/new_allocator.h **** 
  73:/usr/include/c++/7/ext/new_allocator.h **** #if __cplusplus >= 201103L
  74:/usr/include/c++/7/ext/new_allocator.h ****       // _GLIBCXX_RESOLVE_LIB_DEFECTS
  75:/usr/include/c++/7/ext/new_allocator.h ****       // 2103. propagate_on_container_move_assignment
  76:/usr/include/c++/7/ext/new_allocator.h ****       typedef std::true_type propagate_on_container_move_assignment;
  77:/usr/include/c++/7/ext/new_allocator.h **** #endif
  78:/usr/include/c++/7/ext/new_allocator.h **** 
  79:/usr/include/c++/7/ext/new_allocator.h ****       new_allocator() _GLIBCXX_USE_NOEXCEPT { }
  80:/usr/include/c++/7/ext/new_allocator.h **** 
  81:/usr/include/c++/7/ext/new_allocator.h ****       new_allocator(const new_allocator&) _GLIBCXX_USE_NOEXCEPT { }
  82:/usr/include/c++/7/ext/new_allocator.h **** 
  83:/usr/include/c++/7/ext/new_allocator.h ****       template<typename _Tp1>
  84:/usr/include/c++/7/ext/new_allocator.h **** 	new_allocator(const new_allocator<_Tp1>&) _GLIBCXX_USE_NOEXCEPT { }
  85:/usr/include/c++/7/ext/new_allocator.h **** 
  86:/usr/include/c++/7/ext/new_allocator.h ****       ~new_allocator() _GLIBCXX_USE_NOEXCEPT { }
 2637              		.loc 7 86 0
 2638              		.cfi_startproc
 2639 0000 55       		pushq	%rbp
 2640              		.cfi_def_cfa_offset 16
 2641              		.cfi_offset 6, -16
 2642 0001 4889E5   		movq	%rsp, %rbp
 2643              		.cfi_def_cfa_register 6
 2644 0004 48897DF8 		movq	%rdi, -8(%rbp)
 2645              		.loc 7 86 0
 2646 0008 90       		nop
 2647 0009 5D       		popq	%rbp
 2648              		.cfi_def_cfa 7, 8
 2649 000a C3       		ret
 2650              		.cfi_endproc
 2651              	.LFE2348:
 2653              		.weak	_ZN9__gnu_cxx13new_allocatorIdED1Ev
 2654              		.set	_ZN9__gnu_cxx13new_allocatorIdED1Ev,_ZN9__gnu_cxx13new_allocatorIdED2Ev
 2655              		.section	.text._ZNSt16allocator_traitsISaIdEE10deallocateERS0_Pdm,"axG",@progbits,_ZNSt16allocator
 2656              		.weak	_ZNSt16allocator_traitsISaIdEE10deallocateERS0_Pdm
 2658              	_ZNSt16allocator_traitsISaIdEE10deallocateERS0_Pdm:
 2659              	.LFB2350:
 2660              		.file 8 "/usr/include/c++/7/bits/alloc_traits.h"
   1:/usr/include/c++/7/bits/alloc_traits.h **** // Allocator traits -*- C++ -*-
   2:/usr/include/c++/7/bits/alloc_traits.h **** 
   3:/usr/include/c++/7/bits/alloc_traits.h **** // Copyright (C) 2011-2017 Free Software Foundation, Inc.
   4:/usr/include/c++/7/bits/alloc_traits.h **** //
   5:/usr/include/c++/7/bits/alloc_traits.h **** // This file is part of the GNU ISO C++ Library.  This library is free
   6:/usr/include/c++/7/bits/alloc_traits.h **** // software; you can redistribute it and/or modify it under the
   7:/usr/include/c++/7/bits/alloc_traits.h **** // terms of the GNU General Public License as published by the
   8:/usr/include/c++/7/bits/alloc_traits.h **** // Free Software Foundation; either version 3, or (at your option)
   9:/usr/include/c++/7/bits/alloc_traits.h **** // any later version.
  10:/usr/include/c++/7/bits/alloc_traits.h **** 
  11:/usr/include/c++/7/bits/alloc_traits.h **** // This library is distributed in the hope that it will be useful,
  12:/usr/include/c++/7/bits/alloc_traits.h **** // but WITHOUT ANY WARRANTY; without even the implied warranty of
  13:/usr/include/c++/7/bits/alloc_traits.h **** // MERCHANTABILITY or FITNESS FOR A PARTICULAR PURPOSE.  See the
  14:/usr/include/c++/7/bits/alloc_traits.h **** // GNU General Public License for more details.
  15:/usr/include/c++/7/bits/alloc_traits.h **** 
  16:/usr/include/c++/7/bits/alloc_traits.h **** // Under Section 7 of GPL version 3, you are granted additional
  17:/usr/include/c++/7/bits/alloc_traits.h **** // permissions described in the GCC Runtime Library Exception, version
  18:/usr/include/c++/7/bits/alloc_traits.h **** // 3.1, as published by the Free Software Foundation.
  19:/usr/include/c++/7/bits/alloc_traits.h **** 
  20:/usr/include/c++/7/bits/alloc_traits.h **** // You should have received a copy of the GNU General Public License and
  21:/usr/include/c++/7/bits/alloc_traits.h **** // a copy of the GCC Runtime Library Exception along with this program;
  22:/usr/include/c++/7/bits/alloc_traits.h **** // see the files COPYING3 and COPYING.RUNTIME respectively.  If not, see
  23:/usr/include/c++/7/bits/alloc_traits.h **** // <http://www.gnu.org/licenses/>.
  24:/usr/include/c++/7/bits/alloc_traits.h **** 
  25:/usr/include/c++/7/bits/alloc_traits.h **** /** @file bits/alloc_traits.h
  26:/usr/include/c++/7/bits/alloc_traits.h ****  *  This is an internal header file, included by other library headers.
  27:/usr/include/c++/7/bits/alloc_traits.h ****  *  Do not attempt to use it directly. @headername{memory}
  28:/usr/include/c++/7/bits/alloc_traits.h ****  */
  29:/usr/include/c++/7/bits/alloc_traits.h **** 
  30:/usr/include/c++/7/bits/alloc_traits.h **** #ifndef _ALLOC_TRAITS_H
  31:/usr/include/c++/7/bits/alloc_traits.h **** #define _ALLOC_TRAITS_H 1
  32:/usr/include/c++/7/bits/alloc_traits.h **** 
  33:/usr/include/c++/7/bits/alloc_traits.h **** #if __cplusplus >= 201103L
  34:/usr/include/c++/7/bits/alloc_traits.h **** 
  35:/usr/include/c++/7/bits/alloc_traits.h **** #include <bits/memoryfwd.h>
  36:/usr/include/c++/7/bits/alloc_traits.h **** #include <bits/ptr_traits.h>
  37:/usr/include/c++/7/bits/alloc_traits.h **** #include <ext/numeric_traits.h>
  38:/usr/include/c++/7/bits/alloc_traits.h **** 
  39:/usr/include/c++/7/bits/alloc_traits.h **** #define __cpp_lib_allocator_traits_is_always_equal 201411
  40:/usr/include/c++/7/bits/alloc_traits.h **** 
  41:/usr/include/c++/7/bits/alloc_traits.h **** namespace std _GLIBCXX_VISIBILITY(default)
  42:/usr/include/c++/7/bits/alloc_traits.h **** {
  43:/usr/include/c++/7/bits/alloc_traits.h **** _GLIBCXX_BEGIN_NAMESPACE_VERSION
  44:/usr/include/c++/7/bits/alloc_traits.h **** 
  45:/usr/include/c++/7/bits/alloc_traits.h ****   struct __allocator_traits_base
  46:/usr/include/c++/7/bits/alloc_traits.h ****   {
  47:/usr/include/c++/7/bits/alloc_traits.h ****     template<typename _Tp, typename _Up, typename = void>
  48:/usr/include/c++/7/bits/alloc_traits.h ****       struct __rebind : __replace_first_arg<_Tp, _Up> { };
  49:/usr/include/c++/7/bits/alloc_traits.h **** 
  50:/usr/include/c++/7/bits/alloc_traits.h ****     template<typename _Tp, typename _Up>
  51:/usr/include/c++/7/bits/alloc_traits.h ****       struct __rebind<_Tp, _Up,
  52:/usr/include/c++/7/bits/alloc_traits.h **** 		      __void_t<typename _Tp::template rebind<_Up>::other>>
  53:/usr/include/c++/7/bits/alloc_traits.h ****       { using type = typename _Tp::template rebind<_Up>::other; };
  54:/usr/include/c++/7/bits/alloc_traits.h **** 
  55:/usr/include/c++/7/bits/alloc_traits.h ****   protected:
  56:/usr/include/c++/7/bits/alloc_traits.h ****     template<typename _Tp>
  57:/usr/include/c++/7/bits/alloc_traits.h ****       using __pointer = typename _Tp::pointer;
  58:/usr/include/c++/7/bits/alloc_traits.h ****     template<typename _Tp>
  59:/usr/include/c++/7/bits/alloc_traits.h ****       using __c_pointer = typename _Tp::const_pointer;
  60:/usr/include/c++/7/bits/alloc_traits.h ****     template<typename _Tp>
  61:/usr/include/c++/7/bits/alloc_traits.h ****       using __v_pointer = typename _Tp::void_pointer;
  62:/usr/include/c++/7/bits/alloc_traits.h ****     template<typename _Tp>
  63:/usr/include/c++/7/bits/alloc_traits.h ****       using __cv_pointer = typename _Tp::const_void_pointer;
  64:/usr/include/c++/7/bits/alloc_traits.h ****     template<typename _Tp>
  65:/usr/include/c++/7/bits/alloc_traits.h ****       using __pocca = typename _Tp::propagate_on_container_copy_assignment;
  66:/usr/include/c++/7/bits/alloc_traits.h ****     template<typename _Tp>
  67:/usr/include/c++/7/bits/alloc_traits.h ****       using __pocma = typename _Tp::propagate_on_container_move_assignment;
  68:/usr/include/c++/7/bits/alloc_traits.h ****     template<typename _Tp>
  69:/usr/include/c++/7/bits/alloc_traits.h ****       using __pocs = typename _Tp::propagate_on_container_swap;
  70:/usr/include/c++/7/bits/alloc_traits.h ****     template<typename _Tp>
  71:/usr/include/c++/7/bits/alloc_traits.h ****       using __equal = typename _Tp::is_always_equal;
  72:/usr/include/c++/7/bits/alloc_traits.h ****   };
  73:/usr/include/c++/7/bits/alloc_traits.h **** 
  74:/usr/include/c++/7/bits/alloc_traits.h ****   template<typename _Alloc, typename _Up>
  75:/usr/include/c++/7/bits/alloc_traits.h ****     using __alloc_rebind
  76:/usr/include/c++/7/bits/alloc_traits.h ****       = typename __allocator_traits_base::template __rebind<_Alloc, _Up>::type;
  77:/usr/include/c++/7/bits/alloc_traits.h **** 
  78:/usr/include/c++/7/bits/alloc_traits.h ****   /**
  79:/usr/include/c++/7/bits/alloc_traits.h ****    * @brief  Uniform interface to all allocator types.
  80:/usr/include/c++/7/bits/alloc_traits.h ****    * @ingroup allocators
  81:/usr/include/c++/7/bits/alloc_traits.h ****   */
  82:/usr/include/c++/7/bits/alloc_traits.h ****   template<typename _Alloc>
  83:/usr/include/c++/7/bits/alloc_traits.h ****     struct allocator_traits : __allocator_traits_base
  84:/usr/include/c++/7/bits/alloc_traits.h ****     {
  85:/usr/include/c++/7/bits/alloc_traits.h ****       /// The allocator type
  86:/usr/include/c++/7/bits/alloc_traits.h ****       typedef _Alloc allocator_type;
  87:/usr/include/c++/7/bits/alloc_traits.h ****       /// The allocated type
  88:/usr/include/c++/7/bits/alloc_traits.h ****       typedef typename _Alloc::value_type value_type;
  89:/usr/include/c++/7/bits/alloc_traits.h **** 
  90:/usr/include/c++/7/bits/alloc_traits.h ****       /**
  91:/usr/include/c++/7/bits/alloc_traits.h ****        * @brief   The allocator's pointer type.
  92:/usr/include/c++/7/bits/alloc_traits.h ****        *
  93:/usr/include/c++/7/bits/alloc_traits.h ****        * @c Alloc::pointer if that type exists, otherwise @c value_type*
  94:/usr/include/c++/7/bits/alloc_traits.h ****       */
  95:/usr/include/c++/7/bits/alloc_traits.h ****       using pointer = __detected_or_t<value_type*, __pointer, _Alloc>;
  96:/usr/include/c++/7/bits/alloc_traits.h **** 
  97:/usr/include/c++/7/bits/alloc_traits.h ****     private:
  98:/usr/include/c++/7/bits/alloc_traits.h ****       // Select _Func<_Alloc> or pointer_traits<pointer>::rebind<_Tp>
  99:/usr/include/c++/7/bits/alloc_traits.h ****       template<template<typename> class _Func, typename _Tp, typename = void>
 100:/usr/include/c++/7/bits/alloc_traits.h **** 	struct _Ptr
 101:/usr/include/c++/7/bits/alloc_traits.h **** 	{
 102:/usr/include/c++/7/bits/alloc_traits.h **** 	  using type = typename pointer_traits<pointer>::template rebind<_Tp>;
 103:/usr/include/c++/7/bits/alloc_traits.h **** 	};
 104:/usr/include/c++/7/bits/alloc_traits.h **** 
 105:/usr/include/c++/7/bits/alloc_traits.h ****       template<template<typename> class _Func, typename _Tp>
 106:/usr/include/c++/7/bits/alloc_traits.h **** 	struct _Ptr<_Func, _Tp, __void_t<_Func<_Alloc>>>
 107:/usr/include/c++/7/bits/alloc_traits.h **** 	{
 108:/usr/include/c++/7/bits/alloc_traits.h **** 	  using type = _Func<_Alloc>;
 109:/usr/include/c++/7/bits/alloc_traits.h **** 	};
 110:/usr/include/c++/7/bits/alloc_traits.h **** 
 111:/usr/include/c++/7/bits/alloc_traits.h ****       // Select _A2::difference_type or pointer_traits<_Ptr>::difference_type
 112:/usr/include/c++/7/bits/alloc_traits.h ****       template<typename _A2, typename _PtrT, typename = void>
 113:/usr/include/c++/7/bits/alloc_traits.h **** 	struct _Diff
 114:/usr/include/c++/7/bits/alloc_traits.h **** 	{ using type = typename pointer_traits<_PtrT>::difference_type; };
 115:/usr/include/c++/7/bits/alloc_traits.h **** 
 116:/usr/include/c++/7/bits/alloc_traits.h ****       template<typename _A2, typename _PtrT>
 117:/usr/include/c++/7/bits/alloc_traits.h **** 	struct _Diff<_A2, _PtrT, __void_t<typename _A2::difference_type>>
 118:/usr/include/c++/7/bits/alloc_traits.h **** 	{ using type = typename _A2::difference_type; };
 119:/usr/include/c++/7/bits/alloc_traits.h **** 
 120:/usr/include/c++/7/bits/alloc_traits.h ****       // Select _A2::size_type or make_unsigned<_DiffT>::type
 121:/usr/include/c++/7/bits/alloc_traits.h ****       template<typename _A2, typename _DiffT, typename = void>
 122:/usr/include/c++/7/bits/alloc_traits.h **** 	struct _Size : make_unsigned<_DiffT> { };
 123:/usr/include/c++/7/bits/alloc_traits.h **** 
 124:/usr/include/c++/7/bits/alloc_traits.h ****       template<typename _A2, typename _DiffT>
 125:/usr/include/c++/7/bits/alloc_traits.h **** 	struct _Size<_A2, _DiffT, __void_t<typename _A2::size_type>>
 126:/usr/include/c++/7/bits/alloc_traits.h **** 	{ using type = typename _A2::size_type; };
 127:/usr/include/c++/7/bits/alloc_traits.h **** 
 128:/usr/include/c++/7/bits/alloc_traits.h ****     public:
 129:/usr/include/c++/7/bits/alloc_traits.h ****       /**
 130:/usr/include/c++/7/bits/alloc_traits.h ****        * @brief   The allocator's const pointer type.
 131:/usr/include/c++/7/bits/alloc_traits.h ****        *
 132:/usr/include/c++/7/bits/alloc_traits.h ****        * @c Alloc::const_pointer if that type exists, otherwise
 133:/usr/include/c++/7/bits/alloc_traits.h ****        * <tt> pointer_traits<pointer>::rebind<const value_type> </tt>
 134:/usr/include/c++/7/bits/alloc_traits.h ****       */
 135:/usr/include/c++/7/bits/alloc_traits.h ****       using const_pointer = typename _Ptr<__c_pointer, const value_type>::type;
 136:/usr/include/c++/7/bits/alloc_traits.h **** 
 137:/usr/include/c++/7/bits/alloc_traits.h ****       /**
 138:/usr/include/c++/7/bits/alloc_traits.h ****        * @brief   The allocator's void pointer type.
 139:/usr/include/c++/7/bits/alloc_traits.h ****        *
 140:/usr/include/c++/7/bits/alloc_traits.h ****        * @c Alloc::void_pointer if that type exists, otherwise
 141:/usr/include/c++/7/bits/alloc_traits.h ****        * <tt> pointer_traits<pointer>::rebind<void> </tt>
 142:/usr/include/c++/7/bits/alloc_traits.h ****       */
 143:/usr/include/c++/7/bits/alloc_traits.h ****       using void_pointer = typename _Ptr<__v_pointer, void>::type;
 144:/usr/include/c++/7/bits/alloc_traits.h **** 
 145:/usr/include/c++/7/bits/alloc_traits.h ****       /**
 146:/usr/include/c++/7/bits/alloc_traits.h ****        * @brief   The allocator's const void pointer type.
 147:/usr/include/c++/7/bits/alloc_traits.h ****        *
 148:/usr/include/c++/7/bits/alloc_traits.h ****        * @c Alloc::const_void_pointer if that type exists, otherwise
 149:/usr/include/c++/7/bits/alloc_traits.h ****        * <tt> pointer_traits<pointer>::rebind<const void> </tt>
 150:/usr/include/c++/7/bits/alloc_traits.h ****       */
 151:/usr/include/c++/7/bits/alloc_traits.h ****       using const_void_pointer = typename _Ptr<__cv_pointer, const void>::type;
 152:/usr/include/c++/7/bits/alloc_traits.h **** 
 153:/usr/include/c++/7/bits/alloc_traits.h ****       /**
 154:/usr/include/c++/7/bits/alloc_traits.h ****        * @brief   The allocator's difference type
 155:/usr/include/c++/7/bits/alloc_traits.h ****        *
 156:/usr/include/c++/7/bits/alloc_traits.h ****        * @c Alloc::difference_type if that type exists, otherwise
 157:/usr/include/c++/7/bits/alloc_traits.h ****        * <tt> pointer_traits<pointer>::difference_type </tt>
 158:/usr/include/c++/7/bits/alloc_traits.h ****       */
 159:/usr/include/c++/7/bits/alloc_traits.h ****       using difference_type = typename _Diff<_Alloc, pointer>::type;
 160:/usr/include/c++/7/bits/alloc_traits.h **** 
 161:/usr/include/c++/7/bits/alloc_traits.h ****       /**
 162:/usr/include/c++/7/bits/alloc_traits.h ****        * @brief   The allocator's size type
 163:/usr/include/c++/7/bits/alloc_traits.h ****        *
 164:/usr/include/c++/7/bits/alloc_traits.h ****        * @c Alloc::size_type if that type exists, otherwise
 165:/usr/include/c++/7/bits/alloc_traits.h ****        * <tt> make_unsigned<difference_type>::type </tt>
 166:/usr/include/c++/7/bits/alloc_traits.h ****       */
 167:/usr/include/c++/7/bits/alloc_traits.h ****       using size_type = typename _Size<_Alloc, difference_type>::type;
 168:/usr/include/c++/7/bits/alloc_traits.h **** 
 169:/usr/include/c++/7/bits/alloc_traits.h ****       /**
 170:/usr/include/c++/7/bits/alloc_traits.h ****        * @brief   How the allocator is propagated on copy assignment
 171:/usr/include/c++/7/bits/alloc_traits.h ****        *
 172:/usr/include/c++/7/bits/alloc_traits.h ****        * @c Alloc::propagate_on_container_copy_assignment if that type exists,
 173:/usr/include/c++/7/bits/alloc_traits.h ****        * otherwise @c false_type
 174:/usr/include/c++/7/bits/alloc_traits.h ****       */
 175:/usr/include/c++/7/bits/alloc_traits.h ****       using propagate_on_container_copy_assignment
 176:/usr/include/c++/7/bits/alloc_traits.h **** 	= __detected_or_t<false_type, __pocca, _Alloc>;
 177:/usr/include/c++/7/bits/alloc_traits.h **** 
 178:/usr/include/c++/7/bits/alloc_traits.h ****       /**
 179:/usr/include/c++/7/bits/alloc_traits.h ****        * @brief   How the allocator is propagated on move assignment
 180:/usr/include/c++/7/bits/alloc_traits.h ****        *
 181:/usr/include/c++/7/bits/alloc_traits.h ****        * @c Alloc::propagate_on_container_move_assignment if that type exists,
 182:/usr/include/c++/7/bits/alloc_traits.h ****        * otherwise @c false_type
 183:/usr/include/c++/7/bits/alloc_traits.h ****       */
 184:/usr/include/c++/7/bits/alloc_traits.h ****       using propagate_on_container_move_assignment
 185:/usr/include/c++/7/bits/alloc_traits.h **** 	= __detected_or_t<false_type, __pocma, _Alloc>;
 186:/usr/include/c++/7/bits/alloc_traits.h **** 
 187:/usr/include/c++/7/bits/alloc_traits.h ****       /**
 188:/usr/include/c++/7/bits/alloc_traits.h ****        * @brief   How the allocator is propagated on swap
 189:/usr/include/c++/7/bits/alloc_traits.h ****        *
 190:/usr/include/c++/7/bits/alloc_traits.h ****        * @c Alloc::propagate_on_container_swap if that type exists,
 191:/usr/include/c++/7/bits/alloc_traits.h ****        * otherwise @c false_type
 192:/usr/include/c++/7/bits/alloc_traits.h ****       */
 193:/usr/include/c++/7/bits/alloc_traits.h ****       using propagate_on_container_swap
 194:/usr/include/c++/7/bits/alloc_traits.h **** 	= __detected_or_t<false_type, __pocs, _Alloc>;
 195:/usr/include/c++/7/bits/alloc_traits.h **** 
 196:/usr/include/c++/7/bits/alloc_traits.h ****       /**
 197:/usr/include/c++/7/bits/alloc_traits.h ****        * @brief   Whether all instances of the allocator type compare equal.
 198:/usr/include/c++/7/bits/alloc_traits.h ****        *
 199:/usr/include/c++/7/bits/alloc_traits.h ****        * @c Alloc::is_always_equal if that type exists,
 200:/usr/include/c++/7/bits/alloc_traits.h ****        * otherwise @c is_empty<Alloc>::type
 201:/usr/include/c++/7/bits/alloc_traits.h ****       */
 202:/usr/include/c++/7/bits/alloc_traits.h ****       using is_always_equal
 203:/usr/include/c++/7/bits/alloc_traits.h **** 	= __detected_or_t<typename is_empty<_Alloc>::type, __equal, _Alloc>;
 204:/usr/include/c++/7/bits/alloc_traits.h **** 
 205:/usr/include/c++/7/bits/alloc_traits.h ****       template<typename _Tp>
 206:/usr/include/c++/7/bits/alloc_traits.h **** 	using rebind_alloc = __alloc_rebind<_Alloc, _Tp>;
 207:/usr/include/c++/7/bits/alloc_traits.h ****       template<typename _Tp>
 208:/usr/include/c++/7/bits/alloc_traits.h **** 	using rebind_traits = allocator_traits<rebind_alloc<_Tp>>;
 209:/usr/include/c++/7/bits/alloc_traits.h **** 
 210:/usr/include/c++/7/bits/alloc_traits.h ****     private:
 211:/usr/include/c++/7/bits/alloc_traits.h ****       template<typename _Alloc2>
 212:/usr/include/c++/7/bits/alloc_traits.h **** 	static auto
 213:/usr/include/c++/7/bits/alloc_traits.h **** 	_S_allocate(_Alloc2& __a, size_type __n, const_void_pointer __hint, int)
 214:/usr/include/c++/7/bits/alloc_traits.h **** 	-> decltype(__a.allocate(__n, __hint))
 215:/usr/include/c++/7/bits/alloc_traits.h **** 	{ return __a.allocate(__n, __hint); }
 216:/usr/include/c++/7/bits/alloc_traits.h **** 
 217:/usr/include/c++/7/bits/alloc_traits.h ****       template<typename _Alloc2>
 218:/usr/include/c++/7/bits/alloc_traits.h **** 	static pointer
 219:/usr/include/c++/7/bits/alloc_traits.h **** 	_S_allocate(_Alloc2& __a, size_type __n, const_void_pointer, ...)
 220:/usr/include/c++/7/bits/alloc_traits.h **** 	{ return __a.allocate(__n); }
 221:/usr/include/c++/7/bits/alloc_traits.h **** 
 222:/usr/include/c++/7/bits/alloc_traits.h ****       template<typename _Tp, typename... _Args>
 223:/usr/include/c++/7/bits/alloc_traits.h **** 	struct __construct_helper
 224:/usr/include/c++/7/bits/alloc_traits.h **** 	{
 225:/usr/include/c++/7/bits/alloc_traits.h **** 	  template<typename _Alloc2,
 226:/usr/include/c++/7/bits/alloc_traits.h **** 	    typename = decltype(std::declval<_Alloc2*>()->construct(
 227:/usr/include/c++/7/bits/alloc_traits.h **** 		  std::declval<_Tp*>(), std::declval<_Args>()...))>
 228:/usr/include/c++/7/bits/alloc_traits.h **** 	    static true_type __test(int);
 229:/usr/include/c++/7/bits/alloc_traits.h **** 
 230:/usr/include/c++/7/bits/alloc_traits.h **** 	  template<typename>
 231:/usr/include/c++/7/bits/alloc_traits.h **** 	    static false_type __test(...);
 232:/usr/include/c++/7/bits/alloc_traits.h **** 
 233:/usr/include/c++/7/bits/alloc_traits.h **** 	  using type = decltype(__test<_Alloc>(0));
 234:/usr/include/c++/7/bits/alloc_traits.h **** 	};
 235:/usr/include/c++/7/bits/alloc_traits.h **** 
 236:/usr/include/c++/7/bits/alloc_traits.h ****       template<typename _Tp, typename... _Args>
 237:/usr/include/c++/7/bits/alloc_traits.h **** 	using __has_construct
 238:/usr/include/c++/7/bits/alloc_traits.h **** 	  = typename __construct_helper<_Tp, _Args...>::type;
 239:/usr/include/c++/7/bits/alloc_traits.h **** 
 240:/usr/include/c++/7/bits/alloc_traits.h ****       template<typename _Tp, typename... _Args>
 241:/usr/include/c++/7/bits/alloc_traits.h **** 	static _Require<__has_construct<_Tp, _Args...>>
 242:/usr/include/c++/7/bits/alloc_traits.h **** 	_S_construct(_Alloc& __a, _Tp* __p, _Args&&... __args)
 243:/usr/include/c++/7/bits/alloc_traits.h **** 	{ __a.construct(__p, std::forward<_Args>(__args)...); }
 244:/usr/include/c++/7/bits/alloc_traits.h **** 
 245:/usr/include/c++/7/bits/alloc_traits.h ****       template<typename _Tp, typename... _Args>
 246:/usr/include/c++/7/bits/alloc_traits.h **** 	static
 247:/usr/include/c++/7/bits/alloc_traits.h **** 	_Require<__and_<__not_<__has_construct<_Tp, _Args...>>,
 248:/usr/include/c++/7/bits/alloc_traits.h **** 			       is_constructible<_Tp, _Args...>>>
 249:/usr/include/c++/7/bits/alloc_traits.h **** 	_S_construct(_Alloc&, _Tp* __p, _Args&&... __args)
 250:/usr/include/c++/7/bits/alloc_traits.h **** 	{ ::new((void*)__p) _Tp(std::forward<_Args>(__args)...); }
 251:/usr/include/c++/7/bits/alloc_traits.h **** 
 252:/usr/include/c++/7/bits/alloc_traits.h ****       template<typename _Alloc2, typename _Tp>
 253:/usr/include/c++/7/bits/alloc_traits.h **** 	static auto
 254:/usr/include/c++/7/bits/alloc_traits.h **** 	_S_destroy(_Alloc2& __a, _Tp* __p, int)
 255:/usr/include/c++/7/bits/alloc_traits.h **** 	-> decltype(__a.destroy(__p))
 256:/usr/include/c++/7/bits/alloc_traits.h **** 	{ __a.destroy(__p); }
 257:/usr/include/c++/7/bits/alloc_traits.h **** 
 258:/usr/include/c++/7/bits/alloc_traits.h ****       template<typename _Alloc2, typename _Tp>
 259:/usr/include/c++/7/bits/alloc_traits.h **** 	static void
 260:/usr/include/c++/7/bits/alloc_traits.h **** 	_S_destroy(_Alloc2&, _Tp* __p, ...)
 261:/usr/include/c++/7/bits/alloc_traits.h **** 	{ __p->~_Tp(); }
 262:/usr/include/c++/7/bits/alloc_traits.h **** 
 263:/usr/include/c++/7/bits/alloc_traits.h ****       template<typename _Alloc2>
 264:/usr/include/c++/7/bits/alloc_traits.h **** 	static auto
 265:/usr/include/c++/7/bits/alloc_traits.h **** 	_S_max_size(_Alloc2& __a, int)
 266:/usr/include/c++/7/bits/alloc_traits.h **** 	-> decltype(__a.max_size())
 267:/usr/include/c++/7/bits/alloc_traits.h **** 	{ return __a.max_size(); }
 268:/usr/include/c++/7/bits/alloc_traits.h **** 
 269:/usr/include/c++/7/bits/alloc_traits.h ****       template<typename _Alloc2>
 270:/usr/include/c++/7/bits/alloc_traits.h **** 	static size_type
 271:/usr/include/c++/7/bits/alloc_traits.h **** 	_S_max_size(_Alloc2&, ...)
 272:/usr/include/c++/7/bits/alloc_traits.h **** 	{
 273:/usr/include/c++/7/bits/alloc_traits.h **** 	  // _GLIBCXX_RESOLVE_LIB_DEFECTS
 274:/usr/include/c++/7/bits/alloc_traits.h **** 	  // 2466. allocator_traits::max_size() default behavior is incorrect
 275:/usr/include/c++/7/bits/alloc_traits.h **** 	  return __gnu_cxx::__numeric_traits<size_type>::__max
 276:/usr/include/c++/7/bits/alloc_traits.h **** 	    / sizeof(value_type);
 277:/usr/include/c++/7/bits/alloc_traits.h **** 	}
 278:/usr/include/c++/7/bits/alloc_traits.h **** 
 279:/usr/include/c++/7/bits/alloc_traits.h ****       template<typename _Alloc2>
 280:/usr/include/c++/7/bits/alloc_traits.h **** 	static auto
 281:/usr/include/c++/7/bits/alloc_traits.h **** 	_S_select(_Alloc2& __a, int)
 282:/usr/include/c++/7/bits/alloc_traits.h **** 	-> decltype(__a.select_on_container_copy_construction())
 283:/usr/include/c++/7/bits/alloc_traits.h **** 	{ return __a.select_on_container_copy_construction(); }
 284:/usr/include/c++/7/bits/alloc_traits.h **** 
 285:/usr/include/c++/7/bits/alloc_traits.h ****       template<typename _Alloc2>
 286:/usr/include/c++/7/bits/alloc_traits.h **** 	static _Alloc2
 287:/usr/include/c++/7/bits/alloc_traits.h **** 	_S_select(_Alloc2& __a, ...)
 288:/usr/include/c++/7/bits/alloc_traits.h **** 	{ return __a; }
 289:/usr/include/c++/7/bits/alloc_traits.h **** 
 290:/usr/include/c++/7/bits/alloc_traits.h ****     public:
 291:/usr/include/c++/7/bits/alloc_traits.h **** 
 292:/usr/include/c++/7/bits/alloc_traits.h ****       /**
 293:/usr/include/c++/7/bits/alloc_traits.h ****        *  @brief  Allocate memory.
 294:/usr/include/c++/7/bits/alloc_traits.h ****        *  @param  __a  An allocator.
 295:/usr/include/c++/7/bits/alloc_traits.h ****        *  @param  __n  The number of objects to allocate space for.
 296:/usr/include/c++/7/bits/alloc_traits.h ****        *
 297:/usr/include/c++/7/bits/alloc_traits.h ****        *  Calls @c a.allocate(n)
 298:/usr/include/c++/7/bits/alloc_traits.h ****       */
 299:/usr/include/c++/7/bits/alloc_traits.h ****       static pointer
 300:/usr/include/c++/7/bits/alloc_traits.h ****       allocate(_Alloc& __a, size_type __n)
 301:/usr/include/c++/7/bits/alloc_traits.h ****       { return __a.allocate(__n); }
 302:/usr/include/c++/7/bits/alloc_traits.h **** 
 303:/usr/include/c++/7/bits/alloc_traits.h ****       /**
 304:/usr/include/c++/7/bits/alloc_traits.h ****        *  @brief  Allocate memory.
 305:/usr/include/c++/7/bits/alloc_traits.h ****        *  @param  __a  An allocator.
 306:/usr/include/c++/7/bits/alloc_traits.h ****        *  @param  __n  The number of objects to allocate space for.
 307:/usr/include/c++/7/bits/alloc_traits.h ****        *  @param  __hint Aid to locality.
 308:/usr/include/c++/7/bits/alloc_traits.h ****        *  @return Memory of suitable size and alignment for @a n objects
 309:/usr/include/c++/7/bits/alloc_traits.h ****        *          of type @c value_type
 310:/usr/include/c++/7/bits/alloc_traits.h ****        *
 311:/usr/include/c++/7/bits/alloc_traits.h ****        *  Returns <tt> a.allocate(n, hint) </tt> if that expression is
 312:/usr/include/c++/7/bits/alloc_traits.h ****        *  well-formed, otherwise returns @c a.allocate(n)
 313:/usr/include/c++/7/bits/alloc_traits.h ****       */
 314:/usr/include/c++/7/bits/alloc_traits.h ****       static pointer
 315:/usr/include/c++/7/bits/alloc_traits.h ****       allocate(_Alloc& __a, size_type __n, const_void_pointer __hint)
 316:/usr/include/c++/7/bits/alloc_traits.h ****       { return _S_allocate(__a, __n, __hint, 0); }
 317:/usr/include/c++/7/bits/alloc_traits.h **** 
 318:/usr/include/c++/7/bits/alloc_traits.h ****       /**
 319:/usr/include/c++/7/bits/alloc_traits.h ****        *  @brief  Deallocate memory.
 320:/usr/include/c++/7/bits/alloc_traits.h ****        *  @param  __a  An allocator.
 321:/usr/include/c++/7/bits/alloc_traits.h ****        *  @param  __p  Pointer to the memory to deallocate.
 322:/usr/include/c++/7/bits/alloc_traits.h ****        *  @param  __n  The number of objects space was allocated for.
 323:/usr/include/c++/7/bits/alloc_traits.h ****        *
 324:/usr/include/c++/7/bits/alloc_traits.h ****        *  Calls <tt> a.deallocate(p, n) </tt>
 325:/usr/include/c++/7/bits/alloc_traits.h ****       */
 326:/usr/include/c++/7/bits/alloc_traits.h ****       static void
 327:/usr/include/c++/7/bits/alloc_traits.h ****       deallocate(_Alloc& __a, pointer __p, size_type __n)
 328:/usr/include/c++/7/bits/alloc_traits.h ****       { __a.deallocate(__p, __n); }
 329:/usr/include/c++/7/bits/alloc_traits.h **** 
 330:/usr/include/c++/7/bits/alloc_traits.h ****       /**
 331:/usr/include/c++/7/bits/alloc_traits.h ****        *  @brief  Construct an object of type @a _Tp
 332:/usr/include/c++/7/bits/alloc_traits.h ****        *  @param  __a  An allocator.
 333:/usr/include/c++/7/bits/alloc_traits.h ****        *  @param  __p  Pointer to memory of suitable size and alignment for Tp
 334:/usr/include/c++/7/bits/alloc_traits.h ****        *  @param  __args Constructor arguments.
 335:/usr/include/c++/7/bits/alloc_traits.h ****        *
 336:/usr/include/c++/7/bits/alloc_traits.h ****        *  Calls <tt> __a.construct(__p, std::forward<Args>(__args)...) </tt>
 337:/usr/include/c++/7/bits/alloc_traits.h ****        *  if that expression is well-formed, otherwise uses placement-new
 338:/usr/include/c++/7/bits/alloc_traits.h ****        *  to construct an object of type @a _Tp at location @a __p from the
 339:/usr/include/c++/7/bits/alloc_traits.h ****        *  arguments @a __args...
 340:/usr/include/c++/7/bits/alloc_traits.h ****       */
 341:/usr/include/c++/7/bits/alloc_traits.h ****       template<typename _Tp, typename... _Args>
 342:/usr/include/c++/7/bits/alloc_traits.h **** 	static auto construct(_Alloc& __a, _Tp* __p, _Args&&... __args)
 343:/usr/include/c++/7/bits/alloc_traits.h **** 	-> decltype(_S_construct(__a, __p, std::forward<_Args>(__args)...))
 344:/usr/include/c++/7/bits/alloc_traits.h **** 	{ _S_construct(__a, __p, std::forward<_Args>(__args)...); }
 345:/usr/include/c++/7/bits/alloc_traits.h **** 
 346:/usr/include/c++/7/bits/alloc_traits.h ****       /**
 347:/usr/include/c++/7/bits/alloc_traits.h ****        *  @brief  Destroy an object of type @a _Tp
 348:/usr/include/c++/7/bits/alloc_traits.h ****        *  @param  __a  An allocator.
 349:/usr/include/c++/7/bits/alloc_traits.h ****        *  @param  __p  Pointer to the object to destroy
 350:/usr/include/c++/7/bits/alloc_traits.h ****        *
 351:/usr/include/c++/7/bits/alloc_traits.h ****        *  Calls @c __a.destroy(__p) if that expression is well-formed,
 352:/usr/include/c++/7/bits/alloc_traits.h ****        *  otherwise calls @c __p->~_Tp()
 353:/usr/include/c++/7/bits/alloc_traits.h ****       */
 354:/usr/include/c++/7/bits/alloc_traits.h ****       template<typename _Tp>
 355:/usr/include/c++/7/bits/alloc_traits.h **** 	static void destroy(_Alloc& __a, _Tp* __p)
 356:/usr/include/c++/7/bits/alloc_traits.h **** 	{ _S_destroy(__a, __p, 0); }
 357:/usr/include/c++/7/bits/alloc_traits.h **** 
 358:/usr/include/c++/7/bits/alloc_traits.h ****       /**
 359:/usr/include/c++/7/bits/alloc_traits.h ****        *  @brief  The maximum supported allocation size
 360:/usr/include/c++/7/bits/alloc_traits.h ****        *  @param  __a  An allocator.
 361:/usr/include/c++/7/bits/alloc_traits.h ****        *  @return @c __a.max_size() or @c numeric_limits<size_type>::max()
 362:/usr/include/c++/7/bits/alloc_traits.h ****        *
 363:/usr/include/c++/7/bits/alloc_traits.h ****        *  Returns @c __a.max_size() if that expression is well-formed,
 364:/usr/include/c++/7/bits/alloc_traits.h ****        *  otherwise returns @c numeric_limits<size_type>::max()
 365:/usr/include/c++/7/bits/alloc_traits.h ****       */
 366:/usr/include/c++/7/bits/alloc_traits.h ****       static size_type max_size(const _Alloc& __a) noexcept
 367:/usr/include/c++/7/bits/alloc_traits.h ****       { return _S_max_size(__a, 0); }
 368:/usr/include/c++/7/bits/alloc_traits.h **** 
 369:/usr/include/c++/7/bits/alloc_traits.h ****       /**
 370:/usr/include/c++/7/bits/alloc_traits.h ****        *  @brief  Obtain an allocator to use when copying a container.
 371:/usr/include/c++/7/bits/alloc_traits.h ****        *  @param  __rhs  An allocator.
 372:/usr/include/c++/7/bits/alloc_traits.h ****        *  @return @c __rhs.select_on_container_copy_construction() or @a __rhs
 373:/usr/include/c++/7/bits/alloc_traits.h ****        *
 374:/usr/include/c++/7/bits/alloc_traits.h ****        *  Returns @c __rhs.select_on_container_copy_construction() if that
 375:/usr/include/c++/7/bits/alloc_traits.h ****        *  expression is well-formed, otherwise returns @a __rhs
 376:/usr/include/c++/7/bits/alloc_traits.h ****       */
 377:/usr/include/c++/7/bits/alloc_traits.h ****       static _Alloc
 378:/usr/include/c++/7/bits/alloc_traits.h ****       select_on_container_copy_construction(const _Alloc& __rhs)
 379:/usr/include/c++/7/bits/alloc_traits.h ****       { return _S_select(__rhs, 0); }
 380:/usr/include/c++/7/bits/alloc_traits.h ****     };
 381:/usr/include/c++/7/bits/alloc_traits.h **** 
 382:/usr/include/c++/7/bits/alloc_traits.h ****   /// Partial specialization for std::allocator.
 383:/usr/include/c++/7/bits/alloc_traits.h ****   template<typename _Tp>
 384:/usr/include/c++/7/bits/alloc_traits.h ****     struct allocator_traits<allocator<_Tp>>
 385:/usr/include/c++/7/bits/alloc_traits.h ****     {
 386:/usr/include/c++/7/bits/alloc_traits.h ****       /// The allocator type
 387:/usr/include/c++/7/bits/alloc_traits.h ****       using allocator_type = allocator<_Tp>;
 388:/usr/include/c++/7/bits/alloc_traits.h ****       /// The allocated type
 389:/usr/include/c++/7/bits/alloc_traits.h ****       using value_type = _Tp;
 390:/usr/include/c++/7/bits/alloc_traits.h **** 
 391:/usr/include/c++/7/bits/alloc_traits.h ****       /// The allocator's pointer type.
 392:/usr/include/c++/7/bits/alloc_traits.h ****       using pointer = _Tp*;
 393:/usr/include/c++/7/bits/alloc_traits.h **** 
 394:/usr/include/c++/7/bits/alloc_traits.h ****       /// The allocator's const pointer type.
 395:/usr/include/c++/7/bits/alloc_traits.h ****       using const_pointer = const _Tp*;
 396:/usr/include/c++/7/bits/alloc_traits.h **** 
 397:/usr/include/c++/7/bits/alloc_traits.h ****       /// The allocator's void pointer type.
 398:/usr/include/c++/7/bits/alloc_traits.h ****       using void_pointer = void*;
 399:/usr/include/c++/7/bits/alloc_traits.h **** 
 400:/usr/include/c++/7/bits/alloc_traits.h ****       /// The allocator's const void pointer type.
 401:/usr/include/c++/7/bits/alloc_traits.h ****       using const_void_pointer = const void*;
 402:/usr/include/c++/7/bits/alloc_traits.h **** 
 403:/usr/include/c++/7/bits/alloc_traits.h ****       /// The allocator's difference type
 404:/usr/include/c++/7/bits/alloc_traits.h ****       using difference_type = std::ptrdiff_t;
 405:/usr/include/c++/7/bits/alloc_traits.h **** 
 406:/usr/include/c++/7/bits/alloc_traits.h ****       /// The allocator's size type
 407:/usr/include/c++/7/bits/alloc_traits.h ****       using size_type = std::size_t;
 408:/usr/include/c++/7/bits/alloc_traits.h **** 
 409:/usr/include/c++/7/bits/alloc_traits.h ****       /// How the allocator is propagated on copy assignment
 410:/usr/include/c++/7/bits/alloc_traits.h ****       using propagate_on_container_copy_assignment = false_type;
 411:/usr/include/c++/7/bits/alloc_traits.h **** 
 412:/usr/include/c++/7/bits/alloc_traits.h ****       /// How the allocator is propagated on move assignment
 413:/usr/include/c++/7/bits/alloc_traits.h ****       using propagate_on_container_move_assignment = true_type;
 414:/usr/include/c++/7/bits/alloc_traits.h **** 
 415:/usr/include/c++/7/bits/alloc_traits.h ****       /// How the allocator is propagated on swap
 416:/usr/include/c++/7/bits/alloc_traits.h ****       using propagate_on_container_swap = false_type;
 417:/usr/include/c++/7/bits/alloc_traits.h **** 
 418:/usr/include/c++/7/bits/alloc_traits.h ****       /// Whether all instances of the allocator type compare equal.
 419:/usr/include/c++/7/bits/alloc_traits.h ****       using is_always_equal = true_type;
 420:/usr/include/c++/7/bits/alloc_traits.h **** 
 421:/usr/include/c++/7/bits/alloc_traits.h ****       template<typename _Up>
 422:/usr/include/c++/7/bits/alloc_traits.h **** 	using rebind_alloc = allocator<_Up>;
 423:/usr/include/c++/7/bits/alloc_traits.h **** 
 424:/usr/include/c++/7/bits/alloc_traits.h ****       template<typename _Up>
 425:/usr/include/c++/7/bits/alloc_traits.h **** 	using rebind_traits = allocator_traits<allocator<_Up>>;
 426:/usr/include/c++/7/bits/alloc_traits.h **** 
 427:/usr/include/c++/7/bits/alloc_traits.h ****       /**
 428:/usr/include/c++/7/bits/alloc_traits.h ****        *  @brief  Allocate memory.
 429:/usr/include/c++/7/bits/alloc_traits.h ****        *  @param  __a  An allocator.
 430:/usr/include/c++/7/bits/alloc_traits.h ****        *  @param  __n  The number of objects to allocate space for.
 431:/usr/include/c++/7/bits/alloc_traits.h ****        *
 432:/usr/include/c++/7/bits/alloc_traits.h ****        *  Calls @c a.allocate(n)
 433:/usr/include/c++/7/bits/alloc_traits.h ****       */
 434:/usr/include/c++/7/bits/alloc_traits.h ****       static pointer
 435:/usr/include/c++/7/bits/alloc_traits.h ****       allocate(allocator_type& __a, size_type __n)
 436:/usr/include/c++/7/bits/alloc_traits.h ****       { return __a.allocate(__n); }
 437:/usr/include/c++/7/bits/alloc_traits.h **** 
 438:/usr/include/c++/7/bits/alloc_traits.h ****       /**
 439:/usr/include/c++/7/bits/alloc_traits.h ****        *  @brief  Allocate memory.
 440:/usr/include/c++/7/bits/alloc_traits.h ****        *  @param  __a  An allocator.
 441:/usr/include/c++/7/bits/alloc_traits.h ****        *  @param  __n  The number of objects to allocate space for.
 442:/usr/include/c++/7/bits/alloc_traits.h ****        *  @param  __hint Aid to locality.
 443:/usr/include/c++/7/bits/alloc_traits.h ****        *  @return Memory of suitable size and alignment for @a n objects
 444:/usr/include/c++/7/bits/alloc_traits.h ****        *          of type @c value_type
 445:/usr/include/c++/7/bits/alloc_traits.h ****        *
 446:/usr/include/c++/7/bits/alloc_traits.h ****        *  Returns <tt> a.allocate(n, hint) </tt>
 447:/usr/include/c++/7/bits/alloc_traits.h ****       */
 448:/usr/include/c++/7/bits/alloc_traits.h ****       static pointer
 449:/usr/include/c++/7/bits/alloc_traits.h ****       allocate(allocator_type& __a, size_type __n, const_void_pointer __hint)
 450:/usr/include/c++/7/bits/alloc_traits.h ****       { return __a.allocate(__n, __hint); }
 451:/usr/include/c++/7/bits/alloc_traits.h **** 
 452:/usr/include/c++/7/bits/alloc_traits.h ****       /**
 453:/usr/include/c++/7/bits/alloc_traits.h ****        *  @brief  Deallocate memory.
 454:/usr/include/c++/7/bits/alloc_traits.h ****        *  @param  __a  An allocator.
 455:/usr/include/c++/7/bits/alloc_traits.h ****        *  @param  __p  Pointer to the memory to deallocate.
 456:/usr/include/c++/7/bits/alloc_traits.h ****        *  @param  __n  The number of objects space was allocated for.
 457:/usr/include/c++/7/bits/alloc_traits.h ****        *
 458:/usr/include/c++/7/bits/alloc_traits.h ****        *  Calls <tt> a.deallocate(p, n) </tt>
 459:/usr/include/c++/7/bits/alloc_traits.h ****       */
 460:/usr/include/c++/7/bits/alloc_traits.h ****       static void
 461:/usr/include/c++/7/bits/alloc_traits.h ****       deallocate(allocator_type& __a, pointer __p, size_type __n)
 2661              		.loc 8 461 0
 2662              		.cfi_startproc
 2663 0000 55       		pushq	%rbp
 2664              		.cfi_def_cfa_offset 16
 2665              		.cfi_offset 6, -16
 2666 0001 4889E5   		movq	%rsp, %rbp
 2667              		.cfi_def_cfa_register 6
 2668 0004 4883EC20 		subq	$32, %rsp
 2669 0008 48897DF8 		movq	%rdi, -8(%rbp)
 2670 000c 488975F0 		movq	%rsi, -16(%rbp)
 2671 0010 488955E8 		movq	%rdx, -24(%rbp)
 462:/usr/include/c++/7/bits/alloc_traits.h ****       { __a.deallocate(__p, __n); }
 2672              		.loc 8 462 0
 2673 0014 488B55E8 		movq	-24(%rbp), %rdx
 2674 0018 488B4DF0 		movq	-16(%rbp), %rcx
 2675 001c 488B45F8 		movq	-8(%rbp), %rax
 2676 0020 4889CE   		movq	%rcx, %rsi
 2677 0023 4889C7   		movq	%rax, %rdi
 2678 0026 E8000000 		call	_ZN9__gnu_cxx13new_allocatorIdE10deallocateEPdm
 2678      00
 2679 002b 90       		nop
 2680 002c C9       		leave
 2681              		.cfi_def_cfa 7, 8
 2682 002d C3       		ret
 2683              		.cfi_endproc
 2684              	.LFE2350:
 2686              		.section	.text._ZNSt12_Destroy_auxILb1EE9__destroyIPdEEvT_S3_,"axG",@progbits,_ZNSt12_Destroy_auxI
 2687              		.weak	_ZNSt12_Destroy_auxILb1EE9__destroyIPdEEvT_S3_
 2689              	_ZNSt12_Destroy_auxILb1EE9__destroyIPdEEvT_S3_:
 2690              	.LFB2351:
 117:/usr/include/c++/7/bits/stl_construct.h ****     };
 2691              		.loc 3 117 0
 2692              		.cfi_startproc
 2693 0000 55       		pushq	%rbp
 2694              		.cfi_def_cfa_offset 16
 2695              		.cfi_offset 6, -16
 2696 0001 4889E5   		movq	%rsp, %rbp
 2697              		.cfi_def_cfa_register 6
 2698 0004 48897DF8 		movq	%rdi, -8(%rbp)
 2699 0008 488975F0 		movq	%rsi, -16(%rbp)
 117:/usr/include/c++/7/bits/stl_construct.h ****     };
 2700              		.loc 3 117 0
 2701 000c 90       		nop
 2702 000d 5D       		popq	%rbp
 2703              		.cfi_def_cfa 7, 8
 2704 000e C3       		ret
 2705              		.cfi_endproc
 2706              	.LFE2351:
 2708              		.section	.text._ZSt25__uninitialized_default_nIPdmET_S1_T0_,"axG",@progbits,_ZSt25__uninitialized_
 2709              		.weak	_ZSt25__uninitialized_default_nIPdmET_S1_T0_
 2711              	_ZSt25__uninitialized_default_nIPdmET_S1_T0_:
 2712              	.LFB2353:
 574:/usr/include/c++/7/bits/stl_uninitialized.h ****     {
 2713              		.loc 6 574 0
 2714              		.cfi_startproc
 2715 0000 55       		pushq	%rbp
 2716              		.cfi_def_cfa_offset 16
 2717              		.cfi_offset 6, -16
 2718 0001 4889E5   		movq	%rsp, %rbp
 2719              		.cfi_def_cfa_register 6
 2720 0004 4883EC20 		subq	$32, %rsp
 2721 0008 48897DE8 		movq	%rdi, -24(%rbp)
 2722 000c 488975E0 		movq	%rsi, -32(%rbp)
 579:/usr/include/c++/7/bits/stl_uninitialized.h **** 
 2723              		.loc 6 579 0
 2724 0010 C645FF01 		movb	$1, -1(%rbp)
 583:/usr/include/c++/7/bits/stl_uninitialized.h ****     }
 2725              		.loc 6 583 0
 2726 0014 488B55E0 		movq	-32(%rbp), %rdx
 2727 0018 488B45E8 		movq	-24(%rbp), %rax
 2728 001c 4889D6   		movq	%rdx, %rsi
 2729 001f 4889C7   		movq	%rax, %rdi
 2730 0022 E8000000 		call	_ZNSt27__uninitialized_default_n_1ILb1EE18__uninit_default_nIPdmEET_S3_T0_
 2730      00
 584:/usr/include/c++/7/bits/stl_uninitialized.h **** 
 2731              		.loc 6 584 0
 2732 0027 C9       		leave
 2733              		.cfi_def_cfa 7, 8
 2734 0028 C3       		ret
 2735              		.cfi_endproc
 2736              	.LFE2353:
 2738              		.section	.text._ZNKSt6vectorIdSaIdEE8max_sizeEv,"axG",@progbits,_ZNKSt6vectorIdSaIdEE8max_sizeEv,c
 2739              		.align 2
 2740              		.weak	_ZNKSt6vectorIdSaIdEE8max_sizeEv
 2742              	_ZNKSt6vectorIdSaIdEE8max_sizeEv:
 2743              	.LFB2354:
 675:/usr/include/c++/7/bits/stl_vector.h ****       { return _Alloc_traits::max_size(_M_get_Tp_allocator()); }
 2744              		.loc 2 675 0
 2745              		.cfi_startproc
 2746 0000 55       		pushq	%rbp
 2747              		.cfi_def_cfa_offset 16
 2748              		.cfi_offset 6, -16
 2749 0001 4889E5   		movq	%rsp, %rbp
 2750              		.cfi_def_cfa_register 6
 2751 0004 4883EC10 		subq	$16, %rsp
 2752 0008 48897DF8 		movq	%rdi, -8(%rbp)
 676:/usr/include/c++/7/bits/stl_vector.h **** 
 2753              		.loc 2 676 0
 2754 000c 488B45F8 		movq	-8(%rbp), %rax
 2755 0010 4889C7   		movq	%rax, %rdi
 2756 0013 E8000000 		call	_ZNKSt12_Vector_baseIdSaIdEE19_M_get_Tp_allocatorEv
 2756      00
 2757 0018 4889C7   		movq	%rax, %rdi
 2758 001b E8000000 		call	_ZNSt16allocator_traitsISaIdEE8max_sizeERKS0_
 2758      00
 2759 0020 C9       		leave
 2760              		.cfi_def_cfa 7, 8
 2761 0021 C3       		ret
 2762              		.cfi_endproc
 2763              	.LFE2354:
 2765              		.section	.text._ZSt3maxImERKT_S2_S2_,"axG",@progbits,_ZSt3maxImERKT_S2_S2_,comdat
 2766              		.weak	_ZSt3maxImERKT_S2_S2_
 2768              	_ZSt3maxImERKT_S2_S2_:
 2769              	.LFB2355:
 2770              		.file 9 "/usr/include/c++/7/bits/stl_algobase.h"
   1:/usr/include/c++/7/bits/stl_algobase.h **** // Core algorithmic facilities -*- C++ -*-
   2:/usr/include/c++/7/bits/stl_algobase.h **** 
   3:/usr/include/c++/7/bits/stl_algobase.h **** // Copyright (C) 2001-2017 Free Software Foundation, Inc.
   4:/usr/include/c++/7/bits/stl_algobase.h **** //
   5:/usr/include/c++/7/bits/stl_algobase.h **** // This file is part of the GNU ISO C++ Library.  This library is free
   6:/usr/include/c++/7/bits/stl_algobase.h **** // software; you can redistribute it and/or modify it under the
   7:/usr/include/c++/7/bits/stl_algobase.h **** // terms of the GNU General Public License as published by the
   8:/usr/include/c++/7/bits/stl_algobase.h **** // Free Software Foundation; either version 3, or (at your option)
   9:/usr/include/c++/7/bits/stl_algobase.h **** // any later version.
  10:/usr/include/c++/7/bits/stl_algobase.h **** 
  11:/usr/include/c++/7/bits/stl_algobase.h **** // This library is distributed in the hope that it will be useful,
  12:/usr/include/c++/7/bits/stl_algobase.h **** // but WITHOUT ANY WARRANTY; without even the implied warranty of
  13:/usr/include/c++/7/bits/stl_algobase.h **** // MERCHANTABILITY or FITNESS FOR A PARTICULAR PURPOSE.  See the
  14:/usr/include/c++/7/bits/stl_algobase.h **** // GNU General Public License for more details.
  15:/usr/include/c++/7/bits/stl_algobase.h **** 
  16:/usr/include/c++/7/bits/stl_algobase.h **** // Under Section 7 of GPL version 3, you are granted additional
  17:/usr/include/c++/7/bits/stl_algobase.h **** // permissions described in the GCC Runtime Library Exception, version
  18:/usr/include/c++/7/bits/stl_algobase.h **** // 3.1, as published by the Free Software Foundation.
  19:/usr/include/c++/7/bits/stl_algobase.h **** 
  20:/usr/include/c++/7/bits/stl_algobase.h **** // You should have received a copy of the GNU General Public License and
  21:/usr/include/c++/7/bits/stl_algobase.h **** // a copy of the GCC Runtime Library Exception along with this program;
  22:/usr/include/c++/7/bits/stl_algobase.h **** // see the files COPYING3 and COPYING.RUNTIME respectively.  If not, see
  23:/usr/include/c++/7/bits/stl_algobase.h **** // <http://www.gnu.org/licenses/>.
  24:/usr/include/c++/7/bits/stl_algobase.h **** 
  25:/usr/include/c++/7/bits/stl_algobase.h **** /*
  26:/usr/include/c++/7/bits/stl_algobase.h ****  *
  27:/usr/include/c++/7/bits/stl_algobase.h ****  * Copyright (c) 1994
  28:/usr/include/c++/7/bits/stl_algobase.h ****  * Hewlett-Packard Company
  29:/usr/include/c++/7/bits/stl_algobase.h ****  *
  30:/usr/include/c++/7/bits/stl_algobase.h ****  * Permission to use, copy, modify, distribute and sell this software
  31:/usr/include/c++/7/bits/stl_algobase.h ****  * and its documentation for any purpose is hereby granted without fee,
  32:/usr/include/c++/7/bits/stl_algobase.h ****  * provided that the above copyright notice appear in all copies and
  33:/usr/include/c++/7/bits/stl_algobase.h ****  * that both that copyright notice and this permission notice appear
  34:/usr/include/c++/7/bits/stl_algobase.h ****  * in supporting documentation.  Hewlett-Packard Company makes no
  35:/usr/include/c++/7/bits/stl_algobase.h ****  * representations about the suitability of this software for any
  36:/usr/include/c++/7/bits/stl_algobase.h ****  * purpose.  It is provided "as is" without express or implied warranty.
  37:/usr/include/c++/7/bits/stl_algobase.h ****  *
  38:/usr/include/c++/7/bits/stl_algobase.h ****  *
  39:/usr/include/c++/7/bits/stl_algobase.h ****  * Copyright (c) 1996-1998
  40:/usr/include/c++/7/bits/stl_algobase.h ****  * Silicon Graphics Computer Systems, Inc.
  41:/usr/include/c++/7/bits/stl_algobase.h ****  *
  42:/usr/include/c++/7/bits/stl_algobase.h ****  * Permission to use, copy, modify, distribute and sell this software
  43:/usr/include/c++/7/bits/stl_algobase.h ****  * and its documentation for any purpose is hereby granted without fee,
  44:/usr/include/c++/7/bits/stl_algobase.h ****  * provided that the above copyright notice appear in all copies and
  45:/usr/include/c++/7/bits/stl_algobase.h ****  * that both that copyright notice and this permission notice appear
  46:/usr/include/c++/7/bits/stl_algobase.h ****  * in supporting documentation.  Silicon Graphics makes no
  47:/usr/include/c++/7/bits/stl_algobase.h ****  * representations about the suitability of this software for any
  48:/usr/include/c++/7/bits/stl_algobase.h ****  * purpose.  It is provided "as is" without express or implied warranty.
  49:/usr/include/c++/7/bits/stl_algobase.h ****  */
  50:/usr/include/c++/7/bits/stl_algobase.h **** 
  51:/usr/include/c++/7/bits/stl_algobase.h **** /** @file bits/stl_algobase.h
  52:/usr/include/c++/7/bits/stl_algobase.h ****  *  This is an internal header file, included by other library headers.
  53:/usr/include/c++/7/bits/stl_algobase.h ****  *  Do not attempt to use it directly. @headername{algorithm}
  54:/usr/include/c++/7/bits/stl_algobase.h ****  */
  55:/usr/include/c++/7/bits/stl_algobase.h **** 
  56:/usr/include/c++/7/bits/stl_algobase.h **** #ifndef _STL_ALGOBASE_H
  57:/usr/include/c++/7/bits/stl_algobase.h **** #define _STL_ALGOBASE_H 1
  58:/usr/include/c++/7/bits/stl_algobase.h **** 
  59:/usr/include/c++/7/bits/stl_algobase.h **** #include <bits/c++config.h>
  60:/usr/include/c++/7/bits/stl_algobase.h **** #include <bits/functexcept.h>
  61:/usr/include/c++/7/bits/stl_algobase.h **** #include <bits/cpp_type_traits.h>
  62:/usr/include/c++/7/bits/stl_algobase.h **** #include <ext/type_traits.h>
  63:/usr/include/c++/7/bits/stl_algobase.h **** #include <ext/numeric_traits.h>
  64:/usr/include/c++/7/bits/stl_algobase.h **** #include <bits/stl_pair.h>
  65:/usr/include/c++/7/bits/stl_algobase.h **** #include <bits/stl_iterator_base_types.h>
  66:/usr/include/c++/7/bits/stl_algobase.h **** #include <bits/stl_iterator_base_funcs.h>
  67:/usr/include/c++/7/bits/stl_algobase.h **** #include <bits/stl_iterator.h>
  68:/usr/include/c++/7/bits/stl_algobase.h **** #include <bits/concept_check.h>
  69:/usr/include/c++/7/bits/stl_algobase.h **** #include <debug/debug.h>
  70:/usr/include/c++/7/bits/stl_algobase.h **** #include <bits/move.h> // For std::swap and _GLIBCXX_MOVE
  71:/usr/include/c++/7/bits/stl_algobase.h **** #include <bits/predefined_ops.h>
  72:/usr/include/c++/7/bits/stl_algobase.h **** 
  73:/usr/include/c++/7/bits/stl_algobase.h **** namespace std _GLIBCXX_VISIBILITY(default)
  74:/usr/include/c++/7/bits/stl_algobase.h **** {
  75:/usr/include/c++/7/bits/stl_algobase.h **** _GLIBCXX_BEGIN_NAMESPACE_VERSION
  76:/usr/include/c++/7/bits/stl_algobase.h **** 
  77:/usr/include/c++/7/bits/stl_algobase.h **** #if __cplusplus < 201103L
  78:/usr/include/c++/7/bits/stl_algobase.h ****   // See http://gcc.gnu.org/ml/libstdc++/2004-08/msg00167.html: in a
  79:/usr/include/c++/7/bits/stl_algobase.h ****   // nutshell, we are partially implementing the resolution of DR 187,
  80:/usr/include/c++/7/bits/stl_algobase.h ****   // when it's safe, i.e., the value_types are equal.
  81:/usr/include/c++/7/bits/stl_algobase.h ****   template<bool _BoolType>
  82:/usr/include/c++/7/bits/stl_algobase.h ****     struct __iter_swap
  83:/usr/include/c++/7/bits/stl_algobase.h ****     {
  84:/usr/include/c++/7/bits/stl_algobase.h ****       template<typename _ForwardIterator1, typename _ForwardIterator2>
  85:/usr/include/c++/7/bits/stl_algobase.h ****         static void
  86:/usr/include/c++/7/bits/stl_algobase.h ****         iter_swap(_ForwardIterator1 __a, _ForwardIterator2 __b)
  87:/usr/include/c++/7/bits/stl_algobase.h ****         {
  88:/usr/include/c++/7/bits/stl_algobase.h ****           typedef typename iterator_traits<_ForwardIterator1>::value_type
  89:/usr/include/c++/7/bits/stl_algobase.h ****             _ValueType1;
  90:/usr/include/c++/7/bits/stl_algobase.h ****           _ValueType1 __tmp = _GLIBCXX_MOVE(*__a);
  91:/usr/include/c++/7/bits/stl_algobase.h ****           *__a = _GLIBCXX_MOVE(*__b);
  92:/usr/include/c++/7/bits/stl_algobase.h ****           *__b = _GLIBCXX_MOVE(__tmp);
  93:/usr/include/c++/7/bits/stl_algobase.h **** 	}
  94:/usr/include/c++/7/bits/stl_algobase.h ****     };
  95:/usr/include/c++/7/bits/stl_algobase.h **** 
  96:/usr/include/c++/7/bits/stl_algobase.h ****   template<>
  97:/usr/include/c++/7/bits/stl_algobase.h ****     struct __iter_swap<true>
  98:/usr/include/c++/7/bits/stl_algobase.h ****     {
  99:/usr/include/c++/7/bits/stl_algobase.h ****       template<typename _ForwardIterator1, typename _ForwardIterator2>
 100:/usr/include/c++/7/bits/stl_algobase.h ****         static void 
 101:/usr/include/c++/7/bits/stl_algobase.h ****         iter_swap(_ForwardIterator1 __a, _ForwardIterator2 __b)
 102:/usr/include/c++/7/bits/stl_algobase.h ****         {
 103:/usr/include/c++/7/bits/stl_algobase.h ****           swap(*__a, *__b);
 104:/usr/include/c++/7/bits/stl_algobase.h ****         }
 105:/usr/include/c++/7/bits/stl_algobase.h ****     };
 106:/usr/include/c++/7/bits/stl_algobase.h **** #endif
 107:/usr/include/c++/7/bits/stl_algobase.h **** 
 108:/usr/include/c++/7/bits/stl_algobase.h ****   /**
 109:/usr/include/c++/7/bits/stl_algobase.h ****    *  @brief Swaps the contents of two iterators.
 110:/usr/include/c++/7/bits/stl_algobase.h ****    *  @ingroup mutating_algorithms
 111:/usr/include/c++/7/bits/stl_algobase.h ****    *  @param  __a  An iterator.
 112:/usr/include/c++/7/bits/stl_algobase.h ****    *  @param  __b  Another iterator.
 113:/usr/include/c++/7/bits/stl_algobase.h ****    *  @return   Nothing.
 114:/usr/include/c++/7/bits/stl_algobase.h ****    *
 115:/usr/include/c++/7/bits/stl_algobase.h ****    *  This function swaps the values pointed to by two iterators, not the
 116:/usr/include/c++/7/bits/stl_algobase.h ****    *  iterators themselves.
 117:/usr/include/c++/7/bits/stl_algobase.h ****   */
 118:/usr/include/c++/7/bits/stl_algobase.h ****   template<typename _ForwardIterator1, typename _ForwardIterator2>
 119:/usr/include/c++/7/bits/stl_algobase.h ****     inline void
 120:/usr/include/c++/7/bits/stl_algobase.h ****     iter_swap(_ForwardIterator1 __a, _ForwardIterator2 __b)
 121:/usr/include/c++/7/bits/stl_algobase.h ****     {
 122:/usr/include/c++/7/bits/stl_algobase.h ****       // concept requirements
 123:/usr/include/c++/7/bits/stl_algobase.h ****       __glibcxx_function_requires(_Mutable_ForwardIteratorConcept<
 124:/usr/include/c++/7/bits/stl_algobase.h **** 				  _ForwardIterator1>)
 125:/usr/include/c++/7/bits/stl_algobase.h ****       __glibcxx_function_requires(_Mutable_ForwardIteratorConcept<
 126:/usr/include/c++/7/bits/stl_algobase.h **** 				  _ForwardIterator2>)
 127:/usr/include/c++/7/bits/stl_algobase.h **** 
 128:/usr/include/c++/7/bits/stl_algobase.h **** #if __cplusplus < 201103L
 129:/usr/include/c++/7/bits/stl_algobase.h ****       typedef typename iterator_traits<_ForwardIterator1>::value_type
 130:/usr/include/c++/7/bits/stl_algobase.h **** 	_ValueType1;
 131:/usr/include/c++/7/bits/stl_algobase.h ****       typedef typename iterator_traits<_ForwardIterator2>::value_type
 132:/usr/include/c++/7/bits/stl_algobase.h **** 	_ValueType2;
 133:/usr/include/c++/7/bits/stl_algobase.h **** 
 134:/usr/include/c++/7/bits/stl_algobase.h ****       __glibcxx_function_requires(_ConvertibleConcept<_ValueType1,
 135:/usr/include/c++/7/bits/stl_algobase.h **** 				  _ValueType2>)
 136:/usr/include/c++/7/bits/stl_algobase.h ****       __glibcxx_function_requires(_ConvertibleConcept<_ValueType2,
 137:/usr/include/c++/7/bits/stl_algobase.h **** 				  _ValueType1>)
 138:/usr/include/c++/7/bits/stl_algobase.h **** 
 139:/usr/include/c++/7/bits/stl_algobase.h ****       typedef typename iterator_traits<_ForwardIterator1>::reference
 140:/usr/include/c++/7/bits/stl_algobase.h **** 	_ReferenceType1;
 141:/usr/include/c++/7/bits/stl_algobase.h ****       typedef typename iterator_traits<_ForwardIterator2>::reference
 142:/usr/include/c++/7/bits/stl_algobase.h **** 	_ReferenceType2;
 143:/usr/include/c++/7/bits/stl_algobase.h ****       std::__iter_swap<__are_same<_ValueType1, _ValueType2>::__value
 144:/usr/include/c++/7/bits/stl_algobase.h **** 	&& __are_same<_ValueType1&, _ReferenceType1>::__value
 145:/usr/include/c++/7/bits/stl_algobase.h **** 	&& __are_same<_ValueType2&, _ReferenceType2>::__value>::
 146:/usr/include/c++/7/bits/stl_algobase.h **** 	iter_swap(__a, __b);
 147:/usr/include/c++/7/bits/stl_algobase.h **** #else
 148:/usr/include/c++/7/bits/stl_algobase.h ****       swap(*__a, *__b);
 149:/usr/include/c++/7/bits/stl_algobase.h **** #endif
 150:/usr/include/c++/7/bits/stl_algobase.h ****     }
 151:/usr/include/c++/7/bits/stl_algobase.h **** 
 152:/usr/include/c++/7/bits/stl_algobase.h ****   /**
 153:/usr/include/c++/7/bits/stl_algobase.h ****    *  @brief Swap the elements of two sequences.
 154:/usr/include/c++/7/bits/stl_algobase.h ****    *  @ingroup mutating_algorithms
 155:/usr/include/c++/7/bits/stl_algobase.h ****    *  @param  __first1  A forward iterator.
 156:/usr/include/c++/7/bits/stl_algobase.h ****    *  @param  __last1   A forward iterator.
 157:/usr/include/c++/7/bits/stl_algobase.h ****    *  @param  __first2  A forward iterator.
 158:/usr/include/c++/7/bits/stl_algobase.h ****    *  @return   An iterator equal to @p first2+(last1-first1).
 159:/usr/include/c++/7/bits/stl_algobase.h ****    *
 160:/usr/include/c++/7/bits/stl_algobase.h ****    *  Swaps each element in the range @p [first1,last1) with the
 161:/usr/include/c++/7/bits/stl_algobase.h ****    *  corresponding element in the range @p [first2,(last1-first1)).
 162:/usr/include/c++/7/bits/stl_algobase.h ****    *  The ranges must not overlap.
 163:/usr/include/c++/7/bits/stl_algobase.h ****   */
 164:/usr/include/c++/7/bits/stl_algobase.h ****   template<typename _ForwardIterator1, typename _ForwardIterator2>
 165:/usr/include/c++/7/bits/stl_algobase.h ****     _ForwardIterator2
 166:/usr/include/c++/7/bits/stl_algobase.h ****     swap_ranges(_ForwardIterator1 __first1, _ForwardIterator1 __last1,
 167:/usr/include/c++/7/bits/stl_algobase.h **** 		_ForwardIterator2 __first2)
 168:/usr/include/c++/7/bits/stl_algobase.h ****     {
 169:/usr/include/c++/7/bits/stl_algobase.h ****       // concept requirements
 170:/usr/include/c++/7/bits/stl_algobase.h ****       __glibcxx_function_requires(_Mutable_ForwardIteratorConcept<
 171:/usr/include/c++/7/bits/stl_algobase.h **** 				  _ForwardIterator1>)
 172:/usr/include/c++/7/bits/stl_algobase.h ****       __glibcxx_function_requires(_Mutable_ForwardIteratorConcept<
 173:/usr/include/c++/7/bits/stl_algobase.h **** 				  _ForwardIterator2>)
 174:/usr/include/c++/7/bits/stl_algobase.h ****       __glibcxx_requires_valid_range(__first1, __last1);
 175:/usr/include/c++/7/bits/stl_algobase.h **** 
 176:/usr/include/c++/7/bits/stl_algobase.h ****       for (; __first1 != __last1; ++__first1, (void)++__first2)
 177:/usr/include/c++/7/bits/stl_algobase.h **** 	std::iter_swap(__first1, __first2);
 178:/usr/include/c++/7/bits/stl_algobase.h ****       return __first2;
 179:/usr/include/c++/7/bits/stl_algobase.h ****     }
 180:/usr/include/c++/7/bits/stl_algobase.h **** 
 181:/usr/include/c++/7/bits/stl_algobase.h ****   /**
 182:/usr/include/c++/7/bits/stl_algobase.h ****    *  @brief This does what you think it does.
 183:/usr/include/c++/7/bits/stl_algobase.h ****    *  @ingroup sorting_algorithms
 184:/usr/include/c++/7/bits/stl_algobase.h ****    *  @param  __a  A thing of arbitrary type.
 185:/usr/include/c++/7/bits/stl_algobase.h ****    *  @param  __b  Another thing of arbitrary type.
 186:/usr/include/c++/7/bits/stl_algobase.h ****    *  @return   The lesser of the parameters.
 187:/usr/include/c++/7/bits/stl_algobase.h ****    *
 188:/usr/include/c++/7/bits/stl_algobase.h ****    *  This is the simple classic generic implementation.  It will work on
 189:/usr/include/c++/7/bits/stl_algobase.h ****    *  temporary expressions, since they are only evaluated once, unlike a
 190:/usr/include/c++/7/bits/stl_algobase.h ****    *  preprocessor macro.
 191:/usr/include/c++/7/bits/stl_algobase.h ****   */
 192:/usr/include/c++/7/bits/stl_algobase.h ****   template<typename _Tp>
 193:/usr/include/c++/7/bits/stl_algobase.h ****     _GLIBCXX14_CONSTEXPR
 194:/usr/include/c++/7/bits/stl_algobase.h ****     inline const _Tp&
 195:/usr/include/c++/7/bits/stl_algobase.h ****     min(const _Tp& __a, const _Tp& __b)
 196:/usr/include/c++/7/bits/stl_algobase.h ****     {
 197:/usr/include/c++/7/bits/stl_algobase.h ****       // concept requirements
 198:/usr/include/c++/7/bits/stl_algobase.h ****       __glibcxx_function_requires(_LessThanComparableConcept<_Tp>)
 199:/usr/include/c++/7/bits/stl_algobase.h ****       //return __b < __a ? __b : __a;
 200:/usr/include/c++/7/bits/stl_algobase.h ****       if (__b < __a)
 201:/usr/include/c++/7/bits/stl_algobase.h **** 	return __b;
 202:/usr/include/c++/7/bits/stl_algobase.h ****       return __a;
 203:/usr/include/c++/7/bits/stl_algobase.h ****     }
 204:/usr/include/c++/7/bits/stl_algobase.h **** 
 205:/usr/include/c++/7/bits/stl_algobase.h ****   /**
 206:/usr/include/c++/7/bits/stl_algobase.h ****    *  @brief This does what you think it does.
 207:/usr/include/c++/7/bits/stl_algobase.h ****    *  @ingroup sorting_algorithms
 208:/usr/include/c++/7/bits/stl_algobase.h ****    *  @param  __a  A thing of arbitrary type.
 209:/usr/include/c++/7/bits/stl_algobase.h ****    *  @param  __b  Another thing of arbitrary type.
 210:/usr/include/c++/7/bits/stl_algobase.h ****    *  @return   The greater of the parameters.
 211:/usr/include/c++/7/bits/stl_algobase.h ****    *
 212:/usr/include/c++/7/bits/stl_algobase.h ****    *  This is the simple classic generic implementation.  It will work on
 213:/usr/include/c++/7/bits/stl_algobase.h ****    *  temporary expressions, since they are only evaluated once, unlike a
 214:/usr/include/c++/7/bits/stl_algobase.h ****    *  preprocessor macro.
 215:/usr/include/c++/7/bits/stl_algobase.h ****   */
 216:/usr/include/c++/7/bits/stl_algobase.h ****   template<typename _Tp>
 217:/usr/include/c++/7/bits/stl_algobase.h ****     _GLIBCXX14_CONSTEXPR
 218:/usr/include/c++/7/bits/stl_algobase.h ****     inline const _Tp&
 219:/usr/include/c++/7/bits/stl_algobase.h ****     max(const _Tp& __a, const _Tp& __b)
 2771              		.loc 9 219 0
 2772              		.cfi_startproc
 2773 0000 55       		pushq	%rbp
 2774              		.cfi_def_cfa_offset 16
 2775              		.cfi_offset 6, -16
 2776 0001 4889E5   		movq	%rsp, %rbp
 2777              		.cfi_def_cfa_register 6
 2778 0004 48897DF8 		movq	%rdi, -8(%rbp)
 2779 0008 488975F0 		movq	%rsi, -16(%rbp)
 220:/usr/include/c++/7/bits/stl_algobase.h ****     {
 221:/usr/include/c++/7/bits/stl_algobase.h ****       // concept requirements
 222:/usr/include/c++/7/bits/stl_algobase.h ****       __glibcxx_function_requires(_LessThanComparableConcept<_Tp>)
 223:/usr/include/c++/7/bits/stl_algobase.h ****       //return  __a < __b ? __b : __a;
 224:/usr/include/c++/7/bits/stl_algobase.h ****       if (__a < __b)
 2780              		.loc 9 224 0
 2781 000c 488B45F8 		movq	-8(%rbp), %rax
 2782 0010 488B10   		movq	(%rax), %rdx
 2783 0013 488B45F0 		movq	-16(%rbp), %rax
 2784 0017 488B00   		movq	(%rax), %rax
 2785 001a 4839C2   		cmpq	%rax, %rdx
 2786 001d 7306     		jnb	.L128
 225:/usr/include/c++/7/bits/stl_algobase.h **** 	return __b;
 2787              		.loc 9 225 0
 2788 001f 488B45F0 		movq	-16(%rbp), %rax
 2789 0023 EB04     		jmp	.L129
 2790              	.L128:
 226:/usr/include/c++/7/bits/stl_algobase.h ****       return __a;
 2791              		.loc 9 226 0
 2792 0025 488B45F8 		movq	-8(%rbp), %rax
 2793              	.L129:
 227:/usr/include/c++/7/bits/stl_algobase.h ****     }
 2794              		.loc 9 227 0
 2795 0029 5D       		popq	%rbp
 2796              		.cfi_def_cfa 7, 8
 2797 002a C3       		ret
 2798              		.cfi_endproc
 2799              	.LFE2355:
 2801              		.section	.text._ZNSt16allocator_traitsISaIdEE8allocateERS0_m,"axG",@progbits,_ZNSt16allocator_trai
 2802              		.weak	_ZNSt16allocator_traitsISaIdEE8allocateERS0_m
 2804              	_ZNSt16allocator_traitsISaIdEE8allocateERS0_m:
 2805              	.LFB2356:
 435:/usr/include/c++/7/bits/alloc_traits.h ****       { return __a.allocate(__n); }
 2806              		.loc 8 435 0
 2807              		.cfi_startproc
 2808 0000 55       		pushq	%rbp
 2809              		.cfi_def_cfa_offset 16
 2810              		.cfi_offset 6, -16
 2811 0001 4889E5   		movq	%rsp, %rbp
 2812              		.cfi_def_cfa_register 6
 2813 0004 4883EC10 		subq	$16, %rsp
 2814 0008 48897DF8 		movq	%rdi, -8(%rbp)
 2815 000c 488975F0 		movq	%rsi, -16(%rbp)
 436:/usr/include/c++/7/bits/alloc_traits.h **** 
 2816              		.loc 8 436 0
 2817 0010 488B4DF0 		movq	-16(%rbp), %rcx
 2818 0014 488B45F8 		movq	-8(%rbp), %rax
 2819 0018 BA000000 		movl	$0, %edx
 2819      00
 2820 001d 4889CE   		movq	%rcx, %rsi
 2821 0020 4889C7   		movq	%rax, %rdi
 2822 0023 E8000000 		call	_ZN9__gnu_cxx13new_allocatorIdE8allocateEmPKv
 2822      00
 2823 0028 C9       		leave
 2824              		.cfi_def_cfa 7, 8
 2825 0029 C3       		ret
 2826              		.cfi_endproc
 2827              	.LFE2356:
 2829              		.section	.text._ZSt32__make_move_if_noexcept_iteratorIdSt13move_iteratorIPdEET0_PT_,"axG",@progbit
 2830              		.weak	_ZSt32__make_move_if_noexcept_iteratorIdSt13move_iteratorIPdEET0_PT_
 2832              	_ZSt32__make_move_if_noexcept_iteratorIdSt13move_iteratorIPdEET0_PT_:
 2833              	.LFB2357:
 2834              		.file 10 "/usr/include/c++/7/bits/stl_iterator.h"
   1:/usr/include/c++/7/bits/stl_iterator.h **** // Iterators -*- C++ -*-
   2:/usr/include/c++/7/bits/stl_iterator.h **** 
   3:/usr/include/c++/7/bits/stl_iterator.h **** // Copyright (C) 2001-2017 Free Software Foundation, Inc.
   4:/usr/include/c++/7/bits/stl_iterator.h **** //
   5:/usr/include/c++/7/bits/stl_iterator.h **** // This file is part of the GNU ISO C++ Library.  This library is free
   6:/usr/include/c++/7/bits/stl_iterator.h **** // software; you can redistribute it and/or modify it under the
   7:/usr/include/c++/7/bits/stl_iterator.h **** // terms of the GNU General Public License as published by the
   8:/usr/include/c++/7/bits/stl_iterator.h **** // Free Software Foundation; either version 3, or (at your option)
   9:/usr/include/c++/7/bits/stl_iterator.h **** // any later version.
  10:/usr/include/c++/7/bits/stl_iterator.h **** 
  11:/usr/include/c++/7/bits/stl_iterator.h **** // This library is distributed in the hope that it will be useful,
  12:/usr/include/c++/7/bits/stl_iterator.h **** // but WITHOUT ANY WARRANTY; without even the implied warranty of
  13:/usr/include/c++/7/bits/stl_iterator.h **** // MERCHANTABILITY or FITNESS FOR A PARTICULAR PURPOSE.  See the
  14:/usr/include/c++/7/bits/stl_iterator.h **** // GNU General Public License for more details.
  15:/usr/include/c++/7/bits/stl_iterator.h **** 
  16:/usr/include/c++/7/bits/stl_iterator.h **** // Under Section 7 of GPL version 3, you are granted additional
  17:/usr/include/c++/7/bits/stl_iterator.h **** // permissions described in the GCC Runtime Library Exception, version
  18:/usr/include/c++/7/bits/stl_iterator.h **** // 3.1, as published by the Free Software Foundation.
  19:/usr/include/c++/7/bits/stl_iterator.h **** 
  20:/usr/include/c++/7/bits/stl_iterator.h **** // You should have received a copy of the GNU General Public License and
  21:/usr/include/c++/7/bits/stl_iterator.h **** // a copy of the GCC Runtime Library Exception along with this program;
  22:/usr/include/c++/7/bits/stl_iterator.h **** // see the files COPYING3 and COPYING.RUNTIME respectively.  If not, see
  23:/usr/include/c++/7/bits/stl_iterator.h **** // <http://www.gnu.org/licenses/>.
  24:/usr/include/c++/7/bits/stl_iterator.h **** 
  25:/usr/include/c++/7/bits/stl_iterator.h **** /*
  26:/usr/include/c++/7/bits/stl_iterator.h ****  *
  27:/usr/include/c++/7/bits/stl_iterator.h ****  * Copyright (c) 1994
  28:/usr/include/c++/7/bits/stl_iterator.h ****  * Hewlett-Packard Company
  29:/usr/include/c++/7/bits/stl_iterator.h ****  *
  30:/usr/include/c++/7/bits/stl_iterator.h ****  * Permission to use, copy, modify, distribute and sell this software
  31:/usr/include/c++/7/bits/stl_iterator.h ****  * and its documentation for any purpose is hereby granted without fee,
  32:/usr/include/c++/7/bits/stl_iterator.h ****  * provided that the above copyright notice appear in all copies and
  33:/usr/include/c++/7/bits/stl_iterator.h ****  * that both that copyright notice and this permission notice appear
  34:/usr/include/c++/7/bits/stl_iterator.h ****  * in supporting documentation.  Hewlett-Packard Company makes no
  35:/usr/include/c++/7/bits/stl_iterator.h ****  * representations about the suitability of this software for any
  36:/usr/include/c++/7/bits/stl_iterator.h ****  * purpose.  It is provided "as is" without express or implied warranty.
  37:/usr/include/c++/7/bits/stl_iterator.h ****  *
  38:/usr/include/c++/7/bits/stl_iterator.h ****  *
  39:/usr/include/c++/7/bits/stl_iterator.h ****  * Copyright (c) 1996-1998
  40:/usr/include/c++/7/bits/stl_iterator.h ****  * Silicon Graphics Computer Systems, Inc.
  41:/usr/include/c++/7/bits/stl_iterator.h ****  *
  42:/usr/include/c++/7/bits/stl_iterator.h ****  * Permission to use, copy, modify, distribute and sell this software
  43:/usr/include/c++/7/bits/stl_iterator.h ****  * and its documentation for any purpose is hereby granted without fee,
  44:/usr/include/c++/7/bits/stl_iterator.h ****  * provided that the above copyright notice appear in all copies and
  45:/usr/include/c++/7/bits/stl_iterator.h ****  * that both that copyright notice and this permission notice appear
  46:/usr/include/c++/7/bits/stl_iterator.h ****  * in supporting documentation.  Silicon Graphics makes no
  47:/usr/include/c++/7/bits/stl_iterator.h ****  * representations about the suitability of this software for any
  48:/usr/include/c++/7/bits/stl_iterator.h ****  * purpose.  It is provided "as is" without express or implied warranty.
  49:/usr/include/c++/7/bits/stl_iterator.h ****  */
  50:/usr/include/c++/7/bits/stl_iterator.h **** 
  51:/usr/include/c++/7/bits/stl_iterator.h **** /** @file bits/stl_iterator.h
  52:/usr/include/c++/7/bits/stl_iterator.h ****  *  This is an internal header file, included by other library headers.
  53:/usr/include/c++/7/bits/stl_iterator.h ****  *  Do not attempt to use it directly. @headername{iterator}
  54:/usr/include/c++/7/bits/stl_iterator.h ****  *
  55:/usr/include/c++/7/bits/stl_iterator.h ****  *  This file implements reverse_iterator, back_insert_iterator,
  56:/usr/include/c++/7/bits/stl_iterator.h ****  *  front_insert_iterator, insert_iterator, __normal_iterator, and their
  57:/usr/include/c++/7/bits/stl_iterator.h ****  *  supporting functions and overloaded operators.
  58:/usr/include/c++/7/bits/stl_iterator.h ****  */
  59:/usr/include/c++/7/bits/stl_iterator.h **** 
  60:/usr/include/c++/7/bits/stl_iterator.h **** #ifndef _STL_ITERATOR_H
  61:/usr/include/c++/7/bits/stl_iterator.h **** #define _STL_ITERATOR_H 1
  62:/usr/include/c++/7/bits/stl_iterator.h **** 
  63:/usr/include/c++/7/bits/stl_iterator.h **** #include <bits/cpp_type_traits.h>
  64:/usr/include/c++/7/bits/stl_iterator.h **** #include <ext/type_traits.h>
  65:/usr/include/c++/7/bits/stl_iterator.h **** #include <bits/move.h>
  66:/usr/include/c++/7/bits/stl_iterator.h **** #include <bits/ptr_traits.h>
  67:/usr/include/c++/7/bits/stl_iterator.h **** 
  68:/usr/include/c++/7/bits/stl_iterator.h **** #if __cplusplus > 201402L
  69:/usr/include/c++/7/bits/stl_iterator.h **** # define __cpp_lib_array_constexpr 201603
  70:/usr/include/c++/7/bits/stl_iterator.h **** #endif
  71:/usr/include/c++/7/bits/stl_iterator.h **** 
  72:/usr/include/c++/7/bits/stl_iterator.h **** namespace std _GLIBCXX_VISIBILITY(default)
  73:/usr/include/c++/7/bits/stl_iterator.h **** {
  74:/usr/include/c++/7/bits/stl_iterator.h **** _GLIBCXX_BEGIN_NAMESPACE_VERSION
  75:/usr/include/c++/7/bits/stl_iterator.h **** 
  76:/usr/include/c++/7/bits/stl_iterator.h ****   /**
  77:/usr/include/c++/7/bits/stl_iterator.h ****    * @addtogroup iterators
  78:/usr/include/c++/7/bits/stl_iterator.h ****    * @{
  79:/usr/include/c++/7/bits/stl_iterator.h ****    */
  80:/usr/include/c++/7/bits/stl_iterator.h **** 
  81:/usr/include/c++/7/bits/stl_iterator.h ****   // 24.4.1 Reverse iterators
  82:/usr/include/c++/7/bits/stl_iterator.h ****   /**
  83:/usr/include/c++/7/bits/stl_iterator.h ****    *  Bidirectional and random access iterators have corresponding reverse
  84:/usr/include/c++/7/bits/stl_iterator.h ****    *  %iterator adaptors that iterate through the data structure in the
  85:/usr/include/c++/7/bits/stl_iterator.h ****    *  opposite direction.  They have the same signatures as the corresponding
  86:/usr/include/c++/7/bits/stl_iterator.h ****    *  iterators.  The fundamental relation between a reverse %iterator and its
  87:/usr/include/c++/7/bits/stl_iterator.h ****    *  corresponding %iterator @c i is established by the identity:
  88:/usr/include/c++/7/bits/stl_iterator.h ****    *  @code
  89:/usr/include/c++/7/bits/stl_iterator.h ****    *      &*(reverse_iterator(i)) == &*(i - 1)
  90:/usr/include/c++/7/bits/stl_iterator.h ****    *  @endcode
  91:/usr/include/c++/7/bits/stl_iterator.h ****    *
  92:/usr/include/c++/7/bits/stl_iterator.h ****    *  <em>This mapping is dictated by the fact that while there is always a
  93:/usr/include/c++/7/bits/stl_iterator.h ****    *  pointer past the end of an array, there might not be a valid pointer
  94:/usr/include/c++/7/bits/stl_iterator.h ****    *  before the beginning of an array.</em> [24.4.1]/1,2
  95:/usr/include/c++/7/bits/stl_iterator.h ****    *
  96:/usr/include/c++/7/bits/stl_iterator.h ****    *  Reverse iterators can be tricky and surprising at first.  Their
  97:/usr/include/c++/7/bits/stl_iterator.h ****    *  semantics make sense, however, and the trickiness is a side effect of
  98:/usr/include/c++/7/bits/stl_iterator.h ****    *  the requirement that the iterators must be safe.
  99:/usr/include/c++/7/bits/stl_iterator.h ****   */
 100:/usr/include/c++/7/bits/stl_iterator.h ****   template<typename _Iterator>
 101:/usr/include/c++/7/bits/stl_iterator.h ****     class reverse_iterator
 102:/usr/include/c++/7/bits/stl_iterator.h ****     : public iterator<typename iterator_traits<_Iterator>::iterator_category,
 103:/usr/include/c++/7/bits/stl_iterator.h **** 		      typename iterator_traits<_Iterator>::value_type,
 104:/usr/include/c++/7/bits/stl_iterator.h **** 		      typename iterator_traits<_Iterator>::difference_type,
 105:/usr/include/c++/7/bits/stl_iterator.h **** 		      typename iterator_traits<_Iterator>::pointer,
 106:/usr/include/c++/7/bits/stl_iterator.h ****                       typename iterator_traits<_Iterator>::reference>
 107:/usr/include/c++/7/bits/stl_iterator.h ****     {
 108:/usr/include/c++/7/bits/stl_iterator.h ****     protected:
 109:/usr/include/c++/7/bits/stl_iterator.h ****       _Iterator current;
 110:/usr/include/c++/7/bits/stl_iterator.h **** 
 111:/usr/include/c++/7/bits/stl_iterator.h ****       typedef iterator_traits<_Iterator>		__traits_type;
 112:/usr/include/c++/7/bits/stl_iterator.h **** 
 113:/usr/include/c++/7/bits/stl_iterator.h ****     public:
 114:/usr/include/c++/7/bits/stl_iterator.h ****       typedef _Iterator					iterator_type;
 115:/usr/include/c++/7/bits/stl_iterator.h ****       typedef typename __traits_type::difference_type	difference_type;
 116:/usr/include/c++/7/bits/stl_iterator.h ****       typedef typename __traits_type::pointer		pointer;
 117:/usr/include/c++/7/bits/stl_iterator.h ****       typedef typename __traits_type::reference		reference;
 118:/usr/include/c++/7/bits/stl_iterator.h **** 
 119:/usr/include/c++/7/bits/stl_iterator.h ****       /**
 120:/usr/include/c++/7/bits/stl_iterator.h ****        *  The default constructor value-initializes member @p current.
 121:/usr/include/c++/7/bits/stl_iterator.h ****        *  If it is a pointer, that means it is zero-initialized.
 122:/usr/include/c++/7/bits/stl_iterator.h ****       */
 123:/usr/include/c++/7/bits/stl_iterator.h ****       // _GLIBCXX_RESOLVE_LIB_DEFECTS
 124:/usr/include/c++/7/bits/stl_iterator.h ****       // 235 No specification of default ctor for reverse_iterator
 125:/usr/include/c++/7/bits/stl_iterator.h ****       _GLIBCXX17_CONSTEXPR
 126:/usr/include/c++/7/bits/stl_iterator.h ****       reverse_iterator() : current() { }
 127:/usr/include/c++/7/bits/stl_iterator.h **** 
 128:/usr/include/c++/7/bits/stl_iterator.h ****       /**
 129:/usr/include/c++/7/bits/stl_iterator.h ****        *  This %iterator will move in the opposite direction that @p x does.
 130:/usr/include/c++/7/bits/stl_iterator.h ****       */
 131:/usr/include/c++/7/bits/stl_iterator.h ****       explicit _GLIBCXX17_CONSTEXPR
 132:/usr/include/c++/7/bits/stl_iterator.h ****       reverse_iterator(iterator_type __x) : current(__x) { }
 133:/usr/include/c++/7/bits/stl_iterator.h **** 
 134:/usr/include/c++/7/bits/stl_iterator.h ****       /**
 135:/usr/include/c++/7/bits/stl_iterator.h ****        *  The copy constructor is normal.
 136:/usr/include/c++/7/bits/stl_iterator.h ****       */
 137:/usr/include/c++/7/bits/stl_iterator.h ****       _GLIBCXX17_CONSTEXPR
 138:/usr/include/c++/7/bits/stl_iterator.h ****       reverse_iterator(const reverse_iterator& __x)
 139:/usr/include/c++/7/bits/stl_iterator.h ****       : current(__x.current) { }
 140:/usr/include/c++/7/bits/stl_iterator.h **** 
 141:/usr/include/c++/7/bits/stl_iterator.h ****       /**
 142:/usr/include/c++/7/bits/stl_iterator.h ****        *  A %reverse_iterator across other types can be copied if the
 143:/usr/include/c++/7/bits/stl_iterator.h ****        *  underlying %iterator can be converted to the type of @c current.
 144:/usr/include/c++/7/bits/stl_iterator.h ****       */
 145:/usr/include/c++/7/bits/stl_iterator.h ****       template<typename _Iter>
 146:/usr/include/c++/7/bits/stl_iterator.h **** 	_GLIBCXX17_CONSTEXPR
 147:/usr/include/c++/7/bits/stl_iterator.h ****         reverse_iterator(const reverse_iterator<_Iter>& __x)
 148:/usr/include/c++/7/bits/stl_iterator.h **** 	: current(__x.base()) { }
 149:/usr/include/c++/7/bits/stl_iterator.h **** 
 150:/usr/include/c++/7/bits/stl_iterator.h ****       /**
 151:/usr/include/c++/7/bits/stl_iterator.h ****        *  @return  @c current, the %iterator used for underlying work.
 152:/usr/include/c++/7/bits/stl_iterator.h ****       */
 153:/usr/include/c++/7/bits/stl_iterator.h ****       _GLIBCXX17_CONSTEXPR iterator_type
 154:/usr/include/c++/7/bits/stl_iterator.h ****       base() const
 155:/usr/include/c++/7/bits/stl_iterator.h ****       { return current; }
 156:/usr/include/c++/7/bits/stl_iterator.h **** 
 157:/usr/include/c++/7/bits/stl_iterator.h ****       /**
 158:/usr/include/c++/7/bits/stl_iterator.h ****        *  @return  A reference to the value at @c --current
 159:/usr/include/c++/7/bits/stl_iterator.h ****        *
 160:/usr/include/c++/7/bits/stl_iterator.h ****        *  This requires that @c --current is dereferenceable.
 161:/usr/include/c++/7/bits/stl_iterator.h ****        *
 162:/usr/include/c++/7/bits/stl_iterator.h ****        *  @warning This implementation requires that for an iterator of the
 163:/usr/include/c++/7/bits/stl_iterator.h ****        *           underlying iterator type, @c x, a reference obtained by
 164:/usr/include/c++/7/bits/stl_iterator.h ****        *           @c *x remains valid after @c x has been modified or
 165:/usr/include/c++/7/bits/stl_iterator.h ****        *           destroyed. This is a bug: http://gcc.gnu.org/PR51823
 166:/usr/include/c++/7/bits/stl_iterator.h ****       */
 167:/usr/include/c++/7/bits/stl_iterator.h ****       _GLIBCXX17_CONSTEXPR reference
 168:/usr/include/c++/7/bits/stl_iterator.h ****       operator*() const
 169:/usr/include/c++/7/bits/stl_iterator.h ****       {
 170:/usr/include/c++/7/bits/stl_iterator.h **** 	_Iterator __tmp = current;
 171:/usr/include/c++/7/bits/stl_iterator.h **** 	return *--__tmp;
 172:/usr/include/c++/7/bits/stl_iterator.h ****       }
 173:/usr/include/c++/7/bits/stl_iterator.h **** 
 174:/usr/include/c++/7/bits/stl_iterator.h ****       /**
 175:/usr/include/c++/7/bits/stl_iterator.h ****        *  @return  A pointer to the value at @c --current
 176:/usr/include/c++/7/bits/stl_iterator.h ****        *
 177:/usr/include/c++/7/bits/stl_iterator.h ****        *  This requires that @c --current is dereferenceable.
 178:/usr/include/c++/7/bits/stl_iterator.h ****       */
 179:/usr/include/c++/7/bits/stl_iterator.h ****       _GLIBCXX17_CONSTEXPR pointer
 180:/usr/include/c++/7/bits/stl_iterator.h ****       operator->() const
 181:/usr/include/c++/7/bits/stl_iterator.h ****       { return &(operator*()); }
 182:/usr/include/c++/7/bits/stl_iterator.h **** 
 183:/usr/include/c++/7/bits/stl_iterator.h ****       /**
 184:/usr/include/c++/7/bits/stl_iterator.h ****        *  @return  @c *this
 185:/usr/include/c++/7/bits/stl_iterator.h ****        *
 186:/usr/include/c++/7/bits/stl_iterator.h ****        *  Decrements the underlying iterator.
 187:/usr/include/c++/7/bits/stl_iterator.h ****       */
 188:/usr/include/c++/7/bits/stl_iterator.h ****       _GLIBCXX17_CONSTEXPR reverse_iterator&
 189:/usr/include/c++/7/bits/stl_iterator.h ****       operator++()
 190:/usr/include/c++/7/bits/stl_iterator.h ****       {
 191:/usr/include/c++/7/bits/stl_iterator.h **** 	--current;
 192:/usr/include/c++/7/bits/stl_iterator.h **** 	return *this;
 193:/usr/include/c++/7/bits/stl_iterator.h ****       }
 194:/usr/include/c++/7/bits/stl_iterator.h **** 
 195:/usr/include/c++/7/bits/stl_iterator.h ****       /**
 196:/usr/include/c++/7/bits/stl_iterator.h ****        *  @return  The original value of @c *this
 197:/usr/include/c++/7/bits/stl_iterator.h ****        *
 198:/usr/include/c++/7/bits/stl_iterator.h ****        *  Decrements the underlying iterator.
 199:/usr/include/c++/7/bits/stl_iterator.h ****       */
 200:/usr/include/c++/7/bits/stl_iterator.h ****       _GLIBCXX17_CONSTEXPR reverse_iterator
 201:/usr/include/c++/7/bits/stl_iterator.h ****       operator++(int)
 202:/usr/include/c++/7/bits/stl_iterator.h ****       {
 203:/usr/include/c++/7/bits/stl_iterator.h **** 	reverse_iterator __tmp = *this;
 204:/usr/include/c++/7/bits/stl_iterator.h **** 	--current;
 205:/usr/include/c++/7/bits/stl_iterator.h **** 	return __tmp;
 206:/usr/include/c++/7/bits/stl_iterator.h ****       }
 207:/usr/include/c++/7/bits/stl_iterator.h **** 
 208:/usr/include/c++/7/bits/stl_iterator.h ****       /**
 209:/usr/include/c++/7/bits/stl_iterator.h ****        *  @return  @c *this
 210:/usr/include/c++/7/bits/stl_iterator.h ****        *
 211:/usr/include/c++/7/bits/stl_iterator.h ****        *  Increments the underlying iterator.
 212:/usr/include/c++/7/bits/stl_iterator.h ****       */
 213:/usr/include/c++/7/bits/stl_iterator.h ****       _GLIBCXX17_CONSTEXPR reverse_iterator&
 214:/usr/include/c++/7/bits/stl_iterator.h ****       operator--()
 215:/usr/include/c++/7/bits/stl_iterator.h ****       {
 216:/usr/include/c++/7/bits/stl_iterator.h **** 	++current;
 217:/usr/include/c++/7/bits/stl_iterator.h **** 	return *this;
 218:/usr/include/c++/7/bits/stl_iterator.h ****       }
 219:/usr/include/c++/7/bits/stl_iterator.h **** 
 220:/usr/include/c++/7/bits/stl_iterator.h ****       /**
 221:/usr/include/c++/7/bits/stl_iterator.h ****        *  @return  A reverse_iterator with the previous value of @c *this
 222:/usr/include/c++/7/bits/stl_iterator.h ****        *
 223:/usr/include/c++/7/bits/stl_iterator.h ****        *  Increments the underlying iterator.
 224:/usr/include/c++/7/bits/stl_iterator.h ****       */
 225:/usr/include/c++/7/bits/stl_iterator.h ****       _GLIBCXX17_CONSTEXPR reverse_iterator
 226:/usr/include/c++/7/bits/stl_iterator.h ****       operator--(int)
 227:/usr/include/c++/7/bits/stl_iterator.h ****       {
 228:/usr/include/c++/7/bits/stl_iterator.h **** 	reverse_iterator __tmp = *this;
 229:/usr/include/c++/7/bits/stl_iterator.h **** 	++current;
 230:/usr/include/c++/7/bits/stl_iterator.h **** 	return __tmp;
 231:/usr/include/c++/7/bits/stl_iterator.h ****       }
 232:/usr/include/c++/7/bits/stl_iterator.h **** 
 233:/usr/include/c++/7/bits/stl_iterator.h ****       /**
 234:/usr/include/c++/7/bits/stl_iterator.h ****        *  @return  A reverse_iterator that refers to @c current - @a __n
 235:/usr/include/c++/7/bits/stl_iterator.h ****        *
 236:/usr/include/c++/7/bits/stl_iterator.h ****        *  The underlying iterator must be a Random Access Iterator.
 237:/usr/include/c++/7/bits/stl_iterator.h ****       */
 238:/usr/include/c++/7/bits/stl_iterator.h ****       _GLIBCXX17_CONSTEXPR reverse_iterator
 239:/usr/include/c++/7/bits/stl_iterator.h ****       operator+(difference_type __n) const
 240:/usr/include/c++/7/bits/stl_iterator.h ****       { return reverse_iterator(current - __n); }
 241:/usr/include/c++/7/bits/stl_iterator.h **** 
 242:/usr/include/c++/7/bits/stl_iterator.h ****       /**
 243:/usr/include/c++/7/bits/stl_iterator.h ****        *  @return  *this
 244:/usr/include/c++/7/bits/stl_iterator.h ****        *
 245:/usr/include/c++/7/bits/stl_iterator.h ****        *  Moves the underlying iterator backwards @a __n steps.
 246:/usr/include/c++/7/bits/stl_iterator.h ****        *  The underlying iterator must be a Random Access Iterator.
 247:/usr/include/c++/7/bits/stl_iterator.h ****       */
 248:/usr/include/c++/7/bits/stl_iterator.h ****       _GLIBCXX17_CONSTEXPR reverse_iterator&
 249:/usr/include/c++/7/bits/stl_iterator.h ****       operator+=(difference_type __n)
 250:/usr/include/c++/7/bits/stl_iterator.h ****       {
 251:/usr/include/c++/7/bits/stl_iterator.h **** 	current -= __n;
 252:/usr/include/c++/7/bits/stl_iterator.h **** 	return *this;
 253:/usr/include/c++/7/bits/stl_iterator.h ****       }
 254:/usr/include/c++/7/bits/stl_iterator.h **** 
 255:/usr/include/c++/7/bits/stl_iterator.h ****       /**
 256:/usr/include/c++/7/bits/stl_iterator.h ****        *  @return  A reverse_iterator that refers to @c current - @a __n
 257:/usr/include/c++/7/bits/stl_iterator.h ****        *
 258:/usr/include/c++/7/bits/stl_iterator.h ****        *  The underlying iterator must be a Random Access Iterator.
 259:/usr/include/c++/7/bits/stl_iterator.h ****       */
 260:/usr/include/c++/7/bits/stl_iterator.h ****       _GLIBCXX17_CONSTEXPR reverse_iterator
 261:/usr/include/c++/7/bits/stl_iterator.h ****       operator-(difference_type __n) const
 262:/usr/include/c++/7/bits/stl_iterator.h ****       { return reverse_iterator(current + __n); }
 263:/usr/include/c++/7/bits/stl_iterator.h **** 
 264:/usr/include/c++/7/bits/stl_iterator.h ****       /**
 265:/usr/include/c++/7/bits/stl_iterator.h ****        *  @return  *this
 266:/usr/include/c++/7/bits/stl_iterator.h ****        *
 267:/usr/include/c++/7/bits/stl_iterator.h ****        *  Moves the underlying iterator forwards @a __n steps.
 268:/usr/include/c++/7/bits/stl_iterator.h ****        *  The underlying iterator must be a Random Access Iterator.
 269:/usr/include/c++/7/bits/stl_iterator.h ****       */
 270:/usr/include/c++/7/bits/stl_iterator.h ****       _GLIBCXX17_CONSTEXPR reverse_iterator&
 271:/usr/include/c++/7/bits/stl_iterator.h ****       operator-=(difference_type __n)
 272:/usr/include/c++/7/bits/stl_iterator.h ****       {
 273:/usr/include/c++/7/bits/stl_iterator.h **** 	current += __n;
 274:/usr/include/c++/7/bits/stl_iterator.h **** 	return *this;
 275:/usr/include/c++/7/bits/stl_iterator.h ****       }
 276:/usr/include/c++/7/bits/stl_iterator.h **** 
 277:/usr/include/c++/7/bits/stl_iterator.h ****       /**
 278:/usr/include/c++/7/bits/stl_iterator.h ****        *  @return  The value at @c current - @a __n - 1
 279:/usr/include/c++/7/bits/stl_iterator.h ****        *
 280:/usr/include/c++/7/bits/stl_iterator.h ****        *  The underlying iterator must be a Random Access Iterator.
 281:/usr/include/c++/7/bits/stl_iterator.h ****       */
 282:/usr/include/c++/7/bits/stl_iterator.h ****       _GLIBCXX17_CONSTEXPR reference
 283:/usr/include/c++/7/bits/stl_iterator.h ****       operator[](difference_type __n) const
 284:/usr/include/c++/7/bits/stl_iterator.h ****       { return *(*this + __n); }
 285:/usr/include/c++/7/bits/stl_iterator.h ****     };
 286:/usr/include/c++/7/bits/stl_iterator.h **** 
 287:/usr/include/c++/7/bits/stl_iterator.h ****   //@{
 288:/usr/include/c++/7/bits/stl_iterator.h ****   /**
 289:/usr/include/c++/7/bits/stl_iterator.h ****    *  @param  __x  A %reverse_iterator.
 290:/usr/include/c++/7/bits/stl_iterator.h ****    *  @param  __y  A %reverse_iterator.
 291:/usr/include/c++/7/bits/stl_iterator.h ****    *  @return  A simple bool.
 292:/usr/include/c++/7/bits/stl_iterator.h ****    *
 293:/usr/include/c++/7/bits/stl_iterator.h ****    *  Reverse iterators forward many operations to their underlying base()
 294:/usr/include/c++/7/bits/stl_iterator.h ****    *  iterators.  Others are implemented in terms of one another.
 295:/usr/include/c++/7/bits/stl_iterator.h ****    *
 296:/usr/include/c++/7/bits/stl_iterator.h ****   */
 297:/usr/include/c++/7/bits/stl_iterator.h ****   template<typename _Iterator>
 298:/usr/include/c++/7/bits/stl_iterator.h ****     inline _GLIBCXX17_CONSTEXPR bool
 299:/usr/include/c++/7/bits/stl_iterator.h ****     operator==(const reverse_iterator<_Iterator>& __x,
 300:/usr/include/c++/7/bits/stl_iterator.h **** 	       const reverse_iterator<_Iterator>& __y)
 301:/usr/include/c++/7/bits/stl_iterator.h ****     { return __x.base() == __y.base(); }
 302:/usr/include/c++/7/bits/stl_iterator.h **** 
 303:/usr/include/c++/7/bits/stl_iterator.h ****   template<typename _Iterator>
 304:/usr/include/c++/7/bits/stl_iterator.h ****     inline _GLIBCXX17_CONSTEXPR bool
 305:/usr/include/c++/7/bits/stl_iterator.h ****     operator<(const reverse_iterator<_Iterator>& __x,
 306:/usr/include/c++/7/bits/stl_iterator.h **** 	      const reverse_iterator<_Iterator>& __y)
 307:/usr/include/c++/7/bits/stl_iterator.h ****     { return __y.base() < __x.base(); }
 308:/usr/include/c++/7/bits/stl_iterator.h **** 
 309:/usr/include/c++/7/bits/stl_iterator.h ****   template<typename _Iterator>
 310:/usr/include/c++/7/bits/stl_iterator.h ****     inline _GLIBCXX17_CONSTEXPR bool
 311:/usr/include/c++/7/bits/stl_iterator.h ****     operator!=(const reverse_iterator<_Iterator>& __x,
 312:/usr/include/c++/7/bits/stl_iterator.h **** 	       const reverse_iterator<_Iterator>& __y)
 313:/usr/include/c++/7/bits/stl_iterator.h ****     { return !(__x == __y); }
 314:/usr/include/c++/7/bits/stl_iterator.h **** 
 315:/usr/include/c++/7/bits/stl_iterator.h ****   template<typename _Iterator>
 316:/usr/include/c++/7/bits/stl_iterator.h ****     inline _GLIBCXX17_CONSTEXPR bool
 317:/usr/include/c++/7/bits/stl_iterator.h ****     operator>(const reverse_iterator<_Iterator>& __x,
 318:/usr/include/c++/7/bits/stl_iterator.h **** 	      const reverse_iterator<_Iterator>& __y)
 319:/usr/include/c++/7/bits/stl_iterator.h ****     { return __y < __x; }
 320:/usr/include/c++/7/bits/stl_iterator.h **** 
 321:/usr/include/c++/7/bits/stl_iterator.h ****   template<typename _Iterator>
 322:/usr/include/c++/7/bits/stl_iterator.h ****     inline _GLIBCXX17_CONSTEXPR bool
 323:/usr/include/c++/7/bits/stl_iterator.h ****     operator<=(const reverse_iterator<_Iterator>& __x,
 324:/usr/include/c++/7/bits/stl_iterator.h **** 	       const reverse_iterator<_Iterator>& __y)
 325:/usr/include/c++/7/bits/stl_iterator.h ****     { return !(__y < __x); }
 326:/usr/include/c++/7/bits/stl_iterator.h **** 
 327:/usr/include/c++/7/bits/stl_iterator.h ****   template<typename _Iterator>
 328:/usr/include/c++/7/bits/stl_iterator.h ****     inline _GLIBCXX17_CONSTEXPR bool
 329:/usr/include/c++/7/bits/stl_iterator.h ****     operator>=(const reverse_iterator<_Iterator>& __x,
 330:/usr/include/c++/7/bits/stl_iterator.h **** 	       const reverse_iterator<_Iterator>& __y)
 331:/usr/include/c++/7/bits/stl_iterator.h ****     { return !(__x < __y); }
 332:/usr/include/c++/7/bits/stl_iterator.h **** 
 333:/usr/include/c++/7/bits/stl_iterator.h ****   // _GLIBCXX_RESOLVE_LIB_DEFECTS
 334:/usr/include/c++/7/bits/stl_iterator.h ****   // DR 280. Comparison of reverse_iterator to const reverse_iterator.
 335:/usr/include/c++/7/bits/stl_iterator.h ****   template<typename _IteratorL, typename _IteratorR>
 336:/usr/include/c++/7/bits/stl_iterator.h ****     inline _GLIBCXX17_CONSTEXPR bool
 337:/usr/include/c++/7/bits/stl_iterator.h ****     operator==(const reverse_iterator<_IteratorL>& __x,
 338:/usr/include/c++/7/bits/stl_iterator.h **** 	       const reverse_iterator<_IteratorR>& __y)
 339:/usr/include/c++/7/bits/stl_iterator.h ****     { return __x.base() == __y.base(); }
 340:/usr/include/c++/7/bits/stl_iterator.h **** 
 341:/usr/include/c++/7/bits/stl_iterator.h ****   template<typename _IteratorL, typename _IteratorR>
 342:/usr/include/c++/7/bits/stl_iterator.h ****     inline _GLIBCXX17_CONSTEXPR bool
 343:/usr/include/c++/7/bits/stl_iterator.h ****     operator<(const reverse_iterator<_IteratorL>& __x,
 344:/usr/include/c++/7/bits/stl_iterator.h **** 	      const reverse_iterator<_IteratorR>& __y)
 345:/usr/include/c++/7/bits/stl_iterator.h ****     { return __y.base() < __x.base(); }
 346:/usr/include/c++/7/bits/stl_iterator.h **** 
 347:/usr/include/c++/7/bits/stl_iterator.h ****   template<typename _IteratorL, typename _IteratorR>
 348:/usr/include/c++/7/bits/stl_iterator.h ****     inline _GLIBCXX17_CONSTEXPR bool
 349:/usr/include/c++/7/bits/stl_iterator.h ****     operator!=(const reverse_iterator<_IteratorL>& __x,
 350:/usr/include/c++/7/bits/stl_iterator.h **** 	       const reverse_iterator<_IteratorR>& __y)
 351:/usr/include/c++/7/bits/stl_iterator.h ****     { return !(__x == __y); }
 352:/usr/include/c++/7/bits/stl_iterator.h **** 
 353:/usr/include/c++/7/bits/stl_iterator.h ****   template<typename _IteratorL, typename _IteratorR>
 354:/usr/include/c++/7/bits/stl_iterator.h ****     inline _GLIBCXX17_CONSTEXPR bool
 355:/usr/include/c++/7/bits/stl_iterator.h ****     operator>(const reverse_iterator<_IteratorL>& __x,
 356:/usr/include/c++/7/bits/stl_iterator.h **** 	      const reverse_iterator<_IteratorR>& __y)
 357:/usr/include/c++/7/bits/stl_iterator.h ****     { return __y < __x; }
 358:/usr/include/c++/7/bits/stl_iterator.h **** 
 359:/usr/include/c++/7/bits/stl_iterator.h ****   template<typename _IteratorL, typename _IteratorR>
 360:/usr/include/c++/7/bits/stl_iterator.h ****     inline _GLIBCXX17_CONSTEXPR bool
 361:/usr/include/c++/7/bits/stl_iterator.h ****     operator<=(const reverse_iterator<_IteratorL>& __x,
 362:/usr/include/c++/7/bits/stl_iterator.h **** 	       const reverse_iterator<_IteratorR>& __y)
 363:/usr/include/c++/7/bits/stl_iterator.h ****     { return !(__y < __x); }
 364:/usr/include/c++/7/bits/stl_iterator.h **** 
 365:/usr/include/c++/7/bits/stl_iterator.h ****   template<typename _IteratorL, typename _IteratorR>
 366:/usr/include/c++/7/bits/stl_iterator.h ****     inline _GLIBCXX17_CONSTEXPR bool
 367:/usr/include/c++/7/bits/stl_iterator.h ****     operator>=(const reverse_iterator<_IteratorL>& __x,
 368:/usr/include/c++/7/bits/stl_iterator.h **** 	       const reverse_iterator<_IteratorR>& __y)
 369:/usr/include/c++/7/bits/stl_iterator.h ****     { return !(__x < __y); }
 370:/usr/include/c++/7/bits/stl_iterator.h ****   //@}
 371:/usr/include/c++/7/bits/stl_iterator.h **** 
 372:/usr/include/c++/7/bits/stl_iterator.h **** #if __cplusplus < 201103L
 373:/usr/include/c++/7/bits/stl_iterator.h ****   template<typename _Iterator>
 374:/usr/include/c++/7/bits/stl_iterator.h ****     inline typename reverse_iterator<_Iterator>::difference_type
 375:/usr/include/c++/7/bits/stl_iterator.h ****     operator-(const reverse_iterator<_Iterator>& __x,
 376:/usr/include/c++/7/bits/stl_iterator.h **** 	      const reverse_iterator<_Iterator>& __y)
 377:/usr/include/c++/7/bits/stl_iterator.h ****     { return __y.base() - __x.base(); }
 378:/usr/include/c++/7/bits/stl_iterator.h **** 
 379:/usr/include/c++/7/bits/stl_iterator.h ****   template<typename _IteratorL, typename _IteratorR>
 380:/usr/include/c++/7/bits/stl_iterator.h ****     inline typename reverse_iterator<_IteratorL>::difference_type
 381:/usr/include/c++/7/bits/stl_iterator.h ****     operator-(const reverse_iterator<_IteratorL>& __x,
 382:/usr/include/c++/7/bits/stl_iterator.h **** 	      const reverse_iterator<_IteratorR>& __y)
 383:/usr/include/c++/7/bits/stl_iterator.h ****     { return __y.base() - __x.base(); }
 384:/usr/include/c++/7/bits/stl_iterator.h **** #else
 385:/usr/include/c++/7/bits/stl_iterator.h ****   // _GLIBCXX_RESOLVE_LIB_DEFECTS
 386:/usr/include/c++/7/bits/stl_iterator.h ****   // DR 685. reverse_iterator/move_iterator difference has invalid signatures
 387:/usr/include/c++/7/bits/stl_iterator.h ****   template<typename _IteratorL, typename _IteratorR>
 388:/usr/include/c++/7/bits/stl_iterator.h ****     inline _GLIBCXX17_CONSTEXPR auto
 389:/usr/include/c++/7/bits/stl_iterator.h ****     operator-(const reverse_iterator<_IteratorL>& __x,
 390:/usr/include/c++/7/bits/stl_iterator.h **** 	      const reverse_iterator<_IteratorR>& __y)
 391:/usr/include/c++/7/bits/stl_iterator.h ****     -> decltype(__y.base() - __x.base())
 392:/usr/include/c++/7/bits/stl_iterator.h ****     { return __y.base() - __x.base(); }
 393:/usr/include/c++/7/bits/stl_iterator.h **** #endif
 394:/usr/include/c++/7/bits/stl_iterator.h **** 
 395:/usr/include/c++/7/bits/stl_iterator.h ****   template<typename _Iterator>
 396:/usr/include/c++/7/bits/stl_iterator.h ****     inline _GLIBCXX17_CONSTEXPR reverse_iterator<_Iterator>
 397:/usr/include/c++/7/bits/stl_iterator.h ****     operator+(typename reverse_iterator<_Iterator>::difference_type __n,
 398:/usr/include/c++/7/bits/stl_iterator.h **** 	      const reverse_iterator<_Iterator>& __x)
 399:/usr/include/c++/7/bits/stl_iterator.h ****     { return reverse_iterator<_Iterator>(__x.base() - __n); }
 400:/usr/include/c++/7/bits/stl_iterator.h **** 
 401:/usr/include/c++/7/bits/stl_iterator.h **** #if __cplusplus >= 201103L
 402:/usr/include/c++/7/bits/stl_iterator.h ****   // Same as C++14 make_reverse_iterator but used in C++03 mode too.
 403:/usr/include/c++/7/bits/stl_iterator.h ****   template<typename _Iterator>
 404:/usr/include/c++/7/bits/stl_iterator.h ****     inline _GLIBCXX17_CONSTEXPR reverse_iterator<_Iterator>
 405:/usr/include/c++/7/bits/stl_iterator.h ****     __make_reverse_iterator(_Iterator __i)
 406:/usr/include/c++/7/bits/stl_iterator.h ****     { return reverse_iterator<_Iterator>(__i); }
 407:/usr/include/c++/7/bits/stl_iterator.h **** 
 408:/usr/include/c++/7/bits/stl_iterator.h **** # if __cplusplus > 201103L
 409:/usr/include/c++/7/bits/stl_iterator.h **** #  define __cpp_lib_make_reverse_iterator 201402
 410:/usr/include/c++/7/bits/stl_iterator.h **** 
 411:/usr/include/c++/7/bits/stl_iterator.h ****   // _GLIBCXX_RESOLVE_LIB_DEFECTS
 412:/usr/include/c++/7/bits/stl_iterator.h ****   // DR 2285. make_reverse_iterator
 413:/usr/include/c++/7/bits/stl_iterator.h ****   /// Generator function for reverse_iterator.
 414:/usr/include/c++/7/bits/stl_iterator.h ****   template<typename _Iterator>
 415:/usr/include/c++/7/bits/stl_iterator.h ****     inline _GLIBCXX17_CONSTEXPR reverse_iterator<_Iterator>
 416:/usr/include/c++/7/bits/stl_iterator.h ****     make_reverse_iterator(_Iterator __i)
 417:/usr/include/c++/7/bits/stl_iterator.h ****     { return reverse_iterator<_Iterator>(__i); }
 418:/usr/include/c++/7/bits/stl_iterator.h **** # endif
 419:/usr/include/c++/7/bits/stl_iterator.h **** #endif
 420:/usr/include/c++/7/bits/stl_iterator.h **** 
 421:/usr/include/c++/7/bits/stl_iterator.h **** #if __cplusplus >= 201103L
 422:/usr/include/c++/7/bits/stl_iterator.h ****   template<typename _Iterator>
 423:/usr/include/c++/7/bits/stl_iterator.h ****     auto
 424:/usr/include/c++/7/bits/stl_iterator.h ****     __niter_base(reverse_iterator<_Iterator> __it)
 425:/usr/include/c++/7/bits/stl_iterator.h ****     -> decltype(__make_reverse_iterator(__niter_base(__it.base())))
 426:/usr/include/c++/7/bits/stl_iterator.h ****     { return __make_reverse_iterator(__niter_base(__it.base())); }
 427:/usr/include/c++/7/bits/stl_iterator.h **** 
 428:/usr/include/c++/7/bits/stl_iterator.h ****   template<typename _Iterator>
 429:/usr/include/c++/7/bits/stl_iterator.h ****     struct __is_move_iterator<reverse_iterator<_Iterator> >
 430:/usr/include/c++/7/bits/stl_iterator.h ****       : __is_move_iterator<_Iterator>
 431:/usr/include/c++/7/bits/stl_iterator.h ****     { };
 432:/usr/include/c++/7/bits/stl_iterator.h **** 
 433:/usr/include/c++/7/bits/stl_iterator.h ****   template<typename _Iterator>
 434:/usr/include/c++/7/bits/stl_iterator.h ****     auto
 435:/usr/include/c++/7/bits/stl_iterator.h ****     __miter_base(reverse_iterator<_Iterator> __it)
 436:/usr/include/c++/7/bits/stl_iterator.h ****     -> decltype(__make_reverse_iterator(__miter_base(__it.base())))
 437:/usr/include/c++/7/bits/stl_iterator.h ****     { return __make_reverse_iterator(__miter_base(__it.base())); }
 438:/usr/include/c++/7/bits/stl_iterator.h **** #endif
 439:/usr/include/c++/7/bits/stl_iterator.h **** 
 440:/usr/include/c++/7/bits/stl_iterator.h ****   // 24.4.2.2.1 back_insert_iterator
 441:/usr/include/c++/7/bits/stl_iterator.h ****   /**
 442:/usr/include/c++/7/bits/stl_iterator.h ****    *  @brief  Turns assignment into insertion.
 443:/usr/include/c++/7/bits/stl_iterator.h ****    *
 444:/usr/include/c++/7/bits/stl_iterator.h ****    *  These are output iterators, constructed from a container-of-T.
 445:/usr/include/c++/7/bits/stl_iterator.h ****    *  Assigning a T to the iterator appends it to the container using
 446:/usr/include/c++/7/bits/stl_iterator.h ****    *  push_back.
 447:/usr/include/c++/7/bits/stl_iterator.h ****    *
 448:/usr/include/c++/7/bits/stl_iterator.h ****    *  Tip:  Using the back_inserter function to create these iterators can
 449:/usr/include/c++/7/bits/stl_iterator.h ****    *  save typing.
 450:/usr/include/c++/7/bits/stl_iterator.h ****   */
 451:/usr/include/c++/7/bits/stl_iterator.h ****   template<typename _Container>
 452:/usr/include/c++/7/bits/stl_iterator.h ****     class back_insert_iterator
 453:/usr/include/c++/7/bits/stl_iterator.h ****     : public iterator<output_iterator_tag, void, void, void, void>
 454:/usr/include/c++/7/bits/stl_iterator.h ****     {
 455:/usr/include/c++/7/bits/stl_iterator.h ****     protected:
 456:/usr/include/c++/7/bits/stl_iterator.h ****       _Container* container;
 457:/usr/include/c++/7/bits/stl_iterator.h **** 
 458:/usr/include/c++/7/bits/stl_iterator.h ****     public:
 459:/usr/include/c++/7/bits/stl_iterator.h ****       /// A nested typedef for the type of whatever container you used.
 460:/usr/include/c++/7/bits/stl_iterator.h ****       typedef _Container          container_type;
 461:/usr/include/c++/7/bits/stl_iterator.h **** 
 462:/usr/include/c++/7/bits/stl_iterator.h ****       /// The only way to create this %iterator is with a container.
 463:/usr/include/c++/7/bits/stl_iterator.h ****       explicit
 464:/usr/include/c++/7/bits/stl_iterator.h ****       back_insert_iterator(_Container& __x)
 465:/usr/include/c++/7/bits/stl_iterator.h ****       : container(std::__addressof(__x)) { }
 466:/usr/include/c++/7/bits/stl_iterator.h **** 
 467:/usr/include/c++/7/bits/stl_iterator.h ****       /**
 468:/usr/include/c++/7/bits/stl_iterator.h ****        *  @param  __value  An instance of whatever type
 469:/usr/include/c++/7/bits/stl_iterator.h ****        *                 container_type::const_reference is; presumably a
 470:/usr/include/c++/7/bits/stl_iterator.h ****        *                 reference-to-const T for container<T>.
 471:/usr/include/c++/7/bits/stl_iterator.h ****        *  @return  This %iterator, for chained operations.
 472:/usr/include/c++/7/bits/stl_iterator.h ****        *
 473:/usr/include/c++/7/bits/stl_iterator.h ****        *  This kind of %iterator doesn't really have a @a position in the
 474:/usr/include/c++/7/bits/stl_iterator.h ****        *  container (you can think of the position as being permanently at
 475:/usr/include/c++/7/bits/stl_iterator.h ****        *  the end, if you like).  Assigning a value to the %iterator will
 476:/usr/include/c++/7/bits/stl_iterator.h ****        *  always append the value to the end of the container.
 477:/usr/include/c++/7/bits/stl_iterator.h ****       */
 478:/usr/include/c++/7/bits/stl_iterator.h **** #if __cplusplus < 201103L
 479:/usr/include/c++/7/bits/stl_iterator.h ****       back_insert_iterator&
 480:/usr/include/c++/7/bits/stl_iterator.h ****       operator=(typename _Container::const_reference __value)
 481:/usr/include/c++/7/bits/stl_iterator.h ****       {
 482:/usr/include/c++/7/bits/stl_iterator.h **** 	container->push_back(__value);
 483:/usr/include/c++/7/bits/stl_iterator.h **** 	return *this;
 484:/usr/include/c++/7/bits/stl_iterator.h ****       }
 485:/usr/include/c++/7/bits/stl_iterator.h **** #else
 486:/usr/include/c++/7/bits/stl_iterator.h ****       back_insert_iterator&
 487:/usr/include/c++/7/bits/stl_iterator.h ****       operator=(const typename _Container::value_type& __value)
 488:/usr/include/c++/7/bits/stl_iterator.h ****       {
 489:/usr/include/c++/7/bits/stl_iterator.h **** 	container->push_back(__value);
 490:/usr/include/c++/7/bits/stl_iterator.h **** 	return *this;
 491:/usr/include/c++/7/bits/stl_iterator.h ****       }
 492:/usr/include/c++/7/bits/stl_iterator.h **** 
 493:/usr/include/c++/7/bits/stl_iterator.h ****       back_insert_iterator&
 494:/usr/include/c++/7/bits/stl_iterator.h ****       operator=(typename _Container::value_type&& __value)
 495:/usr/include/c++/7/bits/stl_iterator.h ****       {
 496:/usr/include/c++/7/bits/stl_iterator.h **** 	container->push_back(std::move(__value));
 497:/usr/include/c++/7/bits/stl_iterator.h **** 	return *this;
 498:/usr/include/c++/7/bits/stl_iterator.h ****       }
 499:/usr/include/c++/7/bits/stl_iterator.h **** #endif
 500:/usr/include/c++/7/bits/stl_iterator.h **** 
 501:/usr/include/c++/7/bits/stl_iterator.h ****       /// Simply returns *this.
 502:/usr/include/c++/7/bits/stl_iterator.h ****       back_insert_iterator&
 503:/usr/include/c++/7/bits/stl_iterator.h ****       operator*()
 504:/usr/include/c++/7/bits/stl_iterator.h ****       { return *this; }
 505:/usr/include/c++/7/bits/stl_iterator.h **** 
 506:/usr/include/c++/7/bits/stl_iterator.h ****       /// Simply returns *this.  (This %iterator does not @a move.)
 507:/usr/include/c++/7/bits/stl_iterator.h ****       back_insert_iterator&
 508:/usr/include/c++/7/bits/stl_iterator.h ****       operator++()
 509:/usr/include/c++/7/bits/stl_iterator.h ****       { return *this; }
 510:/usr/include/c++/7/bits/stl_iterator.h **** 
 511:/usr/include/c++/7/bits/stl_iterator.h ****       /// Simply returns *this.  (This %iterator does not @a move.)
 512:/usr/include/c++/7/bits/stl_iterator.h ****       back_insert_iterator
 513:/usr/include/c++/7/bits/stl_iterator.h ****       operator++(int)
 514:/usr/include/c++/7/bits/stl_iterator.h ****       { return *this; }
 515:/usr/include/c++/7/bits/stl_iterator.h ****     };
 516:/usr/include/c++/7/bits/stl_iterator.h **** 
 517:/usr/include/c++/7/bits/stl_iterator.h ****   /**
 518:/usr/include/c++/7/bits/stl_iterator.h ****    *  @param  __x  A container of arbitrary type.
 519:/usr/include/c++/7/bits/stl_iterator.h ****    *  @return  An instance of back_insert_iterator working on @p __x.
 520:/usr/include/c++/7/bits/stl_iterator.h ****    *
 521:/usr/include/c++/7/bits/stl_iterator.h ****    *  This wrapper function helps in creating back_insert_iterator instances.
 522:/usr/include/c++/7/bits/stl_iterator.h ****    *  Typing the name of the %iterator requires knowing the precise full
 523:/usr/include/c++/7/bits/stl_iterator.h ****    *  type of the container, which can be tedious and impedes generic
 524:/usr/include/c++/7/bits/stl_iterator.h ****    *  programming.  Using this function lets you take advantage of automatic
 525:/usr/include/c++/7/bits/stl_iterator.h ****    *  template parameter deduction, making the compiler match the correct
 526:/usr/include/c++/7/bits/stl_iterator.h ****    *  types for you.
 527:/usr/include/c++/7/bits/stl_iterator.h ****   */
 528:/usr/include/c++/7/bits/stl_iterator.h ****   template<typename _Container>
 529:/usr/include/c++/7/bits/stl_iterator.h ****     inline back_insert_iterator<_Container>
 530:/usr/include/c++/7/bits/stl_iterator.h ****     back_inserter(_Container& __x)
 531:/usr/include/c++/7/bits/stl_iterator.h ****     { return back_insert_iterator<_Container>(__x); }
 532:/usr/include/c++/7/bits/stl_iterator.h **** 
 533:/usr/include/c++/7/bits/stl_iterator.h ****   /**
 534:/usr/include/c++/7/bits/stl_iterator.h ****    *  @brief  Turns assignment into insertion.
 535:/usr/include/c++/7/bits/stl_iterator.h ****    *
 536:/usr/include/c++/7/bits/stl_iterator.h ****    *  These are output iterators, constructed from a container-of-T.
 537:/usr/include/c++/7/bits/stl_iterator.h ****    *  Assigning a T to the iterator prepends it to the container using
 538:/usr/include/c++/7/bits/stl_iterator.h ****    *  push_front.
 539:/usr/include/c++/7/bits/stl_iterator.h ****    *
 540:/usr/include/c++/7/bits/stl_iterator.h ****    *  Tip:  Using the front_inserter function to create these iterators can
 541:/usr/include/c++/7/bits/stl_iterator.h ****    *  save typing.
 542:/usr/include/c++/7/bits/stl_iterator.h ****   */
 543:/usr/include/c++/7/bits/stl_iterator.h ****   template<typename _Container>
 544:/usr/include/c++/7/bits/stl_iterator.h ****     class front_insert_iterator
 545:/usr/include/c++/7/bits/stl_iterator.h ****     : public iterator<output_iterator_tag, void, void, void, void>
 546:/usr/include/c++/7/bits/stl_iterator.h ****     {
 547:/usr/include/c++/7/bits/stl_iterator.h ****     protected:
 548:/usr/include/c++/7/bits/stl_iterator.h ****       _Container* container;
 549:/usr/include/c++/7/bits/stl_iterator.h **** 
 550:/usr/include/c++/7/bits/stl_iterator.h ****     public:
 551:/usr/include/c++/7/bits/stl_iterator.h ****       /// A nested typedef for the type of whatever container you used.
 552:/usr/include/c++/7/bits/stl_iterator.h ****       typedef _Container          container_type;
 553:/usr/include/c++/7/bits/stl_iterator.h **** 
 554:/usr/include/c++/7/bits/stl_iterator.h ****       /// The only way to create this %iterator is with a container.
 555:/usr/include/c++/7/bits/stl_iterator.h ****       explicit front_insert_iterator(_Container& __x)
 556:/usr/include/c++/7/bits/stl_iterator.h ****       : container(std::__addressof(__x)) { }
 557:/usr/include/c++/7/bits/stl_iterator.h **** 
 558:/usr/include/c++/7/bits/stl_iterator.h ****       /**
 559:/usr/include/c++/7/bits/stl_iterator.h ****        *  @param  __value  An instance of whatever type
 560:/usr/include/c++/7/bits/stl_iterator.h ****        *                 container_type::const_reference is; presumably a
 561:/usr/include/c++/7/bits/stl_iterator.h ****        *                 reference-to-const T for container<T>.
 562:/usr/include/c++/7/bits/stl_iterator.h ****        *  @return  This %iterator, for chained operations.
 563:/usr/include/c++/7/bits/stl_iterator.h ****        *
 564:/usr/include/c++/7/bits/stl_iterator.h ****        *  This kind of %iterator doesn't really have a @a position in the
 565:/usr/include/c++/7/bits/stl_iterator.h ****        *  container (you can think of the position as being permanently at
 566:/usr/include/c++/7/bits/stl_iterator.h ****        *  the front, if you like).  Assigning a value to the %iterator will
 567:/usr/include/c++/7/bits/stl_iterator.h ****        *  always prepend the value to the front of the container.
 568:/usr/include/c++/7/bits/stl_iterator.h ****       */
 569:/usr/include/c++/7/bits/stl_iterator.h **** #if __cplusplus < 201103L
 570:/usr/include/c++/7/bits/stl_iterator.h ****       front_insert_iterator&
 571:/usr/include/c++/7/bits/stl_iterator.h ****       operator=(typename _Container::const_reference __value)
 572:/usr/include/c++/7/bits/stl_iterator.h ****       {
 573:/usr/include/c++/7/bits/stl_iterator.h **** 	container->push_front(__value);
 574:/usr/include/c++/7/bits/stl_iterator.h **** 	return *this;
 575:/usr/include/c++/7/bits/stl_iterator.h ****       }
 576:/usr/include/c++/7/bits/stl_iterator.h **** #else
 577:/usr/include/c++/7/bits/stl_iterator.h ****       front_insert_iterator&
 578:/usr/include/c++/7/bits/stl_iterator.h ****       operator=(const typename _Container::value_type& __value)
 579:/usr/include/c++/7/bits/stl_iterator.h ****       {
 580:/usr/include/c++/7/bits/stl_iterator.h **** 	container->push_front(__value);
 581:/usr/include/c++/7/bits/stl_iterator.h **** 	return *this;
 582:/usr/include/c++/7/bits/stl_iterator.h ****       }
 583:/usr/include/c++/7/bits/stl_iterator.h **** 
 584:/usr/include/c++/7/bits/stl_iterator.h ****       front_insert_iterator&
 585:/usr/include/c++/7/bits/stl_iterator.h ****       operator=(typename _Container::value_type&& __value)
 586:/usr/include/c++/7/bits/stl_iterator.h ****       {
 587:/usr/include/c++/7/bits/stl_iterator.h **** 	container->push_front(std::move(__value));
 588:/usr/include/c++/7/bits/stl_iterator.h **** 	return *this;
 589:/usr/include/c++/7/bits/stl_iterator.h ****       }
 590:/usr/include/c++/7/bits/stl_iterator.h **** #endif
 591:/usr/include/c++/7/bits/stl_iterator.h **** 
 592:/usr/include/c++/7/bits/stl_iterator.h ****       /// Simply returns *this.
 593:/usr/include/c++/7/bits/stl_iterator.h ****       front_insert_iterator&
 594:/usr/include/c++/7/bits/stl_iterator.h ****       operator*()
 595:/usr/include/c++/7/bits/stl_iterator.h ****       { return *this; }
 596:/usr/include/c++/7/bits/stl_iterator.h **** 
 597:/usr/include/c++/7/bits/stl_iterator.h ****       /// Simply returns *this.  (This %iterator does not @a move.)
 598:/usr/include/c++/7/bits/stl_iterator.h ****       front_insert_iterator&
 599:/usr/include/c++/7/bits/stl_iterator.h ****       operator++()
 600:/usr/include/c++/7/bits/stl_iterator.h ****       { return *this; }
 601:/usr/include/c++/7/bits/stl_iterator.h **** 
 602:/usr/include/c++/7/bits/stl_iterator.h ****       /// Simply returns *this.  (This %iterator does not @a move.)
 603:/usr/include/c++/7/bits/stl_iterator.h ****       front_insert_iterator
 604:/usr/include/c++/7/bits/stl_iterator.h ****       operator++(int)
 605:/usr/include/c++/7/bits/stl_iterator.h ****       { return *this; }
 606:/usr/include/c++/7/bits/stl_iterator.h ****     };
 607:/usr/include/c++/7/bits/stl_iterator.h **** 
 608:/usr/include/c++/7/bits/stl_iterator.h ****   /**
 609:/usr/include/c++/7/bits/stl_iterator.h ****    *  @param  __x  A container of arbitrary type.
 610:/usr/include/c++/7/bits/stl_iterator.h ****    *  @return  An instance of front_insert_iterator working on @p x.
 611:/usr/include/c++/7/bits/stl_iterator.h ****    *
 612:/usr/include/c++/7/bits/stl_iterator.h ****    *  This wrapper function helps in creating front_insert_iterator instances.
 613:/usr/include/c++/7/bits/stl_iterator.h ****    *  Typing the name of the %iterator requires knowing the precise full
 614:/usr/include/c++/7/bits/stl_iterator.h ****    *  type of the container, which can be tedious and impedes generic
 615:/usr/include/c++/7/bits/stl_iterator.h ****    *  programming.  Using this function lets you take advantage of automatic
 616:/usr/include/c++/7/bits/stl_iterator.h ****    *  template parameter deduction, making the compiler match the correct
 617:/usr/include/c++/7/bits/stl_iterator.h ****    *  types for you.
 618:/usr/include/c++/7/bits/stl_iterator.h ****   */
 619:/usr/include/c++/7/bits/stl_iterator.h ****   template<typename _Container>
 620:/usr/include/c++/7/bits/stl_iterator.h ****     inline front_insert_iterator<_Container>
 621:/usr/include/c++/7/bits/stl_iterator.h ****     front_inserter(_Container& __x)
 622:/usr/include/c++/7/bits/stl_iterator.h ****     { return front_insert_iterator<_Container>(__x); }
 623:/usr/include/c++/7/bits/stl_iterator.h **** 
 624:/usr/include/c++/7/bits/stl_iterator.h ****   /**
 625:/usr/include/c++/7/bits/stl_iterator.h ****    *  @brief  Turns assignment into insertion.
 626:/usr/include/c++/7/bits/stl_iterator.h ****    *
 627:/usr/include/c++/7/bits/stl_iterator.h ****    *  These are output iterators, constructed from a container-of-T.
 628:/usr/include/c++/7/bits/stl_iterator.h ****    *  Assigning a T to the iterator inserts it in the container at the
 629:/usr/include/c++/7/bits/stl_iterator.h ****    *  %iterator's position, rather than overwriting the value at that
 630:/usr/include/c++/7/bits/stl_iterator.h ****    *  position.
 631:/usr/include/c++/7/bits/stl_iterator.h ****    *
 632:/usr/include/c++/7/bits/stl_iterator.h ****    *  (Sequences will actually insert a @e copy of the value before the
 633:/usr/include/c++/7/bits/stl_iterator.h ****    *  %iterator's position.)
 634:/usr/include/c++/7/bits/stl_iterator.h ****    *
 635:/usr/include/c++/7/bits/stl_iterator.h ****    *  Tip:  Using the inserter function to create these iterators can
 636:/usr/include/c++/7/bits/stl_iterator.h ****    *  save typing.
 637:/usr/include/c++/7/bits/stl_iterator.h ****   */
 638:/usr/include/c++/7/bits/stl_iterator.h ****   template<typename _Container>
 639:/usr/include/c++/7/bits/stl_iterator.h ****     class insert_iterator
 640:/usr/include/c++/7/bits/stl_iterator.h ****     : public iterator<output_iterator_tag, void, void, void, void>
 641:/usr/include/c++/7/bits/stl_iterator.h ****     {
 642:/usr/include/c++/7/bits/stl_iterator.h ****     protected:
 643:/usr/include/c++/7/bits/stl_iterator.h ****       _Container* container;
 644:/usr/include/c++/7/bits/stl_iterator.h ****       typename _Container::iterator iter;
 645:/usr/include/c++/7/bits/stl_iterator.h **** 
 646:/usr/include/c++/7/bits/stl_iterator.h ****     public:
 647:/usr/include/c++/7/bits/stl_iterator.h ****       /// A nested typedef for the type of whatever container you used.
 648:/usr/include/c++/7/bits/stl_iterator.h ****       typedef _Container          container_type;
 649:/usr/include/c++/7/bits/stl_iterator.h **** 
 650:/usr/include/c++/7/bits/stl_iterator.h ****       /**
 651:/usr/include/c++/7/bits/stl_iterator.h ****        *  The only way to create this %iterator is with a container and an
 652:/usr/include/c++/7/bits/stl_iterator.h ****        *  initial position (a normal %iterator into the container).
 653:/usr/include/c++/7/bits/stl_iterator.h ****       */
 654:/usr/include/c++/7/bits/stl_iterator.h ****       insert_iterator(_Container& __x, typename _Container::iterator __i)
 655:/usr/include/c++/7/bits/stl_iterator.h ****       : container(std::__addressof(__x)), iter(__i) {}
 656:/usr/include/c++/7/bits/stl_iterator.h **** 
 657:/usr/include/c++/7/bits/stl_iterator.h ****       /**
 658:/usr/include/c++/7/bits/stl_iterator.h ****        *  @param  __value  An instance of whatever type
 659:/usr/include/c++/7/bits/stl_iterator.h ****        *                 container_type::const_reference is; presumably a
 660:/usr/include/c++/7/bits/stl_iterator.h ****        *                 reference-to-const T for container<T>.
 661:/usr/include/c++/7/bits/stl_iterator.h ****        *  @return  This %iterator, for chained operations.
 662:/usr/include/c++/7/bits/stl_iterator.h ****        *
 663:/usr/include/c++/7/bits/stl_iterator.h ****        *  This kind of %iterator maintains its own position in the
 664:/usr/include/c++/7/bits/stl_iterator.h ****        *  container.  Assigning a value to the %iterator will insert the
 665:/usr/include/c++/7/bits/stl_iterator.h ****        *  value into the container at the place before the %iterator.
 666:/usr/include/c++/7/bits/stl_iterator.h ****        *
 667:/usr/include/c++/7/bits/stl_iterator.h ****        *  The position is maintained such that subsequent assignments will
 668:/usr/include/c++/7/bits/stl_iterator.h ****        *  insert values immediately after one another.  For example,
 669:/usr/include/c++/7/bits/stl_iterator.h ****        *  @code
 670:/usr/include/c++/7/bits/stl_iterator.h ****        *     // vector v contains A and Z
 671:/usr/include/c++/7/bits/stl_iterator.h ****        *
 672:/usr/include/c++/7/bits/stl_iterator.h ****        *     insert_iterator i (v, ++v.begin());
 673:/usr/include/c++/7/bits/stl_iterator.h ****        *     i = 1;
 674:/usr/include/c++/7/bits/stl_iterator.h ****        *     i = 2;
 675:/usr/include/c++/7/bits/stl_iterator.h ****        *     i = 3;
 676:/usr/include/c++/7/bits/stl_iterator.h ****        *
 677:/usr/include/c++/7/bits/stl_iterator.h ****        *     // vector v contains A, 1, 2, 3, and Z
 678:/usr/include/c++/7/bits/stl_iterator.h ****        *  @endcode
 679:/usr/include/c++/7/bits/stl_iterator.h ****       */
 680:/usr/include/c++/7/bits/stl_iterator.h **** #if __cplusplus < 201103L
 681:/usr/include/c++/7/bits/stl_iterator.h ****       insert_iterator&
 682:/usr/include/c++/7/bits/stl_iterator.h ****       operator=(typename _Container::const_reference __value)
 683:/usr/include/c++/7/bits/stl_iterator.h ****       {
 684:/usr/include/c++/7/bits/stl_iterator.h **** 	iter = container->insert(iter, __value);
 685:/usr/include/c++/7/bits/stl_iterator.h **** 	++iter;
 686:/usr/include/c++/7/bits/stl_iterator.h **** 	return *this;
 687:/usr/include/c++/7/bits/stl_iterator.h ****       }
 688:/usr/include/c++/7/bits/stl_iterator.h **** #else
 689:/usr/include/c++/7/bits/stl_iterator.h ****       insert_iterator&
 690:/usr/include/c++/7/bits/stl_iterator.h ****       operator=(const typename _Container::value_type& __value)
 691:/usr/include/c++/7/bits/stl_iterator.h ****       {
 692:/usr/include/c++/7/bits/stl_iterator.h **** 	iter = container->insert(iter, __value);
 693:/usr/include/c++/7/bits/stl_iterator.h **** 	++iter;
 694:/usr/include/c++/7/bits/stl_iterator.h **** 	return *this;
 695:/usr/include/c++/7/bits/stl_iterator.h ****       }
 696:/usr/include/c++/7/bits/stl_iterator.h **** 
 697:/usr/include/c++/7/bits/stl_iterator.h ****       insert_iterator&
 698:/usr/include/c++/7/bits/stl_iterator.h ****       operator=(typename _Container::value_type&& __value)
 699:/usr/include/c++/7/bits/stl_iterator.h ****       {
 700:/usr/include/c++/7/bits/stl_iterator.h **** 	iter = container->insert(iter, std::move(__value));
 701:/usr/include/c++/7/bits/stl_iterator.h **** 	++iter;
 702:/usr/include/c++/7/bits/stl_iterator.h **** 	return *this;
 703:/usr/include/c++/7/bits/stl_iterator.h ****       }
 704:/usr/include/c++/7/bits/stl_iterator.h **** #endif
 705:/usr/include/c++/7/bits/stl_iterator.h **** 
 706:/usr/include/c++/7/bits/stl_iterator.h ****       /// Simply returns *this.
 707:/usr/include/c++/7/bits/stl_iterator.h ****       insert_iterator&
 708:/usr/include/c++/7/bits/stl_iterator.h ****       operator*()
 709:/usr/include/c++/7/bits/stl_iterator.h ****       { return *this; }
 710:/usr/include/c++/7/bits/stl_iterator.h **** 
 711:/usr/include/c++/7/bits/stl_iterator.h ****       /// Simply returns *this.  (This %iterator does not @a move.)
 712:/usr/include/c++/7/bits/stl_iterator.h ****       insert_iterator&
 713:/usr/include/c++/7/bits/stl_iterator.h ****       operator++()
 714:/usr/include/c++/7/bits/stl_iterator.h ****       { return *this; }
 715:/usr/include/c++/7/bits/stl_iterator.h **** 
 716:/usr/include/c++/7/bits/stl_iterator.h ****       /// Simply returns *this.  (This %iterator does not @a move.)
 717:/usr/include/c++/7/bits/stl_iterator.h ****       insert_iterator&
 718:/usr/include/c++/7/bits/stl_iterator.h ****       operator++(int)
 719:/usr/include/c++/7/bits/stl_iterator.h ****       { return *this; }
 720:/usr/include/c++/7/bits/stl_iterator.h ****     };
 721:/usr/include/c++/7/bits/stl_iterator.h **** 
 722:/usr/include/c++/7/bits/stl_iterator.h ****   /**
 723:/usr/include/c++/7/bits/stl_iterator.h ****    *  @param __x  A container of arbitrary type.
 724:/usr/include/c++/7/bits/stl_iterator.h ****    *  @return  An instance of insert_iterator working on @p __x.
 725:/usr/include/c++/7/bits/stl_iterator.h ****    *
 726:/usr/include/c++/7/bits/stl_iterator.h ****    *  This wrapper function helps in creating insert_iterator instances.
 727:/usr/include/c++/7/bits/stl_iterator.h ****    *  Typing the name of the %iterator requires knowing the precise full
 728:/usr/include/c++/7/bits/stl_iterator.h ****    *  type of the container, which can be tedious and impedes generic
 729:/usr/include/c++/7/bits/stl_iterator.h ****    *  programming.  Using this function lets you take advantage of automatic
 730:/usr/include/c++/7/bits/stl_iterator.h ****    *  template parameter deduction, making the compiler match the correct
 731:/usr/include/c++/7/bits/stl_iterator.h ****    *  types for you.
 732:/usr/include/c++/7/bits/stl_iterator.h ****   */
 733:/usr/include/c++/7/bits/stl_iterator.h ****   template<typename _Container, typename _Iterator>
 734:/usr/include/c++/7/bits/stl_iterator.h ****     inline insert_iterator<_Container>
 735:/usr/include/c++/7/bits/stl_iterator.h ****     inserter(_Container& __x, _Iterator __i)
 736:/usr/include/c++/7/bits/stl_iterator.h ****     {
 737:/usr/include/c++/7/bits/stl_iterator.h ****       return insert_iterator<_Container>(__x,
 738:/usr/include/c++/7/bits/stl_iterator.h **** 					 typename _Container::iterator(__i));
 739:/usr/include/c++/7/bits/stl_iterator.h ****     }
 740:/usr/include/c++/7/bits/stl_iterator.h **** 
 741:/usr/include/c++/7/bits/stl_iterator.h ****   // @} group iterators
 742:/usr/include/c++/7/bits/stl_iterator.h **** 
 743:/usr/include/c++/7/bits/stl_iterator.h **** _GLIBCXX_END_NAMESPACE_VERSION
 744:/usr/include/c++/7/bits/stl_iterator.h **** } // namespace
 745:/usr/include/c++/7/bits/stl_iterator.h **** 
 746:/usr/include/c++/7/bits/stl_iterator.h **** namespace __gnu_cxx _GLIBCXX_VISIBILITY(default)
 747:/usr/include/c++/7/bits/stl_iterator.h **** {
 748:/usr/include/c++/7/bits/stl_iterator.h **** _GLIBCXX_BEGIN_NAMESPACE_VERSION
 749:/usr/include/c++/7/bits/stl_iterator.h **** 
 750:/usr/include/c++/7/bits/stl_iterator.h ****   // This iterator adapter is @a normal in the sense that it does not
 751:/usr/include/c++/7/bits/stl_iterator.h ****   // change the semantics of any of the operators of its iterator
 752:/usr/include/c++/7/bits/stl_iterator.h ****   // parameter.  Its primary purpose is to convert an iterator that is
 753:/usr/include/c++/7/bits/stl_iterator.h ****   // not a class, e.g. a pointer, into an iterator that is a class.
 754:/usr/include/c++/7/bits/stl_iterator.h ****   // The _Container parameter exists solely so that different containers
 755:/usr/include/c++/7/bits/stl_iterator.h ****   // using this template can instantiate different types, even if the
 756:/usr/include/c++/7/bits/stl_iterator.h ****   // _Iterator parameter is the same.
 757:/usr/include/c++/7/bits/stl_iterator.h ****   using std::iterator_traits;
 758:/usr/include/c++/7/bits/stl_iterator.h ****   using std::iterator;
 759:/usr/include/c++/7/bits/stl_iterator.h ****   template<typename _Iterator, typename _Container>
 760:/usr/include/c++/7/bits/stl_iterator.h ****     class __normal_iterator
 761:/usr/include/c++/7/bits/stl_iterator.h ****     {
 762:/usr/include/c++/7/bits/stl_iterator.h ****     protected:
 763:/usr/include/c++/7/bits/stl_iterator.h ****       _Iterator _M_current;
 764:/usr/include/c++/7/bits/stl_iterator.h **** 
 765:/usr/include/c++/7/bits/stl_iterator.h ****       typedef iterator_traits<_Iterator>		__traits_type;
 766:/usr/include/c++/7/bits/stl_iterator.h **** 
 767:/usr/include/c++/7/bits/stl_iterator.h ****     public:
 768:/usr/include/c++/7/bits/stl_iterator.h ****       typedef _Iterator					iterator_type;
 769:/usr/include/c++/7/bits/stl_iterator.h ****       typedef typename __traits_type::iterator_category iterator_category;
 770:/usr/include/c++/7/bits/stl_iterator.h ****       typedef typename __traits_type::value_type  	value_type;
 771:/usr/include/c++/7/bits/stl_iterator.h ****       typedef typename __traits_type::difference_type 	difference_type;
 772:/usr/include/c++/7/bits/stl_iterator.h ****       typedef typename __traits_type::reference 	reference;
 773:/usr/include/c++/7/bits/stl_iterator.h ****       typedef typename __traits_type::pointer   	pointer;
 774:/usr/include/c++/7/bits/stl_iterator.h **** 
 775:/usr/include/c++/7/bits/stl_iterator.h ****       _GLIBCXX_CONSTEXPR __normal_iterator() _GLIBCXX_NOEXCEPT
 776:/usr/include/c++/7/bits/stl_iterator.h ****       : _M_current(_Iterator()) { }
 777:/usr/include/c++/7/bits/stl_iterator.h **** 
 778:/usr/include/c++/7/bits/stl_iterator.h ****       explicit
 779:/usr/include/c++/7/bits/stl_iterator.h ****       __normal_iterator(const _Iterator& __i) _GLIBCXX_NOEXCEPT
 780:/usr/include/c++/7/bits/stl_iterator.h ****       : _M_current(__i) { }
 781:/usr/include/c++/7/bits/stl_iterator.h **** 
 782:/usr/include/c++/7/bits/stl_iterator.h ****       // Allow iterator to const_iterator conversion
 783:/usr/include/c++/7/bits/stl_iterator.h ****       template<typename _Iter>
 784:/usr/include/c++/7/bits/stl_iterator.h ****         __normal_iterator(const __normal_iterator<_Iter,
 785:/usr/include/c++/7/bits/stl_iterator.h **** 			  typename __enable_if<
 786:/usr/include/c++/7/bits/stl_iterator.h ****       	       (std::__are_same<_Iter, typename _Container::pointer>::__value),
 787:/usr/include/c++/7/bits/stl_iterator.h **** 		      _Container>::__type>& __i) _GLIBCXX_NOEXCEPT
 788:/usr/include/c++/7/bits/stl_iterator.h ****         : _M_current(__i.base()) { }
 789:/usr/include/c++/7/bits/stl_iterator.h **** 
 790:/usr/include/c++/7/bits/stl_iterator.h ****       // Forward iterator requirements
 791:/usr/include/c++/7/bits/stl_iterator.h ****       reference
 792:/usr/include/c++/7/bits/stl_iterator.h ****       operator*() const _GLIBCXX_NOEXCEPT
 793:/usr/include/c++/7/bits/stl_iterator.h ****       { return *_M_current; }
 794:/usr/include/c++/7/bits/stl_iterator.h **** 
 795:/usr/include/c++/7/bits/stl_iterator.h ****       pointer
 796:/usr/include/c++/7/bits/stl_iterator.h ****       operator->() const _GLIBCXX_NOEXCEPT
 797:/usr/include/c++/7/bits/stl_iterator.h ****       { return _M_current; }
 798:/usr/include/c++/7/bits/stl_iterator.h **** 
 799:/usr/include/c++/7/bits/stl_iterator.h ****       __normal_iterator&
 800:/usr/include/c++/7/bits/stl_iterator.h ****       operator++() _GLIBCXX_NOEXCEPT
 801:/usr/include/c++/7/bits/stl_iterator.h ****       {
 802:/usr/include/c++/7/bits/stl_iterator.h **** 	++_M_current;
 803:/usr/include/c++/7/bits/stl_iterator.h **** 	return *this;
 804:/usr/include/c++/7/bits/stl_iterator.h ****       }
 805:/usr/include/c++/7/bits/stl_iterator.h **** 
 806:/usr/include/c++/7/bits/stl_iterator.h ****       __normal_iterator
 807:/usr/include/c++/7/bits/stl_iterator.h ****       operator++(int) _GLIBCXX_NOEXCEPT
 808:/usr/include/c++/7/bits/stl_iterator.h ****       { return __normal_iterator(_M_current++); }
 809:/usr/include/c++/7/bits/stl_iterator.h **** 
 810:/usr/include/c++/7/bits/stl_iterator.h ****       // Bidirectional iterator requirements
 811:/usr/include/c++/7/bits/stl_iterator.h ****       __normal_iterator&
 812:/usr/include/c++/7/bits/stl_iterator.h ****       operator--() _GLIBCXX_NOEXCEPT
 813:/usr/include/c++/7/bits/stl_iterator.h ****       {
 814:/usr/include/c++/7/bits/stl_iterator.h **** 	--_M_current;
 815:/usr/include/c++/7/bits/stl_iterator.h **** 	return *this;
 816:/usr/include/c++/7/bits/stl_iterator.h ****       }
 817:/usr/include/c++/7/bits/stl_iterator.h **** 
 818:/usr/include/c++/7/bits/stl_iterator.h ****       __normal_iterator
 819:/usr/include/c++/7/bits/stl_iterator.h ****       operator--(int) _GLIBCXX_NOEXCEPT
 820:/usr/include/c++/7/bits/stl_iterator.h ****       { return __normal_iterator(_M_current--); }
 821:/usr/include/c++/7/bits/stl_iterator.h **** 
 822:/usr/include/c++/7/bits/stl_iterator.h ****       // Random access iterator requirements
 823:/usr/include/c++/7/bits/stl_iterator.h ****       reference
 824:/usr/include/c++/7/bits/stl_iterator.h ****       operator[](difference_type __n) const _GLIBCXX_NOEXCEPT
 825:/usr/include/c++/7/bits/stl_iterator.h ****       { return _M_current[__n]; }
 826:/usr/include/c++/7/bits/stl_iterator.h **** 
 827:/usr/include/c++/7/bits/stl_iterator.h ****       __normal_iterator&
 828:/usr/include/c++/7/bits/stl_iterator.h ****       operator+=(difference_type __n) _GLIBCXX_NOEXCEPT
 829:/usr/include/c++/7/bits/stl_iterator.h ****       { _M_current += __n; return *this; }
 830:/usr/include/c++/7/bits/stl_iterator.h **** 
 831:/usr/include/c++/7/bits/stl_iterator.h ****       __normal_iterator
 832:/usr/include/c++/7/bits/stl_iterator.h ****       operator+(difference_type __n) const _GLIBCXX_NOEXCEPT
 833:/usr/include/c++/7/bits/stl_iterator.h ****       { return __normal_iterator(_M_current + __n); }
 834:/usr/include/c++/7/bits/stl_iterator.h **** 
 835:/usr/include/c++/7/bits/stl_iterator.h ****       __normal_iterator&
 836:/usr/include/c++/7/bits/stl_iterator.h ****       operator-=(difference_type __n) _GLIBCXX_NOEXCEPT
 837:/usr/include/c++/7/bits/stl_iterator.h ****       { _M_current -= __n; return *this; }
 838:/usr/include/c++/7/bits/stl_iterator.h **** 
 839:/usr/include/c++/7/bits/stl_iterator.h ****       __normal_iterator
 840:/usr/include/c++/7/bits/stl_iterator.h ****       operator-(difference_type __n) const _GLIBCXX_NOEXCEPT
 841:/usr/include/c++/7/bits/stl_iterator.h ****       { return __normal_iterator(_M_current - __n); }
 842:/usr/include/c++/7/bits/stl_iterator.h **** 
 843:/usr/include/c++/7/bits/stl_iterator.h ****       const _Iterator&
 844:/usr/include/c++/7/bits/stl_iterator.h ****       base() const _GLIBCXX_NOEXCEPT
 845:/usr/include/c++/7/bits/stl_iterator.h ****       { return _M_current; }
 846:/usr/include/c++/7/bits/stl_iterator.h ****     };
 847:/usr/include/c++/7/bits/stl_iterator.h **** 
 848:/usr/include/c++/7/bits/stl_iterator.h ****   // Note: In what follows, the left- and right-hand-side iterators are
 849:/usr/include/c++/7/bits/stl_iterator.h ****   // allowed to vary in types (conceptually in cv-qualification) so that
 850:/usr/include/c++/7/bits/stl_iterator.h ****   // comparison between cv-qualified and non-cv-qualified iterators be
 851:/usr/include/c++/7/bits/stl_iterator.h ****   // valid.  However, the greedy and unfriendly operators in std::rel_ops
 852:/usr/include/c++/7/bits/stl_iterator.h ****   // will make overload resolution ambiguous (when in scope) if we don't
 853:/usr/include/c++/7/bits/stl_iterator.h ****   // provide overloads whose operands are of the same type.  Can someone
 854:/usr/include/c++/7/bits/stl_iterator.h ****   // remind me what generic programming is about? -- Gaby
 855:/usr/include/c++/7/bits/stl_iterator.h **** 
 856:/usr/include/c++/7/bits/stl_iterator.h ****   // Forward iterator requirements
 857:/usr/include/c++/7/bits/stl_iterator.h ****   template<typename _IteratorL, typename _IteratorR, typename _Container>
 858:/usr/include/c++/7/bits/stl_iterator.h ****     inline bool
 859:/usr/include/c++/7/bits/stl_iterator.h ****     operator==(const __normal_iterator<_IteratorL, _Container>& __lhs,
 860:/usr/include/c++/7/bits/stl_iterator.h **** 	       const __normal_iterator<_IteratorR, _Container>& __rhs)
 861:/usr/include/c++/7/bits/stl_iterator.h ****     _GLIBCXX_NOEXCEPT
 862:/usr/include/c++/7/bits/stl_iterator.h ****     { return __lhs.base() == __rhs.base(); }
 863:/usr/include/c++/7/bits/stl_iterator.h **** 
 864:/usr/include/c++/7/bits/stl_iterator.h ****   template<typename _Iterator, typename _Container>
 865:/usr/include/c++/7/bits/stl_iterator.h ****     inline bool
 866:/usr/include/c++/7/bits/stl_iterator.h ****     operator==(const __normal_iterator<_Iterator, _Container>& __lhs,
 867:/usr/include/c++/7/bits/stl_iterator.h **** 	       const __normal_iterator<_Iterator, _Container>& __rhs)
 868:/usr/include/c++/7/bits/stl_iterator.h ****     _GLIBCXX_NOEXCEPT
 869:/usr/include/c++/7/bits/stl_iterator.h ****     { return __lhs.base() == __rhs.base(); }
 870:/usr/include/c++/7/bits/stl_iterator.h **** 
 871:/usr/include/c++/7/bits/stl_iterator.h ****   template<typename _IteratorL, typename _IteratorR, typename _Container>
 872:/usr/include/c++/7/bits/stl_iterator.h ****     inline bool
 873:/usr/include/c++/7/bits/stl_iterator.h ****     operator!=(const __normal_iterator<_IteratorL, _Container>& __lhs,
 874:/usr/include/c++/7/bits/stl_iterator.h **** 	       const __normal_iterator<_IteratorR, _Container>& __rhs)
 875:/usr/include/c++/7/bits/stl_iterator.h ****     _GLIBCXX_NOEXCEPT
 876:/usr/include/c++/7/bits/stl_iterator.h ****     { return __lhs.base() != __rhs.base(); }
 877:/usr/include/c++/7/bits/stl_iterator.h **** 
 878:/usr/include/c++/7/bits/stl_iterator.h ****   template<typename _Iterator, typename _Container>
 879:/usr/include/c++/7/bits/stl_iterator.h ****     inline bool
 880:/usr/include/c++/7/bits/stl_iterator.h ****     operator!=(const __normal_iterator<_Iterator, _Container>& __lhs,
 881:/usr/include/c++/7/bits/stl_iterator.h **** 	       const __normal_iterator<_Iterator, _Container>& __rhs)
 882:/usr/include/c++/7/bits/stl_iterator.h ****     _GLIBCXX_NOEXCEPT
 883:/usr/include/c++/7/bits/stl_iterator.h ****     { return __lhs.base() != __rhs.base(); }
 884:/usr/include/c++/7/bits/stl_iterator.h **** 
 885:/usr/include/c++/7/bits/stl_iterator.h ****   // Random access iterator requirements
 886:/usr/include/c++/7/bits/stl_iterator.h ****   template<typename _IteratorL, typename _IteratorR, typename _Container>
 887:/usr/include/c++/7/bits/stl_iterator.h ****     inline bool
 888:/usr/include/c++/7/bits/stl_iterator.h ****     operator<(const __normal_iterator<_IteratorL, _Container>& __lhs,
 889:/usr/include/c++/7/bits/stl_iterator.h **** 	      const __normal_iterator<_IteratorR, _Container>& __rhs)
 890:/usr/include/c++/7/bits/stl_iterator.h ****     _GLIBCXX_NOEXCEPT
 891:/usr/include/c++/7/bits/stl_iterator.h ****     { return __lhs.base() < __rhs.base(); }
 892:/usr/include/c++/7/bits/stl_iterator.h **** 
 893:/usr/include/c++/7/bits/stl_iterator.h ****   template<typename _Iterator, typename _Container>
 894:/usr/include/c++/7/bits/stl_iterator.h ****     inline bool
 895:/usr/include/c++/7/bits/stl_iterator.h ****     operator<(const __normal_iterator<_Iterator, _Container>& __lhs,
 896:/usr/include/c++/7/bits/stl_iterator.h **** 	      const __normal_iterator<_Iterator, _Container>& __rhs)
 897:/usr/include/c++/7/bits/stl_iterator.h ****     _GLIBCXX_NOEXCEPT
 898:/usr/include/c++/7/bits/stl_iterator.h ****     { return __lhs.base() < __rhs.base(); }
 899:/usr/include/c++/7/bits/stl_iterator.h **** 
 900:/usr/include/c++/7/bits/stl_iterator.h ****   template<typename _IteratorL, typename _IteratorR, typename _Container>
 901:/usr/include/c++/7/bits/stl_iterator.h ****     inline bool
 902:/usr/include/c++/7/bits/stl_iterator.h ****     operator>(const __normal_iterator<_IteratorL, _Container>& __lhs,
 903:/usr/include/c++/7/bits/stl_iterator.h **** 	      const __normal_iterator<_IteratorR, _Container>& __rhs)
 904:/usr/include/c++/7/bits/stl_iterator.h ****     _GLIBCXX_NOEXCEPT
 905:/usr/include/c++/7/bits/stl_iterator.h ****     { return __lhs.base() > __rhs.base(); }
 906:/usr/include/c++/7/bits/stl_iterator.h **** 
 907:/usr/include/c++/7/bits/stl_iterator.h ****   template<typename _Iterator, typename _Container>
 908:/usr/include/c++/7/bits/stl_iterator.h ****     inline bool
 909:/usr/include/c++/7/bits/stl_iterator.h ****     operator>(const __normal_iterator<_Iterator, _Container>& __lhs,
 910:/usr/include/c++/7/bits/stl_iterator.h **** 	      const __normal_iterator<_Iterator, _Container>& __rhs)
 911:/usr/include/c++/7/bits/stl_iterator.h ****     _GLIBCXX_NOEXCEPT
 912:/usr/include/c++/7/bits/stl_iterator.h ****     { return __lhs.base() > __rhs.base(); }
 913:/usr/include/c++/7/bits/stl_iterator.h **** 
 914:/usr/include/c++/7/bits/stl_iterator.h ****   template<typename _IteratorL, typename _IteratorR, typename _Container>
 915:/usr/include/c++/7/bits/stl_iterator.h ****     inline bool
 916:/usr/include/c++/7/bits/stl_iterator.h ****     operator<=(const __normal_iterator<_IteratorL, _Container>& __lhs,
 917:/usr/include/c++/7/bits/stl_iterator.h **** 	       const __normal_iterator<_IteratorR, _Container>& __rhs)
 918:/usr/include/c++/7/bits/stl_iterator.h ****     _GLIBCXX_NOEXCEPT
 919:/usr/include/c++/7/bits/stl_iterator.h ****     { return __lhs.base() <= __rhs.base(); }
 920:/usr/include/c++/7/bits/stl_iterator.h **** 
 921:/usr/include/c++/7/bits/stl_iterator.h ****   template<typename _Iterator, typename _Container>
 922:/usr/include/c++/7/bits/stl_iterator.h ****     inline bool
 923:/usr/include/c++/7/bits/stl_iterator.h ****     operator<=(const __normal_iterator<_Iterator, _Container>& __lhs,
 924:/usr/include/c++/7/bits/stl_iterator.h **** 	       const __normal_iterator<_Iterator, _Container>& __rhs)
 925:/usr/include/c++/7/bits/stl_iterator.h ****     _GLIBCXX_NOEXCEPT
 926:/usr/include/c++/7/bits/stl_iterator.h ****     { return __lhs.base() <= __rhs.base(); }
 927:/usr/include/c++/7/bits/stl_iterator.h **** 
 928:/usr/include/c++/7/bits/stl_iterator.h ****   template<typename _IteratorL, typename _IteratorR, typename _Container>
 929:/usr/include/c++/7/bits/stl_iterator.h ****     inline bool
 930:/usr/include/c++/7/bits/stl_iterator.h ****     operator>=(const __normal_iterator<_IteratorL, _Container>& __lhs,
 931:/usr/include/c++/7/bits/stl_iterator.h **** 	       const __normal_iterator<_IteratorR, _Container>& __rhs)
 932:/usr/include/c++/7/bits/stl_iterator.h ****     _GLIBCXX_NOEXCEPT
 933:/usr/include/c++/7/bits/stl_iterator.h ****     { return __lhs.base() >= __rhs.base(); }
 934:/usr/include/c++/7/bits/stl_iterator.h **** 
 935:/usr/include/c++/7/bits/stl_iterator.h ****   template<typename _Iterator, typename _Container>
 936:/usr/include/c++/7/bits/stl_iterator.h ****     inline bool
 937:/usr/include/c++/7/bits/stl_iterator.h ****     operator>=(const __normal_iterator<_Iterator, _Container>& __lhs,
 938:/usr/include/c++/7/bits/stl_iterator.h **** 	       const __normal_iterator<_Iterator, _Container>& __rhs)
 939:/usr/include/c++/7/bits/stl_iterator.h ****     _GLIBCXX_NOEXCEPT
 940:/usr/include/c++/7/bits/stl_iterator.h ****     { return __lhs.base() >= __rhs.base(); }
 941:/usr/include/c++/7/bits/stl_iterator.h **** 
 942:/usr/include/c++/7/bits/stl_iterator.h ****   // _GLIBCXX_RESOLVE_LIB_DEFECTS
 943:/usr/include/c++/7/bits/stl_iterator.h ****   // According to the resolution of DR179 not only the various comparison
 944:/usr/include/c++/7/bits/stl_iterator.h ****   // operators but also operator- must accept mixed iterator/const_iterator
 945:/usr/include/c++/7/bits/stl_iterator.h ****   // parameters.
 946:/usr/include/c++/7/bits/stl_iterator.h ****   template<typename _IteratorL, typename _IteratorR, typename _Container>
 947:/usr/include/c++/7/bits/stl_iterator.h **** #if __cplusplus >= 201103L
 948:/usr/include/c++/7/bits/stl_iterator.h ****     // DR 685.
 949:/usr/include/c++/7/bits/stl_iterator.h ****     inline auto
 950:/usr/include/c++/7/bits/stl_iterator.h ****     operator-(const __normal_iterator<_IteratorL, _Container>& __lhs,
 951:/usr/include/c++/7/bits/stl_iterator.h **** 	      const __normal_iterator<_IteratorR, _Container>& __rhs) noexcept
 952:/usr/include/c++/7/bits/stl_iterator.h ****     -> decltype(__lhs.base() - __rhs.base())
 953:/usr/include/c++/7/bits/stl_iterator.h **** #else
 954:/usr/include/c++/7/bits/stl_iterator.h ****     inline typename __normal_iterator<_IteratorL, _Container>::difference_type
 955:/usr/include/c++/7/bits/stl_iterator.h ****     operator-(const __normal_iterator<_IteratorL, _Container>& __lhs,
 956:/usr/include/c++/7/bits/stl_iterator.h **** 	      const __normal_iterator<_IteratorR, _Container>& __rhs)
 957:/usr/include/c++/7/bits/stl_iterator.h **** #endif
 958:/usr/include/c++/7/bits/stl_iterator.h ****     { return __lhs.base() - __rhs.base(); }
 959:/usr/include/c++/7/bits/stl_iterator.h **** 
 960:/usr/include/c++/7/bits/stl_iterator.h ****   template<typename _Iterator, typename _Container>
 961:/usr/include/c++/7/bits/stl_iterator.h ****     inline typename __normal_iterator<_Iterator, _Container>::difference_type
 962:/usr/include/c++/7/bits/stl_iterator.h ****     operator-(const __normal_iterator<_Iterator, _Container>& __lhs,
 963:/usr/include/c++/7/bits/stl_iterator.h **** 	      const __normal_iterator<_Iterator, _Container>& __rhs)
 964:/usr/include/c++/7/bits/stl_iterator.h ****     _GLIBCXX_NOEXCEPT
 965:/usr/include/c++/7/bits/stl_iterator.h ****     { return __lhs.base() - __rhs.base(); }
 966:/usr/include/c++/7/bits/stl_iterator.h **** 
 967:/usr/include/c++/7/bits/stl_iterator.h ****   template<typename _Iterator, typename _Container>
 968:/usr/include/c++/7/bits/stl_iterator.h ****     inline __normal_iterator<_Iterator, _Container>
 969:/usr/include/c++/7/bits/stl_iterator.h ****     operator+(typename __normal_iterator<_Iterator, _Container>::difference_type
 970:/usr/include/c++/7/bits/stl_iterator.h **** 	      __n, const __normal_iterator<_Iterator, _Container>& __i)
 971:/usr/include/c++/7/bits/stl_iterator.h ****     _GLIBCXX_NOEXCEPT
 972:/usr/include/c++/7/bits/stl_iterator.h ****     { return __normal_iterator<_Iterator, _Container>(__i.base() + __n); }
 973:/usr/include/c++/7/bits/stl_iterator.h **** 
 974:/usr/include/c++/7/bits/stl_iterator.h **** _GLIBCXX_END_NAMESPACE_VERSION
 975:/usr/include/c++/7/bits/stl_iterator.h **** } // namespace
 976:/usr/include/c++/7/bits/stl_iterator.h **** 
 977:/usr/include/c++/7/bits/stl_iterator.h **** namespace std _GLIBCXX_VISIBILITY(default)
 978:/usr/include/c++/7/bits/stl_iterator.h **** {
 979:/usr/include/c++/7/bits/stl_iterator.h **** _GLIBCXX_BEGIN_NAMESPACE_VERSION
 980:/usr/include/c++/7/bits/stl_iterator.h **** 
 981:/usr/include/c++/7/bits/stl_iterator.h ****   template<typename _Iterator, typename _Container>
 982:/usr/include/c++/7/bits/stl_iterator.h ****     _Iterator
 983:/usr/include/c++/7/bits/stl_iterator.h ****     __niter_base(__gnu_cxx::__normal_iterator<_Iterator, _Container> __it)
 984:/usr/include/c++/7/bits/stl_iterator.h ****     { return __it.base(); }
 985:/usr/include/c++/7/bits/stl_iterator.h **** 
 986:/usr/include/c++/7/bits/stl_iterator.h **** _GLIBCXX_END_NAMESPACE_VERSION
 987:/usr/include/c++/7/bits/stl_iterator.h **** } // namespace
 988:/usr/include/c++/7/bits/stl_iterator.h **** 
 989:/usr/include/c++/7/bits/stl_iterator.h **** #if __cplusplus >= 201103L
 990:/usr/include/c++/7/bits/stl_iterator.h **** 
 991:/usr/include/c++/7/bits/stl_iterator.h **** namespace std _GLIBCXX_VISIBILITY(default)
 992:/usr/include/c++/7/bits/stl_iterator.h **** {
 993:/usr/include/c++/7/bits/stl_iterator.h **** _GLIBCXX_BEGIN_NAMESPACE_VERSION
 994:/usr/include/c++/7/bits/stl_iterator.h **** 
 995:/usr/include/c++/7/bits/stl_iterator.h ****   /**
 996:/usr/include/c++/7/bits/stl_iterator.h ****    * @addtogroup iterators
 997:/usr/include/c++/7/bits/stl_iterator.h ****    * @{
 998:/usr/include/c++/7/bits/stl_iterator.h ****    */
 999:/usr/include/c++/7/bits/stl_iterator.h **** 
1000:/usr/include/c++/7/bits/stl_iterator.h ****   // 24.4.3  Move iterators
1001:/usr/include/c++/7/bits/stl_iterator.h ****   /**
1002:/usr/include/c++/7/bits/stl_iterator.h ****    *  Class template move_iterator is an iterator adapter with the same
1003:/usr/include/c++/7/bits/stl_iterator.h ****    *  behavior as the underlying iterator except that its dereference
1004:/usr/include/c++/7/bits/stl_iterator.h ****    *  operator implicitly converts the value returned by the underlying
1005:/usr/include/c++/7/bits/stl_iterator.h ****    *  iterator's dereference operator to an rvalue reference.  Some
1006:/usr/include/c++/7/bits/stl_iterator.h ****    *  generic algorithms can be called with move iterators to replace
1007:/usr/include/c++/7/bits/stl_iterator.h ****    *  copying with moving.
1008:/usr/include/c++/7/bits/stl_iterator.h ****    */
1009:/usr/include/c++/7/bits/stl_iterator.h ****   template<typename _Iterator>
1010:/usr/include/c++/7/bits/stl_iterator.h ****     class move_iterator
1011:/usr/include/c++/7/bits/stl_iterator.h ****     {
1012:/usr/include/c++/7/bits/stl_iterator.h ****     protected:
1013:/usr/include/c++/7/bits/stl_iterator.h ****       _Iterator _M_current;
1014:/usr/include/c++/7/bits/stl_iterator.h **** 
1015:/usr/include/c++/7/bits/stl_iterator.h ****       typedef iterator_traits<_Iterator>		__traits_type;
1016:/usr/include/c++/7/bits/stl_iterator.h ****       typedef typename __traits_type::reference		__base_ref;
1017:/usr/include/c++/7/bits/stl_iterator.h **** 
1018:/usr/include/c++/7/bits/stl_iterator.h ****     public:
1019:/usr/include/c++/7/bits/stl_iterator.h ****       typedef _Iterator					iterator_type;
1020:/usr/include/c++/7/bits/stl_iterator.h ****       typedef typename __traits_type::iterator_category iterator_category;
1021:/usr/include/c++/7/bits/stl_iterator.h ****       typedef typename __traits_type::value_type  	value_type;
1022:/usr/include/c++/7/bits/stl_iterator.h ****       typedef typename __traits_type::difference_type	difference_type;
1023:/usr/include/c++/7/bits/stl_iterator.h ****       // NB: DR 680.
1024:/usr/include/c++/7/bits/stl_iterator.h ****       typedef _Iterator					pointer;
1025:/usr/include/c++/7/bits/stl_iterator.h ****       // _GLIBCXX_RESOLVE_LIB_DEFECTS
1026:/usr/include/c++/7/bits/stl_iterator.h ****       // 2106. move_iterator wrapping iterators returning prvalues
1027:/usr/include/c++/7/bits/stl_iterator.h ****       typedef typename conditional<is_reference<__base_ref>::value,
1028:/usr/include/c++/7/bits/stl_iterator.h **** 			 typename remove_reference<__base_ref>::type&&,
1029:/usr/include/c++/7/bits/stl_iterator.h **** 			 __base_ref>::type		reference;
1030:/usr/include/c++/7/bits/stl_iterator.h **** 
1031:/usr/include/c++/7/bits/stl_iterator.h ****       _GLIBCXX17_CONSTEXPR
1032:/usr/include/c++/7/bits/stl_iterator.h ****       move_iterator()
1033:/usr/include/c++/7/bits/stl_iterator.h ****       : _M_current() { }
1034:/usr/include/c++/7/bits/stl_iterator.h **** 
1035:/usr/include/c++/7/bits/stl_iterator.h ****       explicit _GLIBCXX17_CONSTEXPR
1036:/usr/include/c++/7/bits/stl_iterator.h ****       move_iterator(iterator_type __i)
1037:/usr/include/c++/7/bits/stl_iterator.h ****       : _M_current(__i) { }
1038:/usr/include/c++/7/bits/stl_iterator.h **** 
1039:/usr/include/c++/7/bits/stl_iterator.h ****       template<typename _Iter>
1040:/usr/include/c++/7/bits/stl_iterator.h **** 	_GLIBCXX17_CONSTEXPR
1041:/usr/include/c++/7/bits/stl_iterator.h **** 	move_iterator(const move_iterator<_Iter>& __i)
1042:/usr/include/c++/7/bits/stl_iterator.h **** 	: _M_current(__i.base()) { }
1043:/usr/include/c++/7/bits/stl_iterator.h **** 
1044:/usr/include/c++/7/bits/stl_iterator.h ****       _GLIBCXX17_CONSTEXPR iterator_type
1045:/usr/include/c++/7/bits/stl_iterator.h ****       base() const
1046:/usr/include/c++/7/bits/stl_iterator.h ****       { return _M_current; }
1047:/usr/include/c++/7/bits/stl_iterator.h **** 
1048:/usr/include/c++/7/bits/stl_iterator.h ****       _GLIBCXX17_CONSTEXPR reference
1049:/usr/include/c++/7/bits/stl_iterator.h ****       operator*() const
1050:/usr/include/c++/7/bits/stl_iterator.h ****       { return static_cast<reference>(*_M_current); }
1051:/usr/include/c++/7/bits/stl_iterator.h **** 
1052:/usr/include/c++/7/bits/stl_iterator.h ****       _GLIBCXX17_CONSTEXPR pointer
1053:/usr/include/c++/7/bits/stl_iterator.h ****       operator->() const
1054:/usr/include/c++/7/bits/stl_iterator.h ****       { return _M_current; }
1055:/usr/include/c++/7/bits/stl_iterator.h **** 
1056:/usr/include/c++/7/bits/stl_iterator.h ****       _GLIBCXX17_CONSTEXPR move_iterator&
1057:/usr/include/c++/7/bits/stl_iterator.h ****       operator++()
1058:/usr/include/c++/7/bits/stl_iterator.h ****       {
1059:/usr/include/c++/7/bits/stl_iterator.h **** 	++_M_current;
1060:/usr/include/c++/7/bits/stl_iterator.h **** 	return *this;
1061:/usr/include/c++/7/bits/stl_iterator.h ****       }
1062:/usr/include/c++/7/bits/stl_iterator.h **** 
1063:/usr/include/c++/7/bits/stl_iterator.h ****       _GLIBCXX17_CONSTEXPR move_iterator
1064:/usr/include/c++/7/bits/stl_iterator.h ****       operator++(int)
1065:/usr/include/c++/7/bits/stl_iterator.h ****       {
1066:/usr/include/c++/7/bits/stl_iterator.h **** 	move_iterator __tmp = *this;
1067:/usr/include/c++/7/bits/stl_iterator.h **** 	++_M_current;
1068:/usr/include/c++/7/bits/stl_iterator.h **** 	return __tmp;
1069:/usr/include/c++/7/bits/stl_iterator.h ****       }
1070:/usr/include/c++/7/bits/stl_iterator.h **** 
1071:/usr/include/c++/7/bits/stl_iterator.h ****       _GLIBCXX17_CONSTEXPR move_iterator&
1072:/usr/include/c++/7/bits/stl_iterator.h ****       operator--()
1073:/usr/include/c++/7/bits/stl_iterator.h ****       {
1074:/usr/include/c++/7/bits/stl_iterator.h **** 	--_M_current;
1075:/usr/include/c++/7/bits/stl_iterator.h **** 	return *this;
1076:/usr/include/c++/7/bits/stl_iterator.h ****       }
1077:/usr/include/c++/7/bits/stl_iterator.h **** 
1078:/usr/include/c++/7/bits/stl_iterator.h ****       _GLIBCXX17_CONSTEXPR move_iterator
1079:/usr/include/c++/7/bits/stl_iterator.h ****       operator--(int)
1080:/usr/include/c++/7/bits/stl_iterator.h ****       {
1081:/usr/include/c++/7/bits/stl_iterator.h **** 	move_iterator __tmp = *this;
1082:/usr/include/c++/7/bits/stl_iterator.h **** 	--_M_current;
1083:/usr/include/c++/7/bits/stl_iterator.h **** 	return __tmp;
1084:/usr/include/c++/7/bits/stl_iterator.h ****       }
1085:/usr/include/c++/7/bits/stl_iterator.h **** 
1086:/usr/include/c++/7/bits/stl_iterator.h ****       _GLIBCXX17_CONSTEXPR move_iterator
1087:/usr/include/c++/7/bits/stl_iterator.h ****       operator+(difference_type __n) const
1088:/usr/include/c++/7/bits/stl_iterator.h ****       { return move_iterator(_M_current + __n); }
1089:/usr/include/c++/7/bits/stl_iterator.h **** 
1090:/usr/include/c++/7/bits/stl_iterator.h ****       _GLIBCXX17_CONSTEXPR move_iterator&
1091:/usr/include/c++/7/bits/stl_iterator.h ****       operator+=(difference_type __n)
1092:/usr/include/c++/7/bits/stl_iterator.h ****       {
1093:/usr/include/c++/7/bits/stl_iterator.h **** 	_M_current += __n;
1094:/usr/include/c++/7/bits/stl_iterator.h **** 	return *this;
1095:/usr/include/c++/7/bits/stl_iterator.h ****       }
1096:/usr/include/c++/7/bits/stl_iterator.h **** 
1097:/usr/include/c++/7/bits/stl_iterator.h ****       _GLIBCXX17_CONSTEXPR move_iterator
1098:/usr/include/c++/7/bits/stl_iterator.h ****       operator-(difference_type __n) const
1099:/usr/include/c++/7/bits/stl_iterator.h ****       { return move_iterator(_M_current - __n); }
1100:/usr/include/c++/7/bits/stl_iterator.h ****     
1101:/usr/include/c++/7/bits/stl_iterator.h ****       _GLIBCXX17_CONSTEXPR move_iterator&
1102:/usr/include/c++/7/bits/stl_iterator.h ****       operator-=(difference_type __n)
1103:/usr/include/c++/7/bits/stl_iterator.h ****       { 
1104:/usr/include/c++/7/bits/stl_iterator.h **** 	_M_current -= __n;
1105:/usr/include/c++/7/bits/stl_iterator.h **** 	return *this;
1106:/usr/include/c++/7/bits/stl_iterator.h ****       }
1107:/usr/include/c++/7/bits/stl_iterator.h **** 
1108:/usr/include/c++/7/bits/stl_iterator.h ****       _GLIBCXX17_CONSTEXPR reference
1109:/usr/include/c++/7/bits/stl_iterator.h ****       operator[](difference_type __n) const
1110:/usr/include/c++/7/bits/stl_iterator.h ****       { return std::move(_M_current[__n]); }
1111:/usr/include/c++/7/bits/stl_iterator.h ****     };
1112:/usr/include/c++/7/bits/stl_iterator.h **** 
1113:/usr/include/c++/7/bits/stl_iterator.h ****   // Note: See __normal_iterator operators note from Gaby to understand
1114:/usr/include/c++/7/bits/stl_iterator.h ****   // why there are always 2 versions for most of the move_iterator
1115:/usr/include/c++/7/bits/stl_iterator.h ****   // operators.
1116:/usr/include/c++/7/bits/stl_iterator.h ****   template<typename _IteratorL, typename _IteratorR>
1117:/usr/include/c++/7/bits/stl_iterator.h ****     inline _GLIBCXX17_CONSTEXPR bool
1118:/usr/include/c++/7/bits/stl_iterator.h ****     operator==(const move_iterator<_IteratorL>& __x,
1119:/usr/include/c++/7/bits/stl_iterator.h **** 	       const move_iterator<_IteratorR>& __y)
1120:/usr/include/c++/7/bits/stl_iterator.h ****     { return __x.base() == __y.base(); }
1121:/usr/include/c++/7/bits/stl_iterator.h **** 
1122:/usr/include/c++/7/bits/stl_iterator.h ****   template<typename _Iterator>
1123:/usr/include/c++/7/bits/stl_iterator.h ****     inline _GLIBCXX17_CONSTEXPR bool
1124:/usr/include/c++/7/bits/stl_iterator.h ****     operator==(const move_iterator<_Iterator>& __x,
1125:/usr/include/c++/7/bits/stl_iterator.h **** 	       const move_iterator<_Iterator>& __y)
1126:/usr/include/c++/7/bits/stl_iterator.h ****     { return __x.base() == __y.base(); }
1127:/usr/include/c++/7/bits/stl_iterator.h **** 
1128:/usr/include/c++/7/bits/stl_iterator.h ****   template<typename _IteratorL, typename _IteratorR>
1129:/usr/include/c++/7/bits/stl_iterator.h ****     inline _GLIBCXX17_CONSTEXPR bool
1130:/usr/include/c++/7/bits/stl_iterator.h ****     operator!=(const move_iterator<_IteratorL>& __x,
1131:/usr/include/c++/7/bits/stl_iterator.h **** 	       const move_iterator<_IteratorR>& __y)
1132:/usr/include/c++/7/bits/stl_iterator.h ****     { return !(__x == __y); }
1133:/usr/include/c++/7/bits/stl_iterator.h **** 
1134:/usr/include/c++/7/bits/stl_iterator.h ****   template<typename _Iterator>
1135:/usr/include/c++/7/bits/stl_iterator.h ****     inline _GLIBCXX17_CONSTEXPR bool
1136:/usr/include/c++/7/bits/stl_iterator.h ****     operator!=(const move_iterator<_Iterator>& __x,
1137:/usr/include/c++/7/bits/stl_iterator.h **** 	       const move_iterator<_Iterator>& __y)
1138:/usr/include/c++/7/bits/stl_iterator.h ****     { return !(__x == __y); }
1139:/usr/include/c++/7/bits/stl_iterator.h **** 
1140:/usr/include/c++/7/bits/stl_iterator.h ****   template<typename _IteratorL, typename _IteratorR>
1141:/usr/include/c++/7/bits/stl_iterator.h ****     inline _GLIBCXX17_CONSTEXPR bool
1142:/usr/include/c++/7/bits/stl_iterator.h ****     operator<(const move_iterator<_IteratorL>& __x,
1143:/usr/include/c++/7/bits/stl_iterator.h **** 	      const move_iterator<_IteratorR>& __y)
1144:/usr/include/c++/7/bits/stl_iterator.h ****     { return __x.base() < __y.base(); }
1145:/usr/include/c++/7/bits/stl_iterator.h **** 
1146:/usr/include/c++/7/bits/stl_iterator.h ****   template<typename _Iterator>
1147:/usr/include/c++/7/bits/stl_iterator.h ****     inline _GLIBCXX17_CONSTEXPR bool
1148:/usr/include/c++/7/bits/stl_iterator.h ****     operator<(const move_iterator<_Iterator>& __x,
1149:/usr/include/c++/7/bits/stl_iterator.h **** 	      const move_iterator<_Iterator>& __y)
1150:/usr/include/c++/7/bits/stl_iterator.h ****     { return __x.base() < __y.base(); }
1151:/usr/include/c++/7/bits/stl_iterator.h **** 
1152:/usr/include/c++/7/bits/stl_iterator.h ****   template<typename _IteratorL, typename _IteratorR>
1153:/usr/include/c++/7/bits/stl_iterator.h ****     inline _GLIBCXX17_CONSTEXPR bool
1154:/usr/include/c++/7/bits/stl_iterator.h ****     operator<=(const move_iterator<_IteratorL>& __x,
1155:/usr/include/c++/7/bits/stl_iterator.h **** 	       const move_iterator<_IteratorR>& __y)
1156:/usr/include/c++/7/bits/stl_iterator.h ****     { return !(__y < __x); }
1157:/usr/include/c++/7/bits/stl_iterator.h **** 
1158:/usr/include/c++/7/bits/stl_iterator.h ****   template<typename _Iterator>
1159:/usr/include/c++/7/bits/stl_iterator.h ****     inline _GLIBCXX17_CONSTEXPR bool
1160:/usr/include/c++/7/bits/stl_iterator.h ****     operator<=(const move_iterator<_Iterator>& __x,
1161:/usr/include/c++/7/bits/stl_iterator.h **** 	       const move_iterator<_Iterator>& __y)
1162:/usr/include/c++/7/bits/stl_iterator.h ****     { return !(__y < __x); }
1163:/usr/include/c++/7/bits/stl_iterator.h **** 
1164:/usr/include/c++/7/bits/stl_iterator.h ****   template<typename _IteratorL, typename _IteratorR>
1165:/usr/include/c++/7/bits/stl_iterator.h ****     inline _GLIBCXX17_CONSTEXPR bool
1166:/usr/include/c++/7/bits/stl_iterator.h ****     operator>(const move_iterator<_IteratorL>& __x,
1167:/usr/include/c++/7/bits/stl_iterator.h **** 	      const move_iterator<_IteratorR>& __y)
1168:/usr/include/c++/7/bits/stl_iterator.h ****     { return __y < __x; }
1169:/usr/include/c++/7/bits/stl_iterator.h **** 
1170:/usr/include/c++/7/bits/stl_iterator.h ****   template<typename _Iterator>
1171:/usr/include/c++/7/bits/stl_iterator.h ****     inline _GLIBCXX17_CONSTEXPR bool
1172:/usr/include/c++/7/bits/stl_iterator.h ****     operator>(const move_iterator<_Iterator>& __x,
1173:/usr/include/c++/7/bits/stl_iterator.h **** 	      const move_iterator<_Iterator>& __y)
1174:/usr/include/c++/7/bits/stl_iterator.h ****     { return __y < __x; }
1175:/usr/include/c++/7/bits/stl_iterator.h **** 
1176:/usr/include/c++/7/bits/stl_iterator.h ****   template<typename _IteratorL, typename _IteratorR>
1177:/usr/include/c++/7/bits/stl_iterator.h ****     inline _GLIBCXX17_CONSTEXPR bool
1178:/usr/include/c++/7/bits/stl_iterator.h ****     operator>=(const move_iterator<_IteratorL>& __x,
1179:/usr/include/c++/7/bits/stl_iterator.h **** 	       const move_iterator<_IteratorR>& __y)
1180:/usr/include/c++/7/bits/stl_iterator.h ****     { return !(__x < __y); }
1181:/usr/include/c++/7/bits/stl_iterator.h **** 
1182:/usr/include/c++/7/bits/stl_iterator.h ****   template<typename _Iterator>
1183:/usr/include/c++/7/bits/stl_iterator.h ****     inline _GLIBCXX17_CONSTEXPR bool
1184:/usr/include/c++/7/bits/stl_iterator.h ****     operator>=(const move_iterator<_Iterator>& __x,
1185:/usr/include/c++/7/bits/stl_iterator.h **** 	       const move_iterator<_Iterator>& __y)
1186:/usr/include/c++/7/bits/stl_iterator.h ****     { return !(__x < __y); }
1187:/usr/include/c++/7/bits/stl_iterator.h **** 
1188:/usr/include/c++/7/bits/stl_iterator.h ****   // DR 685.
1189:/usr/include/c++/7/bits/stl_iterator.h ****   template<typename _IteratorL, typename _IteratorR>
1190:/usr/include/c++/7/bits/stl_iterator.h ****     inline _GLIBCXX17_CONSTEXPR auto
1191:/usr/include/c++/7/bits/stl_iterator.h ****     operator-(const move_iterator<_IteratorL>& __x,
1192:/usr/include/c++/7/bits/stl_iterator.h **** 	      const move_iterator<_IteratorR>& __y)
1193:/usr/include/c++/7/bits/stl_iterator.h ****     -> decltype(__x.base() - __y.base())
1194:/usr/include/c++/7/bits/stl_iterator.h ****     { return __x.base() - __y.base(); }
1195:/usr/include/c++/7/bits/stl_iterator.h **** 
1196:/usr/include/c++/7/bits/stl_iterator.h ****   template<typename _Iterator>
1197:/usr/include/c++/7/bits/stl_iterator.h ****     inline _GLIBCXX17_CONSTEXPR move_iterator<_Iterator>
1198:/usr/include/c++/7/bits/stl_iterator.h ****     operator+(typename move_iterator<_Iterator>::difference_type __n,
1199:/usr/include/c++/7/bits/stl_iterator.h **** 	      const move_iterator<_Iterator>& __x)
1200:/usr/include/c++/7/bits/stl_iterator.h ****     { return __x + __n; }
1201:/usr/include/c++/7/bits/stl_iterator.h **** 
1202:/usr/include/c++/7/bits/stl_iterator.h ****   template<typename _Iterator>
1203:/usr/include/c++/7/bits/stl_iterator.h ****     inline _GLIBCXX17_CONSTEXPR move_iterator<_Iterator>
1204:/usr/include/c++/7/bits/stl_iterator.h ****     make_move_iterator(_Iterator __i)
1205:/usr/include/c++/7/bits/stl_iterator.h ****     { return move_iterator<_Iterator>(__i); }
1206:/usr/include/c++/7/bits/stl_iterator.h **** 
1207:/usr/include/c++/7/bits/stl_iterator.h ****   template<typename _Iterator, typename _ReturnType
1208:/usr/include/c++/7/bits/stl_iterator.h ****     = typename conditional<__move_if_noexcept_cond
1209:/usr/include/c++/7/bits/stl_iterator.h ****       <typename iterator_traits<_Iterator>::value_type>::value,
1210:/usr/include/c++/7/bits/stl_iterator.h ****                 _Iterator, move_iterator<_Iterator>>::type>
1211:/usr/include/c++/7/bits/stl_iterator.h ****     inline _GLIBCXX17_CONSTEXPR _ReturnType
1212:/usr/include/c++/7/bits/stl_iterator.h ****     __make_move_if_noexcept_iterator(_Iterator __i)
1213:/usr/include/c++/7/bits/stl_iterator.h ****     { return _ReturnType(__i); }
1214:/usr/include/c++/7/bits/stl_iterator.h **** 
1215:/usr/include/c++/7/bits/stl_iterator.h ****   // Overload for pointers that matches std::move_if_noexcept more closely,
1216:/usr/include/c++/7/bits/stl_iterator.h ****   // returning a constant iterator when we don't want to move.
1217:/usr/include/c++/7/bits/stl_iterator.h ****   template<typename _Tp, typename _ReturnType
1218:/usr/include/c++/7/bits/stl_iterator.h ****     = typename conditional<__move_if_noexcept_cond<_Tp>::value,
1219:/usr/include/c++/7/bits/stl_iterator.h **** 			   const _Tp*, move_iterator<_Tp*>>::type>
1220:/usr/include/c++/7/bits/stl_iterator.h ****     inline _GLIBCXX17_CONSTEXPR _ReturnType
1221:/usr/include/c++/7/bits/stl_iterator.h ****     __make_move_if_noexcept_iterator(_Tp* __i)
 2835              		.loc 10 1221 0
 2836              		.cfi_startproc
 2837 0000 55       		pushq	%rbp
 2838              		.cfi_def_cfa_offset 16
 2839              		.cfi_offset 6, -16
 2840 0001 4889E5   		movq	%rsp, %rbp
 2841              		.cfi_def_cfa_register 6
 2842 0004 4883EC20 		subq	$32, %rsp
 2843 0008 48897DE8 		movq	%rdi, -24(%rbp)
 2844              		.loc 10 1221 0
 2845 000c 64488B04 		movq	%fs:40, %rax
 2845      25280000 
 2845      00
 2846 0015 488945F8 		movq	%rax, -8(%rbp)
 2847 0019 31C0     		xorl	%eax, %eax
1222:/usr/include/c++/7/bits/stl_iterator.h ****     { return _ReturnType(__i); }
 2848              		.loc 10 1222 0
 2849 001b 488B55E8 		movq	-24(%rbp), %rdx
 2850 001f 488D45F0 		leaq	-16(%rbp), %rax
 2851 0023 4889D6   		movq	%rdx, %rsi
 2852 0026 4889C7   		movq	%rax, %rdi
 2853 0029 E8000000 		call	_ZNSt13move_iteratorIPdEC1ES0_
 2853      00
 2854 002e 488B45F0 		movq	-16(%rbp), %rax
 2855 0032 488B4DF8 		movq	-8(%rbp), %rcx
 2856 0036 6448330C 		xorq	%fs:40, %rcx
 2856      25280000 
 2856      00
 2857 003f 7405     		je	.L134
 2858 0041 E8000000 		call	__stack_chk_fail@PLT
 2858      00
 2859              	.L134:
 2860 0046 C9       		leave
 2861              		.cfi_def_cfa 7, 8
 2862 0047 C3       		ret
 2863              		.cfi_endproc
 2864              	.LFE2357:
 2866              		.section	.text._ZSt22__uninitialized_copy_aISt13move_iteratorIPdES1_dET0_T_S4_S3_RSaIT1_E,"axG",@p
 2867              		.weak	_ZSt22__uninitialized_copy_aISt13move_iteratorIPdES1_dET0_T_S4_S3_RSaIT1_E
 2869              	_ZSt22__uninitialized_copy_aISt13move_iteratorIPdES1_dET0_T_S4_S3_RSaIT1_E:
 2870              	.LFB2358:
 287:/usr/include/c++/7/bits/stl_uninitialized.h **** 			   _ForwardIterator __result, allocator<_Tp>&)
 2871              		.loc 6 287 0
 2872              		.cfi_startproc
 2873 0000 55       		pushq	%rbp
 2874              		.cfi_def_cfa_offset 16
 2875              		.cfi_offset 6, -16
 2876 0001 4889E5   		movq	%rsp, %rbp
 2877              		.cfi_def_cfa_register 6
 2878 0004 4883EC20 		subq	$32, %rsp
 2879 0008 48897DF8 		movq	%rdi, -8(%rbp)
 2880 000c 488975F0 		movq	%rsi, -16(%rbp)
 2881 0010 488955E8 		movq	%rdx, -24(%rbp)
 2882 0014 48894DE0 		movq	%rcx, -32(%rbp)
 289:/usr/include/c++/7/bits/stl_uninitialized.h **** 
 2883              		.loc 6 289 0
 2884 0018 488B55E8 		movq	-24(%rbp), %rdx
 2885 001c 488B4DF0 		movq	-16(%rbp), %rcx
 2886 0020 488B45F8 		movq	-8(%rbp), %rax
 2887 0024 4889CE   		movq	%rcx, %rsi
 2888 0027 4889C7   		movq	%rax, %rdi
 2889 002a E8000000 		call	_ZSt18uninitialized_copyISt13move_iteratorIPdES1_ET0_T_S4_S3_
 2889      00
 2890 002f C9       		leave
 2891              		.cfi_def_cfa 7, 8
 2892 0030 C3       		ret
 2893              		.cfi_endproc
 2894              	.LFE2358:
 2896              		.section	.text._ZN9__gnu_cxx13new_allocatorIdEC2Ev,"axG",@progbits,_ZN9__gnu_cxx13new_allocatorIdE
 2897              		.align 2
 2898              		.weak	_ZN9__gnu_cxx13new_allocatorIdEC2Ev
 2900              	_ZN9__gnu_cxx13new_allocatorIdEC2Ev:
 2901              	.LFB2393:
  79:/usr/include/c++/7/ext/new_allocator.h **** 
 2902              		.loc 7 79 0
 2903              		.cfi_startproc
 2904 0000 55       		pushq	%rbp
 2905              		.cfi_def_cfa_offset 16
 2906              		.cfi_offset 6, -16
 2907 0001 4889E5   		movq	%rsp, %rbp
 2908              		.cfi_def_cfa_register 6
 2909 0004 48897DF8 		movq	%rdi, -8(%rbp)
  79:/usr/include/c++/7/ext/new_allocator.h **** 
 2910              		.loc 7 79 0
 2911 0008 90       		nop
 2912 0009 5D       		popq	%rbp
 2913              		.cfi_def_cfa 7, 8
 2914 000a C3       		ret
 2915              		.cfi_endproc
 2916              	.LFE2393:
 2918              		.weak	_ZN9__gnu_cxx13new_allocatorIdEC1Ev
 2919              		.set	_ZN9__gnu_cxx13new_allocatorIdEC1Ev,_ZN9__gnu_cxx13new_allocatorIdEC2Ev
 2920              		.section	.text._ZN9__gnu_cxx13new_allocatorIdE10deallocateEPdm,"axG",@progbits,_ZN9__gnu_cxx13new_
 2921              		.align 2
 2922              		.weak	_ZN9__gnu_cxx13new_allocatorIdE10deallocateEPdm
 2924              	_ZN9__gnu_cxx13new_allocatorIdE10deallocateEPdm:
 2925              	.LFB2395:
  87:/usr/include/c++/7/ext/new_allocator.h **** 
  88:/usr/include/c++/7/ext/new_allocator.h ****       pointer
  89:/usr/include/c++/7/ext/new_allocator.h ****       address(reference __x) const _GLIBCXX_NOEXCEPT
  90:/usr/include/c++/7/ext/new_allocator.h ****       { return std::__addressof(__x); }
  91:/usr/include/c++/7/ext/new_allocator.h **** 
  92:/usr/include/c++/7/ext/new_allocator.h ****       const_pointer
  93:/usr/include/c++/7/ext/new_allocator.h ****       address(const_reference __x) const _GLIBCXX_NOEXCEPT
  94:/usr/include/c++/7/ext/new_allocator.h ****       { return std::__addressof(__x); }
  95:/usr/include/c++/7/ext/new_allocator.h **** 
  96:/usr/include/c++/7/ext/new_allocator.h ****       // NB: __n is permitted to be 0.  The C++ standard says nothing
  97:/usr/include/c++/7/ext/new_allocator.h ****       // about what the return value is when __n == 0.
  98:/usr/include/c++/7/ext/new_allocator.h ****       pointer
  99:/usr/include/c++/7/ext/new_allocator.h ****       allocate(size_type __n, const void* = static_cast<const void*>(0))
 100:/usr/include/c++/7/ext/new_allocator.h ****       {
 101:/usr/include/c++/7/ext/new_allocator.h **** 	if (__n > this->max_size())
 102:/usr/include/c++/7/ext/new_allocator.h **** 	  std::__throw_bad_alloc();
 103:/usr/include/c++/7/ext/new_allocator.h **** 
 104:/usr/include/c++/7/ext/new_allocator.h **** #if __cpp_aligned_new
 105:/usr/include/c++/7/ext/new_allocator.h **** 	if (alignof(_Tp) > __STDCPP_DEFAULT_NEW_ALIGNMENT__)
 106:/usr/include/c++/7/ext/new_allocator.h **** 	  {
 107:/usr/include/c++/7/ext/new_allocator.h **** 	    std::align_val_t __al = std::align_val_t(alignof(_Tp));
 108:/usr/include/c++/7/ext/new_allocator.h **** 	    return static_cast<_Tp*>(::operator new(__n * sizeof(_Tp), __al));
 109:/usr/include/c++/7/ext/new_allocator.h **** 	  }
 110:/usr/include/c++/7/ext/new_allocator.h **** #endif
 111:/usr/include/c++/7/ext/new_allocator.h **** 	return static_cast<_Tp*>(::operator new(__n * sizeof(_Tp)));
 112:/usr/include/c++/7/ext/new_allocator.h ****       }
 113:/usr/include/c++/7/ext/new_allocator.h **** 
 114:/usr/include/c++/7/ext/new_allocator.h ****       // __p is not permitted to be a null pointer.
 115:/usr/include/c++/7/ext/new_allocator.h ****       void
 116:/usr/include/c++/7/ext/new_allocator.h ****       deallocate(pointer __p, size_type)
 2926              		.loc 7 116 0
 2927              		.cfi_startproc
 2928 0000 55       		pushq	%rbp
 2929              		.cfi_def_cfa_offset 16
 2930              		.cfi_offset 6, -16
 2931 0001 4889E5   		movq	%rsp, %rbp
 2932              		.cfi_def_cfa_register 6
 2933 0004 4883EC20 		subq	$32, %rsp
 2934 0008 48897DF8 		movq	%rdi, -8(%rbp)
 2935 000c 488975F0 		movq	%rsi, -16(%rbp)
 2936 0010 488955E8 		movq	%rdx, -24(%rbp)
 117:/usr/include/c++/7/ext/new_allocator.h ****       {
 118:/usr/include/c++/7/ext/new_allocator.h **** #if __cpp_aligned_new
 119:/usr/include/c++/7/ext/new_allocator.h **** 	if (alignof(_Tp) > __STDCPP_DEFAULT_NEW_ALIGNMENT__)
 120:/usr/include/c++/7/ext/new_allocator.h **** 	  {
 121:/usr/include/c++/7/ext/new_allocator.h **** 	    ::operator delete(__p, std::align_val_t(alignof(_Tp)));
 122:/usr/include/c++/7/ext/new_allocator.h **** 	    return;
 123:/usr/include/c++/7/ext/new_allocator.h **** 	  }
 124:/usr/include/c++/7/ext/new_allocator.h **** #endif
 125:/usr/include/c++/7/ext/new_allocator.h **** 	::operator delete(__p);
 2937              		.loc 7 125 0
 2938 0014 488B45F0 		movq	-16(%rbp), %rax
 2939 0018 4889C7   		movq	%rax, %rdi
 2940 001b E8000000 		call	_ZdlPv@PLT
 2940      00
 126:/usr/include/c++/7/ext/new_allocator.h ****       }
 2941              		.loc 7 126 0
 2942 0020 90       		nop
 2943 0021 C9       		leave
 2944              		.cfi_def_cfa 7, 8
 2945 0022 C3       		ret
 2946              		.cfi_endproc
 2947              	.LFE2395:
 2949              		.section	.text._ZNSt27__uninitialized_default_n_1ILb1EE18__uninit_default_nIPdmEET_S3_T0_,"axG",@p
 2950              		.weak	_ZNSt27__uninitialized_default_n_1ILb1EE18__uninit_default_nIPdmEET_S3_T0_
 2952              	_ZNSt27__uninitialized_default_n_1ILb1EE18__uninit_default_nIPdmEET_S3_T0_:
 2953              	.LFB2400:
 543:/usr/include/c++/7/bits/stl_uninitialized.h ****         {
 2954              		.loc 6 543 0
 2955              		.cfi_startproc
 2956 0000 55       		pushq	%rbp
 2957              		.cfi_def_cfa_offset 16
 2958              		.cfi_offset 6, -16
 2959 0001 4889E5   		movq	%rsp, %rbp
 2960              		.cfi_def_cfa_register 6
 2961 0004 4883EC20 		subq	$32, %rsp
 2962 0008 48897DE8 		movq	%rdi, -24(%rbp)
 2963 000c 488975E0 		movq	%rsi, -32(%rbp)
 543:/usr/include/c++/7/bits/stl_uninitialized.h ****         {
 2964              		.loc 6 543 0
 2965 0010 64488B04 		movq	%fs:40, %rax
 2965      25280000 
 2965      00
 2966 0019 488945F8 		movq	%rax, -8(%rbp)
 2967 001d 31C0     		xorl	%eax, %eax
 548:/usr/include/c++/7/bits/stl_uninitialized.h **** 	}
 2968              		.loc 6 548 0
 2969 001f 660FEFC0 		pxor	%xmm0, %xmm0
 2970 0023 F20F1145 		movsd	%xmm0, -16(%rbp)
 2970      F0
 2971 0028 488D55F0 		leaq	-16(%rbp), %rdx
 2972 002c 488B4DE0 		movq	-32(%rbp), %rcx
 2973 0030 488B45E8 		movq	-24(%rbp), %rax
 2974 0034 4889CE   		movq	%rcx, %rsi
 2975 0037 4889C7   		movq	%rax, %rdi
 2976 003a E8000000 		call	_ZSt6fill_nIPdmdET_S1_T0_RKT1_
 2976      00
 549:/usr/include/c++/7/bits/stl_uninitialized.h ****     };
 2977              		.loc 6 549 0
 2978 003f 488B4DF8 		movq	-8(%rbp), %rcx
 2979 0043 6448330C 		xorq	%fs:40, %rcx
 2979      25280000 
 2979      00
 2980 004c 7405     		je	.L141
 2981 004e E8000000 		call	__stack_chk_fail@PLT
 2981      00
 2982              	.L141:
 2983 0053 C9       		leave
 2984              		.cfi_def_cfa 7, 8
 2985 0054 C3       		ret
 2986              		.cfi_endproc
 2987              	.LFE2400:
 2989              		.section	.text._ZNSt16allocator_traitsISaIdEE8max_sizeERKS0_,"axG",@progbits,_ZNSt16allocator_trai
 2990              		.weak	_ZNSt16allocator_traitsISaIdEE8max_sizeERKS0_
 2992              	_ZNSt16allocator_traitsISaIdEE8max_sizeERKS0_:
 2993              	.LFB2401:
 463:/usr/include/c++/7/bits/alloc_traits.h **** 
 464:/usr/include/c++/7/bits/alloc_traits.h ****       /**
 465:/usr/include/c++/7/bits/alloc_traits.h ****        *  @brief  Construct an object of type @a _Up
 466:/usr/include/c++/7/bits/alloc_traits.h ****        *  @param  __a  An allocator.
 467:/usr/include/c++/7/bits/alloc_traits.h ****        *  @param  __p  Pointer to memory of suitable size and alignment for Tp
 468:/usr/include/c++/7/bits/alloc_traits.h ****        *  @param  __args Constructor arguments.
 469:/usr/include/c++/7/bits/alloc_traits.h ****        *
 470:/usr/include/c++/7/bits/alloc_traits.h ****        *  Calls <tt> __a.construct(__p, std::forward<Args>(__args)...) </tt>
 471:/usr/include/c++/7/bits/alloc_traits.h ****       */
 472:/usr/include/c++/7/bits/alloc_traits.h ****       template<typename _Up, typename... _Args>
 473:/usr/include/c++/7/bits/alloc_traits.h **** 	static void
 474:/usr/include/c++/7/bits/alloc_traits.h **** 	construct(allocator_type& __a, _Up* __p, _Args&&... __args)
 475:/usr/include/c++/7/bits/alloc_traits.h **** 	{ __a.construct(__p, std::forward<_Args>(__args)...); }
 476:/usr/include/c++/7/bits/alloc_traits.h **** 
 477:/usr/include/c++/7/bits/alloc_traits.h ****       /**
 478:/usr/include/c++/7/bits/alloc_traits.h ****        *  @brief  Destroy an object of type @a _Up
 479:/usr/include/c++/7/bits/alloc_traits.h ****        *  @param  __a  An allocator.
 480:/usr/include/c++/7/bits/alloc_traits.h ****        *  @param  __p  Pointer to the object to destroy
 481:/usr/include/c++/7/bits/alloc_traits.h ****        *
 482:/usr/include/c++/7/bits/alloc_traits.h ****        *  Calls @c __a.destroy(__p).
 483:/usr/include/c++/7/bits/alloc_traits.h ****       */
 484:/usr/include/c++/7/bits/alloc_traits.h ****       template<typename _Up>
 485:/usr/include/c++/7/bits/alloc_traits.h **** 	static void
 486:/usr/include/c++/7/bits/alloc_traits.h **** 	destroy(allocator_type& __a, _Up* __p)
 487:/usr/include/c++/7/bits/alloc_traits.h **** 	{ __a.destroy(__p); }
 488:/usr/include/c++/7/bits/alloc_traits.h **** 
 489:/usr/include/c++/7/bits/alloc_traits.h ****       /**
 490:/usr/include/c++/7/bits/alloc_traits.h ****        *  @brief  The maximum supported allocation size
 491:/usr/include/c++/7/bits/alloc_traits.h ****        *  @param  __a  An allocator.
 492:/usr/include/c++/7/bits/alloc_traits.h ****        *  @return @c __a.max_size()
 493:/usr/include/c++/7/bits/alloc_traits.h ****       */
 494:/usr/include/c++/7/bits/alloc_traits.h ****       static size_type
 495:/usr/include/c++/7/bits/alloc_traits.h ****       max_size(const allocator_type& __a) noexcept
 2994              		.loc 8 495 0
 2995              		.cfi_startproc
 2996 0000 55       		pushq	%rbp
 2997              		.cfi_def_cfa_offset 16
 2998              		.cfi_offset 6, -16
 2999 0001 4889E5   		movq	%rsp, %rbp
 3000              		.cfi_def_cfa_register 6
 3001 0004 4883EC10 		subq	$16, %rsp
 3002 0008 48897DF8 		movq	%rdi, -8(%rbp)
 496:/usr/include/c++/7/bits/alloc_traits.h ****       { return __a.max_size(); }
 3003              		.loc 8 496 0
 3004 000c 488B45F8 		movq	-8(%rbp), %rax
 3005 0010 4889C7   		movq	%rax, %rdi
 3006 0013 E8000000 		call	_ZNK9__gnu_cxx13new_allocatorIdE8max_sizeEv
 3006      00
 3007 0018 C9       		leave
 3008              		.cfi_def_cfa 7, 8
 3009 0019 C3       		ret
 3010              		.cfi_endproc
 3011              	.LFE2401:
 3013              		.section	.text._ZNKSt12_Vector_baseIdSaIdEE19_M_get_Tp_allocatorEv,"axG",@progbits,_ZNKSt12_Vector
 3014              		.align 2
 3015              		.weak	_ZNKSt12_Vector_baseIdSaIdEE19_M_get_Tp_allocatorEv
 3017              	_ZNKSt12_Vector_baseIdSaIdEE19_M_get_Tp_allocatorEv:
 3018              	.LFB2402:
 119:/usr/include/c++/7/bits/stl_vector.h ****       { return *static_cast<const _Tp_alloc_type*>(&this->_M_impl); }
 3019              		.loc 2 119 0
 3020              		.cfi_startproc
 3021 0000 55       		pushq	%rbp
 3022              		.cfi_def_cfa_offset 16
 3023              		.cfi_offset 6, -16
 3024 0001 4889E5   		movq	%rsp, %rbp
 3025              		.cfi_def_cfa_register 6
 3026 0004 48897DF8 		movq	%rdi, -8(%rbp)
 120:/usr/include/c++/7/bits/stl_vector.h **** 
 3027              		.loc 2 120 0
 3028 0008 488B45F8 		movq	-8(%rbp), %rax
 3029 000c 5D       		popq	%rbp
 3030              		.cfi_def_cfa 7, 8
 3031 000d C3       		ret
 3032              		.cfi_endproc
 3033              	.LFE2402:
 3035              		.section	.text._ZN9__gnu_cxx13new_allocatorIdE8allocateEmPKv,"axG",@progbits,_ZN9__gnu_cxx13new_al
 3036              		.align 2
 3037              		.weak	_ZN9__gnu_cxx13new_allocatorIdE8allocateEmPKv
 3039              	_ZN9__gnu_cxx13new_allocatorIdE8allocateEmPKv:
 3040              	.LFB2403:
  99:/usr/include/c++/7/ext/new_allocator.h ****       {
 3041              		.loc 7 99 0
 3042              		.cfi_startproc
 3043 0000 55       		pushq	%rbp
 3044              		.cfi_def_cfa_offset 16
 3045              		.cfi_offset 6, -16
 3046 0001 4889E5   		movq	%rsp, %rbp
 3047              		.cfi_def_cfa_register 6
 3048 0004 4883EC20 		subq	$32, %rsp
 3049 0008 48897DF8 		movq	%rdi, -8(%rbp)
 3050 000c 488975F0 		movq	%rsi, -16(%rbp)
 3051 0010 488955E8 		movq	%rdx, -24(%rbp)
 101:/usr/include/c++/7/ext/new_allocator.h **** 	  std::__throw_bad_alloc();
 3052              		.loc 7 101 0
 3053 0014 488B45F8 		movq	-8(%rbp), %rax
 3054 0018 4889C7   		movq	%rax, %rdi
 3055 001b E8000000 		call	_ZNK9__gnu_cxx13new_allocatorIdE8max_sizeEv
 3055      00
 3056 0020 483945F0 		cmpq	%rax, -16(%rbp)
 3057 0024 0F97C0   		seta	%al
 3058 0027 84C0     		testb	%al, %al
 3059 0029 7405     		je	.L147
 102:/usr/include/c++/7/ext/new_allocator.h **** 
 3060              		.loc 7 102 0
 3061 002b E8000000 		call	_ZSt17__throw_bad_allocv@PLT
 3061      00
 3062              	.L147:
 111:/usr/include/c++/7/ext/new_allocator.h ****       }
 3063              		.loc 7 111 0
 3064 0030 488B45F0 		movq	-16(%rbp), %rax
 3065 0034 48C1E003 		salq	$3, %rax
 3066 0038 4889C7   		movq	%rax, %rdi
 3067 003b E8000000 		call	_Znwm@PLT
 3067      00
 112:/usr/include/c++/7/ext/new_allocator.h **** 
 3068              		.loc 7 112 0
 3069 0040 C9       		leave
 3070              		.cfi_def_cfa 7, 8
 3071 0041 C3       		ret
 3072              		.cfi_endproc
 3073              	.LFE2403:
 3075              		.section	.text._ZNSt13move_iteratorIPdEC2ES0_,"axG",@progbits,_ZNSt13move_iteratorIPdEC5ES0_,comda
 3076              		.align 2
 3077              		.weak	_ZNSt13move_iteratorIPdEC2ES0_
 3079              	_ZNSt13move_iteratorIPdEC2ES0_:
 3080              	.LFB2405:
1036:/usr/include/c++/7/bits/stl_iterator.h ****       : _M_current(__i) { }
 3081              		.loc 10 1036 0
 3082              		.cfi_startproc
 3083 0000 55       		pushq	%rbp
 3084              		.cfi_def_cfa_offset 16
 3085              		.cfi_offset 6, -16
 3086 0001 4889E5   		movq	%rsp, %rbp
 3087              		.cfi_def_cfa_register 6
 3088 0004 48897DF8 		movq	%rdi, -8(%rbp)
 3089 0008 488975F0 		movq	%rsi, -16(%rbp)
 3090              	.LBB39:
1037:/usr/include/c++/7/bits/stl_iterator.h **** 
 3091              		.loc 10 1037 0
 3092 000c 488B45F8 		movq	-8(%rbp), %rax
 3093 0010 488B55F0 		movq	-16(%rbp), %rdx
 3094 0014 488910   		movq	%rdx, (%rax)
 3095              	.LBE39:
 3096 0017 90       		nop
 3097 0018 5D       		popq	%rbp
 3098              		.cfi_def_cfa 7, 8
 3099 0019 C3       		ret
 3100              		.cfi_endproc
 3101              	.LFE2405:
 3103              		.weak	_ZNSt13move_iteratorIPdEC1ES0_
 3104              		.set	_ZNSt13move_iteratorIPdEC1ES0_,_ZNSt13move_iteratorIPdEC2ES0_
 3105              		.section	.text._ZSt18uninitialized_copyISt13move_iteratorIPdES1_ET0_T_S4_S3_,"axG",@progbits,_ZSt1
 3106              		.weak	_ZSt18uninitialized_copyISt13move_iteratorIPdES1_ET0_T_S4_S3_
 3108              	_ZSt18uninitialized_copyISt13move_iteratorIPdES1_ET0_T_S4_S3_:
 3109              	.LFB2407:
 115:/usr/include/c++/7/bits/stl_uninitialized.h **** 		       _ForwardIterator __result)
 3110              		.loc 6 115 0
 3111              		.cfi_startproc
 3112 0000 55       		pushq	%rbp
 3113              		.cfi_def_cfa_offset 16
 3114              		.cfi_offset 6, -16
 3115 0001 4889E5   		movq	%rsp, %rbp
 3116              		.cfi_def_cfa_register 6
 3117 0004 4883EC30 		subq	$48, %rsp
 3118 0008 48897DE8 		movq	%rdi, -24(%rbp)
 3119 000c 488975E0 		movq	%rsi, -32(%rbp)
 3120 0010 488955D8 		movq	%rdx, -40(%rbp)
 128:/usr/include/c++/7/bits/stl_uninitialized.h **** #endif
 3121              		.loc 6 128 0
 3122 0014 C645FF01 		movb	$1, -1(%rbp)
 134:/usr/include/c++/7/bits/stl_uninitialized.h ****     }
 3123              		.loc 6 134 0
 3124 0018 488B55D8 		movq	-40(%rbp), %rdx
 3125 001c 488B4DE0 		movq	-32(%rbp), %rcx
 3126 0020 488B45E8 		movq	-24(%rbp), %rax
 3127 0024 4889CE   		movq	%rcx, %rsi
 3128 0027 4889C7   		movq	%rax, %rdi
 3129 002a E8000000 		call	_ZNSt20__uninitialized_copyILb1EE13__uninit_copyISt13move_iteratorIPdES3_EET0_T_S6_S5_
 3129      00
 135:/usr/include/c++/7/bits/stl_uninitialized.h **** 
 3130              		.loc 6 135 0
 3131 002f C9       		leave
 3132              		.cfi_def_cfa 7, 8
 3133 0030 C3       		ret
 3134              		.cfi_endproc
 3135              	.LFE2407:
 3137              		.section	.text._ZSt6fill_nIPdmdET_S1_T0_RKT1_,"axG",@progbits,_ZSt6fill_nIPdmdET_S1_T0_RKT1_,comda
 3138              		.weak	_ZSt6fill_nIPdmdET_S1_T0_RKT1_
 3140              	_ZSt6fill_nIPdmdET_S1_T0_RKT1_:
 3141              	.LFB2429:
 228:/usr/include/c++/7/bits/stl_algobase.h **** 
 229:/usr/include/c++/7/bits/stl_algobase.h ****   /**
 230:/usr/include/c++/7/bits/stl_algobase.h ****    *  @brief This does what you think it does.
 231:/usr/include/c++/7/bits/stl_algobase.h ****    *  @ingroup sorting_algorithms
 232:/usr/include/c++/7/bits/stl_algobase.h ****    *  @param  __a  A thing of arbitrary type.
 233:/usr/include/c++/7/bits/stl_algobase.h ****    *  @param  __b  Another thing of arbitrary type.
 234:/usr/include/c++/7/bits/stl_algobase.h ****    *  @param  __comp  A @link comparison_functors comparison functor@endlink.
 235:/usr/include/c++/7/bits/stl_algobase.h ****    *  @return   The lesser of the parameters.
 236:/usr/include/c++/7/bits/stl_algobase.h ****    *
 237:/usr/include/c++/7/bits/stl_algobase.h ****    *  This will work on temporary expressions, since they are only evaluated
 238:/usr/include/c++/7/bits/stl_algobase.h ****    *  once, unlike a preprocessor macro.
 239:/usr/include/c++/7/bits/stl_algobase.h ****   */
 240:/usr/include/c++/7/bits/stl_algobase.h ****   template<typename _Tp, typename _Compare>
 241:/usr/include/c++/7/bits/stl_algobase.h ****     _GLIBCXX14_CONSTEXPR
 242:/usr/include/c++/7/bits/stl_algobase.h ****     inline const _Tp&
 243:/usr/include/c++/7/bits/stl_algobase.h ****     min(const _Tp& __a, const _Tp& __b, _Compare __comp)
 244:/usr/include/c++/7/bits/stl_algobase.h ****     {
 245:/usr/include/c++/7/bits/stl_algobase.h ****       //return __comp(__b, __a) ? __b : __a;
 246:/usr/include/c++/7/bits/stl_algobase.h ****       if (__comp(__b, __a))
 247:/usr/include/c++/7/bits/stl_algobase.h **** 	return __b;
 248:/usr/include/c++/7/bits/stl_algobase.h ****       return __a;
 249:/usr/include/c++/7/bits/stl_algobase.h ****     }
 250:/usr/include/c++/7/bits/stl_algobase.h **** 
 251:/usr/include/c++/7/bits/stl_algobase.h ****   /**
 252:/usr/include/c++/7/bits/stl_algobase.h ****    *  @brief This does what you think it does.
 253:/usr/include/c++/7/bits/stl_algobase.h ****    *  @ingroup sorting_algorithms
 254:/usr/include/c++/7/bits/stl_algobase.h ****    *  @param  __a  A thing of arbitrary type.
 255:/usr/include/c++/7/bits/stl_algobase.h ****    *  @param  __b  Another thing of arbitrary type.
 256:/usr/include/c++/7/bits/stl_algobase.h ****    *  @param  __comp  A @link comparison_functors comparison functor@endlink.
 257:/usr/include/c++/7/bits/stl_algobase.h ****    *  @return   The greater of the parameters.
 258:/usr/include/c++/7/bits/stl_algobase.h ****    *
 259:/usr/include/c++/7/bits/stl_algobase.h ****    *  This will work on temporary expressions, since they are only evaluated
 260:/usr/include/c++/7/bits/stl_algobase.h ****    *  once, unlike a preprocessor macro.
 261:/usr/include/c++/7/bits/stl_algobase.h ****   */
 262:/usr/include/c++/7/bits/stl_algobase.h ****   template<typename _Tp, typename _Compare>
 263:/usr/include/c++/7/bits/stl_algobase.h ****     _GLIBCXX14_CONSTEXPR
 264:/usr/include/c++/7/bits/stl_algobase.h ****     inline const _Tp&
 265:/usr/include/c++/7/bits/stl_algobase.h ****     max(const _Tp& __a, const _Tp& __b, _Compare __comp)
 266:/usr/include/c++/7/bits/stl_algobase.h ****     {
 267:/usr/include/c++/7/bits/stl_algobase.h ****       //return __comp(__a, __b) ? __b : __a;
 268:/usr/include/c++/7/bits/stl_algobase.h ****       if (__comp(__a, __b))
 269:/usr/include/c++/7/bits/stl_algobase.h **** 	return __b;
 270:/usr/include/c++/7/bits/stl_algobase.h ****       return __a;
 271:/usr/include/c++/7/bits/stl_algobase.h ****     }
 272:/usr/include/c++/7/bits/stl_algobase.h **** 
 273:/usr/include/c++/7/bits/stl_algobase.h ****   // Fallback implementation of the function in bits/stl_iterator.h used to
 274:/usr/include/c++/7/bits/stl_algobase.h ****   // remove the __normal_iterator wrapper. See copy, fill, ...
 275:/usr/include/c++/7/bits/stl_algobase.h ****   template<typename _Iterator>
 276:/usr/include/c++/7/bits/stl_algobase.h ****     inline _Iterator
 277:/usr/include/c++/7/bits/stl_algobase.h ****     __niter_base(_Iterator __it)
 278:/usr/include/c++/7/bits/stl_algobase.h ****     { return __it; }
 279:/usr/include/c++/7/bits/stl_algobase.h **** 
 280:/usr/include/c++/7/bits/stl_algobase.h ****   // All of these auxiliary structs serve two purposes.  (1) Replace
 281:/usr/include/c++/7/bits/stl_algobase.h ****   // calls to copy with memmove whenever possible.  (Memmove, not memcpy,
 282:/usr/include/c++/7/bits/stl_algobase.h ****   // because the input and output ranges are permitted to overlap.)
 283:/usr/include/c++/7/bits/stl_algobase.h ****   // (2) If we're using random access iterators, then write the loop as
 284:/usr/include/c++/7/bits/stl_algobase.h ****   // a for loop with an explicit count.
 285:/usr/include/c++/7/bits/stl_algobase.h **** 
 286:/usr/include/c++/7/bits/stl_algobase.h ****   template<bool, bool, typename>
 287:/usr/include/c++/7/bits/stl_algobase.h ****     struct __copy_move
 288:/usr/include/c++/7/bits/stl_algobase.h ****     {
 289:/usr/include/c++/7/bits/stl_algobase.h ****       template<typename _II, typename _OI>
 290:/usr/include/c++/7/bits/stl_algobase.h ****         static _OI
 291:/usr/include/c++/7/bits/stl_algobase.h ****         __copy_m(_II __first, _II __last, _OI __result)
 292:/usr/include/c++/7/bits/stl_algobase.h ****         {
 293:/usr/include/c++/7/bits/stl_algobase.h **** 	  for (; __first != __last; ++__result, (void)++__first)
 294:/usr/include/c++/7/bits/stl_algobase.h **** 	    *__result = *__first;
 295:/usr/include/c++/7/bits/stl_algobase.h **** 	  return __result;
 296:/usr/include/c++/7/bits/stl_algobase.h **** 	}
 297:/usr/include/c++/7/bits/stl_algobase.h ****     };
 298:/usr/include/c++/7/bits/stl_algobase.h **** 
 299:/usr/include/c++/7/bits/stl_algobase.h **** #if __cplusplus >= 201103L
 300:/usr/include/c++/7/bits/stl_algobase.h ****   template<typename _Category>
 301:/usr/include/c++/7/bits/stl_algobase.h ****     struct __copy_move<true, false, _Category>
 302:/usr/include/c++/7/bits/stl_algobase.h ****     {
 303:/usr/include/c++/7/bits/stl_algobase.h ****       template<typename _II, typename _OI>
 304:/usr/include/c++/7/bits/stl_algobase.h ****         static _OI
 305:/usr/include/c++/7/bits/stl_algobase.h ****         __copy_m(_II __first, _II __last, _OI __result)
 306:/usr/include/c++/7/bits/stl_algobase.h ****         {
 307:/usr/include/c++/7/bits/stl_algobase.h **** 	  for (; __first != __last; ++__result, (void)++__first)
 308:/usr/include/c++/7/bits/stl_algobase.h **** 	    *__result = std::move(*__first);
 309:/usr/include/c++/7/bits/stl_algobase.h **** 	  return __result;
 310:/usr/include/c++/7/bits/stl_algobase.h **** 	}
 311:/usr/include/c++/7/bits/stl_algobase.h ****     };
 312:/usr/include/c++/7/bits/stl_algobase.h **** #endif
 313:/usr/include/c++/7/bits/stl_algobase.h **** 
 314:/usr/include/c++/7/bits/stl_algobase.h ****   template<>
 315:/usr/include/c++/7/bits/stl_algobase.h ****     struct __copy_move<false, false, random_access_iterator_tag>
 316:/usr/include/c++/7/bits/stl_algobase.h ****     {
 317:/usr/include/c++/7/bits/stl_algobase.h ****       template<typename _II, typename _OI>
 318:/usr/include/c++/7/bits/stl_algobase.h ****         static _OI
 319:/usr/include/c++/7/bits/stl_algobase.h ****         __copy_m(_II __first, _II __last, _OI __result)
 320:/usr/include/c++/7/bits/stl_algobase.h ****         { 
 321:/usr/include/c++/7/bits/stl_algobase.h **** 	  typedef typename iterator_traits<_II>::difference_type _Distance;
 322:/usr/include/c++/7/bits/stl_algobase.h **** 	  for(_Distance __n = __last - __first; __n > 0; --__n)
 323:/usr/include/c++/7/bits/stl_algobase.h **** 	    {
 324:/usr/include/c++/7/bits/stl_algobase.h **** 	      *__result = *__first;
 325:/usr/include/c++/7/bits/stl_algobase.h **** 	      ++__first;
 326:/usr/include/c++/7/bits/stl_algobase.h **** 	      ++__result;
 327:/usr/include/c++/7/bits/stl_algobase.h **** 	    }
 328:/usr/include/c++/7/bits/stl_algobase.h **** 	  return __result;
 329:/usr/include/c++/7/bits/stl_algobase.h **** 	}
 330:/usr/include/c++/7/bits/stl_algobase.h ****     };
 331:/usr/include/c++/7/bits/stl_algobase.h **** 
 332:/usr/include/c++/7/bits/stl_algobase.h **** #if __cplusplus >= 201103L
 333:/usr/include/c++/7/bits/stl_algobase.h ****   template<>
 334:/usr/include/c++/7/bits/stl_algobase.h ****     struct __copy_move<true, false, random_access_iterator_tag>
 335:/usr/include/c++/7/bits/stl_algobase.h ****     {
 336:/usr/include/c++/7/bits/stl_algobase.h ****       template<typename _II, typename _OI>
 337:/usr/include/c++/7/bits/stl_algobase.h ****         static _OI
 338:/usr/include/c++/7/bits/stl_algobase.h ****         __copy_m(_II __first, _II __last, _OI __result)
 339:/usr/include/c++/7/bits/stl_algobase.h ****         { 
 340:/usr/include/c++/7/bits/stl_algobase.h **** 	  typedef typename iterator_traits<_II>::difference_type _Distance;
 341:/usr/include/c++/7/bits/stl_algobase.h **** 	  for(_Distance __n = __last - __first; __n > 0; --__n)
 342:/usr/include/c++/7/bits/stl_algobase.h **** 	    {
 343:/usr/include/c++/7/bits/stl_algobase.h **** 	      *__result = std::move(*__first);
 344:/usr/include/c++/7/bits/stl_algobase.h **** 	      ++__first;
 345:/usr/include/c++/7/bits/stl_algobase.h **** 	      ++__result;
 346:/usr/include/c++/7/bits/stl_algobase.h **** 	    }
 347:/usr/include/c++/7/bits/stl_algobase.h **** 	  return __result;
 348:/usr/include/c++/7/bits/stl_algobase.h **** 	}
 349:/usr/include/c++/7/bits/stl_algobase.h ****     };
 350:/usr/include/c++/7/bits/stl_algobase.h **** #endif
 351:/usr/include/c++/7/bits/stl_algobase.h **** 
 352:/usr/include/c++/7/bits/stl_algobase.h ****   template<bool _IsMove>
 353:/usr/include/c++/7/bits/stl_algobase.h ****     struct __copy_move<_IsMove, true, random_access_iterator_tag>
 354:/usr/include/c++/7/bits/stl_algobase.h ****     {
 355:/usr/include/c++/7/bits/stl_algobase.h ****       template<typename _Tp>
 356:/usr/include/c++/7/bits/stl_algobase.h ****         static _Tp*
 357:/usr/include/c++/7/bits/stl_algobase.h ****         __copy_m(const _Tp* __first, const _Tp* __last, _Tp* __result)
 358:/usr/include/c++/7/bits/stl_algobase.h ****         {
 359:/usr/include/c++/7/bits/stl_algobase.h **** #if __cplusplus >= 201103L
 360:/usr/include/c++/7/bits/stl_algobase.h **** 	  using __assignable = conditional<_IsMove,
 361:/usr/include/c++/7/bits/stl_algobase.h **** 					   is_move_assignable<_Tp>,
 362:/usr/include/c++/7/bits/stl_algobase.h **** 					   is_copy_assignable<_Tp>>;
 363:/usr/include/c++/7/bits/stl_algobase.h **** 	  // trivial types can have deleted assignment
 364:/usr/include/c++/7/bits/stl_algobase.h **** 	  static_assert( __assignable::type::value, "type is not assignable" );
 365:/usr/include/c++/7/bits/stl_algobase.h **** #endif
 366:/usr/include/c++/7/bits/stl_algobase.h **** 	  const ptrdiff_t _Num = __last - __first;
 367:/usr/include/c++/7/bits/stl_algobase.h **** 	  if (_Num)
 368:/usr/include/c++/7/bits/stl_algobase.h **** 	    __builtin_memmove(__result, __first, sizeof(_Tp) * _Num);
 369:/usr/include/c++/7/bits/stl_algobase.h **** 	  return __result + _Num;
 370:/usr/include/c++/7/bits/stl_algobase.h **** 	}
 371:/usr/include/c++/7/bits/stl_algobase.h ****     };
 372:/usr/include/c++/7/bits/stl_algobase.h **** 
 373:/usr/include/c++/7/bits/stl_algobase.h ****   template<bool _IsMove, typename _II, typename _OI>
 374:/usr/include/c++/7/bits/stl_algobase.h ****     inline _OI
 375:/usr/include/c++/7/bits/stl_algobase.h ****     __copy_move_a(_II __first, _II __last, _OI __result)
 376:/usr/include/c++/7/bits/stl_algobase.h ****     {
 377:/usr/include/c++/7/bits/stl_algobase.h ****       typedef typename iterator_traits<_II>::value_type _ValueTypeI;
 378:/usr/include/c++/7/bits/stl_algobase.h ****       typedef typename iterator_traits<_OI>::value_type _ValueTypeO;
 379:/usr/include/c++/7/bits/stl_algobase.h ****       typedef typename iterator_traits<_II>::iterator_category _Category;
 380:/usr/include/c++/7/bits/stl_algobase.h ****       const bool __simple = (__is_trivial(_ValueTypeI)
 381:/usr/include/c++/7/bits/stl_algobase.h **** 	                     && __is_pointer<_II>::__value
 382:/usr/include/c++/7/bits/stl_algobase.h **** 	                     && __is_pointer<_OI>::__value
 383:/usr/include/c++/7/bits/stl_algobase.h **** 			     && __are_same<_ValueTypeI, _ValueTypeO>::__value);
 384:/usr/include/c++/7/bits/stl_algobase.h **** 
 385:/usr/include/c++/7/bits/stl_algobase.h ****       return std::__copy_move<_IsMove, __simple,
 386:/usr/include/c++/7/bits/stl_algobase.h **** 	                      _Category>::__copy_m(__first, __last, __result);
 387:/usr/include/c++/7/bits/stl_algobase.h ****     }
 388:/usr/include/c++/7/bits/stl_algobase.h **** 
 389:/usr/include/c++/7/bits/stl_algobase.h ****   // Helpers for streambuf iterators (either istream or ostream).
 390:/usr/include/c++/7/bits/stl_algobase.h ****   // NB: avoid including <iosfwd>, relatively large.
 391:/usr/include/c++/7/bits/stl_algobase.h ****   template<typename _CharT>
 392:/usr/include/c++/7/bits/stl_algobase.h ****     struct char_traits;
 393:/usr/include/c++/7/bits/stl_algobase.h **** 
 394:/usr/include/c++/7/bits/stl_algobase.h ****   template<typename _CharT, typename _Traits>
 395:/usr/include/c++/7/bits/stl_algobase.h ****     class istreambuf_iterator;
 396:/usr/include/c++/7/bits/stl_algobase.h **** 
 397:/usr/include/c++/7/bits/stl_algobase.h ****   template<typename _CharT, typename _Traits>
 398:/usr/include/c++/7/bits/stl_algobase.h ****     class ostreambuf_iterator;
 399:/usr/include/c++/7/bits/stl_algobase.h **** 
 400:/usr/include/c++/7/bits/stl_algobase.h ****   template<bool _IsMove, typename _CharT>
 401:/usr/include/c++/7/bits/stl_algobase.h ****     typename __gnu_cxx::__enable_if<__is_char<_CharT>::__value, 
 402:/usr/include/c++/7/bits/stl_algobase.h **** 	     ostreambuf_iterator<_CharT, char_traits<_CharT> > >::__type
 403:/usr/include/c++/7/bits/stl_algobase.h ****     __copy_move_a2(_CharT*, _CharT*,
 404:/usr/include/c++/7/bits/stl_algobase.h **** 		   ostreambuf_iterator<_CharT, char_traits<_CharT> >);
 405:/usr/include/c++/7/bits/stl_algobase.h **** 
 406:/usr/include/c++/7/bits/stl_algobase.h ****   template<bool _IsMove, typename _CharT>
 407:/usr/include/c++/7/bits/stl_algobase.h ****     typename __gnu_cxx::__enable_if<__is_char<_CharT>::__value, 
 408:/usr/include/c++/7/bits/stl_algobase.h **** 	     ostreambuf_iterator<_CharT, char_traits<_CharT> > >::__type
 409:/usr/include/c++/7/bits/stl_algobase.h ****     __copy_move_a2(const _CharT*, const _CharT*,
 410:/usr/include/c++/7/bits/stl_algobase.h **** 		   ostreambuf_iterator<_CharT, char_traits<_CharT> >);
 411:/usr/include/c++/7/bits/stl_algobase.h **** 
 412:/usr/include/c++/7/bits/stl_algobase.h ****   template<bool _IsMove, typename _CharT>
 413:/usr/include/c++/7/bits/stl_algobase.h ****     typename __gnu_cxx::__enable_if<__is_char<_CharT>::__value,
 414:/usr/include/c++/7/bits/stl_algobase.h **** 				    _CharT*>::__type
 415:/usr/include/c++/7/bits/stl_algobase.h ****     __copy_move_a2(istreambuf_iterator<_CharT, char_traits<_CharT> >,
 416:/usr/include/c++/7/bits/stl_algobase.h **** 		   istreambuf_iterator<_CharT, char_traits<_CharT> >, _CharT*);
 417:/usr/include/c++/7/bits/stl_algobase.h **** 
 418:/usr/include/c++/7/bits/stl_algobase.h ****   template<bool _IsMove, typename _II, typename _OI>
 419:/usr/include/c++/7/bits/stl_algobase.h ****     inline _OI
 420:/usr/include/c++/7/bits/stl_algobase.h ****     __copy_move_a2(_II __first, _II __last, _OI __result)
 421:/usr/include/c++/7/bits/stl_algobase.h ****     {
 422:/usr/include/c++/7/bits/stl_algobase.h ****       return _OI(std::__copy_move_a<_IsMove>(std::__niter_base(__first),
 423:/usr/include/c++/7/bits/stl_algobase.h **** 					     std::__niter_base(__last),
 424:/usr/include/c++/7/bits/stl_algobase.h **** 					     std::__niter_base(__result)));
 425:/usr/include/c++/7/bits/stl_algobase.h ****     }
 426:/usr/include/c++/7/bits/stl_algobase.h **** 
 427:/usr/include/c++/7/bits/stl_algobase.h ****   /**
 428:/usr/include/c++/7/bits/stl_algobase.h ****    *  @brief Copies the range [first,last) into result.
 429:/usr/include/c++/7/bits/stl_algobase.h ****    *  @ingroup mutating_algorithms
 430:/usr/include/c++/7/bits/stl_algobase.h ****    *  @param  __first  An input iterator.
 431:/usr/include/c++/7/bits/stl_algobase.h ****    *  @param  __last   An input iterator.
 432:/usr/include/c++/7/bits/stl_algobase.h ****    *  @param  __result An output iterator.
 433:/usr/include/c++/7/bits/stl_algobase.h ****    *  @return   result + (first - last)
 434:/usr/include/c++/7/bits/stl_algobase.h ****    *
 435:/usr/include/c++/7/bits/stl_algobase.h ****    *  This inline function will boil down to a call to @c memmove whenever
 436:/usr/include/c++/7/bits/stl_algobase.h ****    *  possible.  Failing that, if random access iterators are passed, then the
 437:/usr/include/c++/7/bits/stl_algobase.h ****    *  loop count will be known (and therefore a candidate for compiler
 438:/usr/include/c++/7/bits/stl_algobase.h ****    *  optimizations such as unrolling).  Result may not be contained within
 439:/usr/include/c++/7/bits/stl_algobase.h ****    *  [first,last); the copy_backward function should be used instead.
 440:/usr/include/c++/7/bits/stl_algobase.h ****    *
 441:/usr/include/c++/7/bits/stl_algobase.h ****    *  Note that the end of the output range is permitted to be contained
 442:/usr/include/c++/7/bits/stl_algobase.h ****    *  within [first,last).
 443:/usr/include/c++/7/bits/stl_algobase.h ****   */
 444:/usr/include/c++/7/bits/stl_algobase.h ****   template<typename _II, typename _OI>
 445:/usr/include/c++/7/bits/stl_algobase.h ****     inline _OI
 446:/usr/include/c++/7/bits/stl_algobase.h ****     copy(_II __first, _II __last, _OI __result)
 447:/usr/include/c++/7/bits/stl_algobase.h ****     {
 448:/usr/include/c++/7/bits/stl_algobase.h ****       // concept requirements
 449:/usr/include/c++/7/bits/stl_algobase.h ****       __glibcxx_function_requires(_InputIteratorConcept<_II>)
 450:/usr/include/c++/7/bits/stl_algobase.h ****       __glibcxx_function_requires(_OutputIteratorConcept<_OI,
 451:/usr/include/c++/7/bits/stl_algobase.h **** 	    typename iterator_traits<_II>::value_type>)
 452:/usr/include/c++/7/bits/stl_algobase.h ****       __glibcxx_requires_valid_range(__first, __last);
 453:/usr/include/c++/7/bits/stl_algobase.h **** 
 454:/usr/include/c++/7/bits/stl_algobase.h ****       return (std::__copy_move_a2<__is_move_iterator<_II>::__value>
 455:/usr/include/c++/7/bits/stl_algobase.h **** 	      (std::__miter_base(__first), std::__miter_base(__last),
 456:/usr/include/c++/7/bits/stl_algobase.h **** 	       __result));
 457:/usr/include/c++/7/bits/stl_algobase.h ****     }
 458:/usr/include/c++/7/bits/stl_algobase.h **** 
 459:/usr/include/c++/7/bits/stl_algobase.h **** #if __cplusplus >= 201103L
 460:/usr/include/c++/7/bits/stl_algobase.h ****   /**
 461:/usr/include/c++/7/bits/stl_algobase.h ****    *  @brief Moves the range [first,last) into result.
 462:/usr/include/c++/7/bits/stl_algobase.h ****    *  @ingroup mutating_algorithms
 463:/usr/include/c++/7/bits/stl_algobase.h ****    *  @param  __first  An input iterator.
 464:/usr/include/c++/7/bits/stl_algobase.h ****    *  @param  __last   An input iterator.
 465:/usr/include/c++/7/bits/stl_algobase.h ****    *  @param  __result An output iterator.
 466:/usr/include/c++/7/bits/stl_algobase.h ****    *  @return   result + (first - last)
 467:/usr/include/c++/7/bits/stl_algobase.h ****    *
 468:/usr/include/c++/7/bits/stl_algobase.h ****    *  This inline function will boil down to a call to @c memmove whenever
 469:/usr/include/c++/7/bits/stl_algobase.h ****    *  possible.  Failing that, if random access iterators are passed, then the
 470:/usr/include/c++/7/bits/stl_algobase.h ****    *  loop count will be known (and therefore a candidate for compiler
 471:/usr/include/c++/7/bits/stl_algobase.h ****    *  optimizations such as unrolling).  Result may not be contained within
 472:/usr/include/c++/7/bits/stl_algobase.h ****    *  [first,last); the move_backward function should be used instead.
 473:/usr/include/c++/7/bits/stl_algobase.h ****    *
 474:/usr/include/c++/7/bits/stl_algobase.h ****    *  Note that the end of the output range is permitted to be contained
 475:/usr/include/c++/7/bits/stl_algobase.h ****    *  within [first,last).
 476:/usr/include/c++/7/bits/stl_algobase.h ****   */
 477:/usr/include/c++/7/bits/stl_algobase.h ****   template<typename _II, typename _OI>
 478:/usr/include/c++/7/bits/stl_algobase.h ****     inline _OI
 479:/usr/include/c++/7/bits/stl_algobase.h ****     move(_II __first, _II __last, _OI __result)
 480:/usr/include/c++/7/bits/stl_algobase.h ****     {
 481:/usr/include/c++/7/bits/stl_algobase.h ****       // concept requirements
 482:/usr/include/c++/7/bits/stl_algobase.h ****       __glibcxx_function_requires(_InputIteratorConcept<_II>)
 483:/usr/include/c++/7/bits/stl_algobase.h ****       __glibcxx_function_requires(_OutputIteratorConcept<_OI,
 484:/usr/include/c++/7/bits/stl_algobase.h **** 	    typename iterator_traits<_II>::value_type>)
 485:/usr/include/c++/7/bits/stl_algobase.h ****       __glibcxx_requires_valid_range(__first, __last);
 486:/usr/include/c++/7/bits/stl_algobase.h **** 
 487:/usr/include/c++/7/bits/stl_algobase.h ****       return std::__copy_move_a2<true>(std::__miter_base(__first),
 488:/usr/include/c++/7/bits/stl_algobase.h **** 				       std::__miter_base(__last), __result);
 489:/usr/include/c++/7/bits/stl_algobase.h ****     }
 490:/usr/include/c++/7/bits/stl_algobase.h **** 
 491:/usr/include/c++/7/bits/stl_algobase.h **** #define _GLIBCXX_MOVE3(_Tp, _Up, _Vp) std::move(_Tp, _Up, _Vp)
 492:/usr/include/c++/7/bits/stl_algobase.h **** #else
 493:/usr/include/c++/7/bits/stl_algobase.h **** #define _GLIBCXX_MOVE3(_Tp, _Up, _Vp) std::copy(_Tp, _Up, _Vp)
 494:/usr/include/c++/7/bits/stl_algobase.h **** #endif
 495:/usr/include/c++/7/bits/stl_algobase.h **** 
 496:/usr/include/c++/7/bits/stl_algobase.h ****   template<bool, bool, typename>
 497:/usr/include/c++/7/bits/stl_algobase.h ****     struct __copy_move_backward
 498:/usr/include/c++/7/bits/stl_algobase.h ****     {
 499:/usr/include/c++/7/bits/stl_algobase.h ****       template<typename _BI1, typename _BI2>
 500:/usr/include/c++/7/bits/stl_algobase.h ****         static _BI2
 501:/usr/include/c++/7/bits/stl_algobase.h ****         __copy_move_b(_BI1 __first, _BI1 __last, _BI2 __result)
 502:/usr/include/c++/7/bits/stl_algobase.h ****         {
 503:/usr/include/c++/7/bits/stl_algobase.h **** 	  while (__first != __last)
 504:/usr/include/c++/7/bits/stl_algobase.h **** 	    *--__result = *--__last;
 505:/usr/include/c++/7/bits/stl_algobase.h **** 	  return __result;
 506:/usr/include/c++/7/bits/stl_algobase.h **** 	}
 507:/usr/include/c++/7/bits/stl_algobase.h ****     };
 508:/usr/include/c++/7/bits/stl_algobase.h **** 
 509:/usr/include/c++/7/bits/stl_algobase.h **** #if __cplusplus >= 201103L
 510:/usr/include/c++/7/bits/stl_algobase.h ****   template<typename _Category>
 511:/usr/include/c++/7/bits/stl_algobase.h ****     struct __copy_move_backward<true, false, _Category>
 512:/usr/include/c++/7/bits/stl_algobase.h ****     {
 513:/usr/include/c++/7/bits/stl_algobase.h ****       template<typename _BI1, typename _BI2>
 514:/usr/include/c++/7/bits/stl_algobase.h ****         static _BI2
 515:/usr/include/c++/7/bits/stl_algobase.h ****         __copy_move_b(_BI1 __first, _BI1 __last, _BI2 __result)
 516:/usr/include/c++/7/bits/stl_algobase.h ****         {
 517:/usr/include/c++/7/bits/stl_algobase.h **** 	  while (__first != __last)
 518:/usr/include/c++/7/bits/stl_algobase.h **** 	    *--__result = std::move(*--__last);
 519:/usr/include/c++/7/bits/stl_algobase.h **** 	  return __result;
 520:/usr/include/c++/7/bits/stl_algobase.h **** 	}
 521:/usr/include/c++/7/bits/stl_algobase.h ****     };
 522:/usr/include/c++/7/bits/stl_algobase.h **** #endif
 523:/usr/include/c++/7/bits/stl_algobase.h **** 
 524:/usr/include/c++/7/bits/stl_algobase.h ****   template<>
 525:/usr/include/c++/7/bits/stl_algobase.h ****     struct __copy_move_backward<false, false, random_access_iterator_tag>
 526:/usr/include/c++/7/bits/stl_algobase.h ****     {
 527:/usr/include/c++/7/bits/stl_algobase.h ****       template<typename _BI1, typename _BI2>
 528:/usr/include/c++/7/bits/stl_algobase.h ****         static _BI2
 529:/usr/include/c++/7/bits/stl_algobase.h ****         __copy_move_b(_BI1 __first, _BI1 __last, _BI2 __result)
 530:/usr/include/c++/7/bits/stl_algobase.h ****         {
 531:/usr/include/c++/7/bits/stl_algobase.h **** 	  typename iterator_traits<_BI1>::difference_type __n;
 532:/usr/include/c++/7/bits/stl_algobase.h **** 	  for (__n = __last - __first; __n > 0; --__n)
 533:/usr/include/c++/7/bits/stl_algobase.h **** 	    *--__result = *--__last;
 534:/usr/include/c++/7/bits/stl_algobase.h **** 	  return __result;
 535:/usr/include/c++/7/bits/stl_algobase.h **** 	}
 536:/usr/include/c++/7/bits/stl_algobase.h ****     };
 537:/usr/include/c++/7/bits/stl_algobase.h **** 
 538:/usr/include/c++/7/bits/stl_algobase.h **** #if __cplusplus >= 201103L
 539:/usr/include/c++/7/bits/stl_algobase.h ****   template<>
 540:/usr/include/c++/7/bits/stl_algobase.h ****     struct __copy_move_backward<true, false, random_access_iterator_tag>
 541:/usr/include/c++/7/bits/stl_algobase.h ****     {
 542:/usr/include/c++/7/bits/stl_algobase.h ****       template<typename _BI1, typename _BI2>
 543:/usr/include/c++/7/bits/stl_algobase.h ****         static _BI2
 544:/usr/include/c++/7/bits/stl_algobase.h ****         __copy_move_b(_BI1 __first, _BI1 __last, _BI2 __result)
 545:/usr/include/c++/7/bits/stl_algobase.h ****         {
 546:/usr/include/c++/7/bits/stl_algobase.h **** 	  typename iterator_traits<_BI1>::difference_type __n;
 547:/usr/include/c++/7/bits/stl_algobase.h **** 	  for (__n = __last - __first; __n > 0; --__n)
 548:/usr/include/c++/7/bits/stl_algobase.h **** 	    *--__result = std::move(*--__last);
 549:/usr/include/c++/7/bits/stl_algobase.h **** 	  return __result;
 550:/usr/include/c++/7/bits/stl_algobase.h **** 	}
 551:/usr/include/c++/7/bits/stl_algobase.h ****     };
 552:/usr/include/c++/7/bits/stl_algobase.h **** #endif
 553:/usr/include/c++/7/bits/stl_algobase.h **** 
 554:/usr/include/c++/7/bits/stl_algobase.h ****   template<bool _IsMove>
 555:/usr/include/c++/7/bits/stl_algobase.h ****     struct __copy_move_backward<_IsMove, true, random_access_iterator_tag>
 556:/usr/include/c++/7/bits/stl_algobase.h ****     {
 557:/usr/include/c++/7/bits/stl_algobase.h ****       template<typename _Tp>
 558:/usr/include/c++/7/bits/stl_algobase.h ****         static _Tp*
 559:/usr/include/c++/7/bits/stl_algobase.h ****         __copy_move_b(const _Tp* __first, const _Tp* __last, _Tp* __result)
 560:/usr/include/c++/7/bits/stl_algobase.h ****         {
 561:/usr/include/c++/7/bits/stl_algobase.h **** #if __cplusplus >= 201103L
 562:/usr/include/c++/7/bits/stl_algobase.h **** 	  using __assignable = conditional<_IsMove,
 563:/usr/include/c++/7/bits/stl_algobase.h **** 					   is_move_assignable<_Tp>,
 564:/usr/include/c++/7/bits/stl_algobase.h **** 					   is_copy_assignable<_Tp>>;
 565:/usr/include/c++/7/bits/stl_algobase.h **** 	  // trivial types can have deleted assignment
 566:/usr/include/c++/7/bits/stl_algobase.h **** 	  static_assert( __assignable::type::value, "type is not assignable" );
 567:/usr/include/c++/7/bits/stl_algobase.h **** #endif
 568:/usr/include/c++/7/bits/stl_algobase.h **** 	  const ptrdiff_t _Num = __last - __first;
 569:/usr/include/c++/7/bits/stl_algobase.h **** 	  if (_Num)
 570:/usr/include/c++/7/bits/stl_algobase.h **** 	    __builtin_memmove(__result - _Num, __first, sizeof(_Tp) * _Num);
 571:/usr/include/c++/7/bits/stl_algobase.h **** 	  return __result - _Num;
 572:/usr/include/c++/7/bits/stl_algobase.h **** 	}
 573:/usr/include/c++/7/bits/stl_algobase.h ****     };
 574:/usr/include/c++/7/bits/stl_algobase.h **** 
 575:/usr/include/c++/7/bits/stl_algobase.h ****   template<bool _IsMove, typename _BI1, typename _BI2>
 576:/usr/include/c++/7/bits/stl_algobase.h ****     inline _BI2
 577:/usr/include/c++/7/bits/stl_algobase.h ****     __copy_move_backward_a(_BI1 __first, _BI1 __last, _BI2 __result)
 578:/usr/include/c++/7/bits/stl_algobase.h ****     {
 579:/usr/include/c++/7/bits/stl_algobase.h ****       typedef typename iterator_traits<_BI1>::value_type _ValueType1;
 580:/usr/include/c++/7/bits/stl_algobase.h ****       typedef typename iterator_traits<_BI2>::value_type _ValueType2;
 581:/usr/include/c++/7/bits/stl_algobase.h ****       typedef typename iterator_traits<_BI1>::iterator_category _Category;
 582:/usr/include/c++/7/bits/stl_algobase.h ****       const bool __simple = (__is_trivial(_ValueType1)
 583:/usr/include/c++/7/bits/stl_algobase.h **** 	                     && __is_pointer<_BI1>::__value
 584:/usr/include/c++/7/bits/stl_algobase.h **** 	                     && __is_pointer<_BI2>::__value
 585:/usr/include/c++/7/bits/stl_algobase.h **** 			     && __are_same<_ValueType1, _ValueType2>::__value);
 586:/usr/include/c++/7/bits/stl_algobase.h **** 
 587:/usr/include/c++/7/bits/stl_algobase.h ****       return std::__copy_move_backward<_IsMove, __simple,
 588:/usr/include/c++/7/bits/stl_algobase.h **** 	                               _Category>::__copy_move_b(__first,
 589:/usr/include/c++/7/bits/stl_algobase.h **** 								 __last,
 590:/usr/include/c++/7/bits/stl_algobase.h **** 								 __result);
 591:/usr/include/c++/7/bits/stl_algobase.h ****     }
 592:/usr/include/c++/7/bits/stl_algobase.h **** 
 593:/usr/include/c++/7/bits/stl_algobase.h ****   template<bool _IsMove, typename _BI1, typename _BI2>
 594:/usr/include/c++/7/bits/stl_algobase.h ****     inline _BI2
 595:/usr/include/c++/7/bits/stl_algobase.h ****     __copy_move_backward_a2(_BI1 __first, _BI1 __last, _BI2 __result)
 596:/usr/include/c++/7/bits/stl_algobase.h ****     {
 597:/usr/include/c++/7/bits/stl_algobase.h ****       return _BI2(std::__copy_move_backward_a<_IsMove>
 598:/usr/include/c++/7/bits/stl_algobase.h **** 		  (std::__niter_base(__first), std::__niter_base(__last),
 599:/usr/include/c++/7/bits/stl_algobase.h **** 		   std::__niter_base(__result)));
 600:/usr/include/c++/7/bits/stl_algobase.h ****     }
 601:/usr/include/c++/7/bits/stl_algobase.h **** 
 602:/usr/include/c++/7/bits/stl_algobase.h ****   /**
 603:/usr/include/c++/7/bits/stl_algobase.h ****    *  @brief Copies the range [first,last) into result.
 604:/usr/include/c++/7/bits/stl_algobase.h ****    *  @ingroup mutating_algorithms
 605:/usr/include/c++/7/bits/stl_algobase.h ****    *  @param  __first  A bidirectional iterator.
 606:/usr/include/c++/7/bits/stl_algobase.h ****    *  @param  __last   A bidirectional iterator.
 607:/usr/include/c++/7/bits/stl_algobase.h ****    *  @param  __result A bidirectional iterator.
 608:/usr/include/c++/7/bits/stl_algobase.h ****    *  @return   result - (first - last)
 609:/usr/include/c++/7/bits/stl_algobase.h ****    *
 610:/usr/include/c++/7/bits/stl_algobase.h ****    *  The function has the same effect as copy, but starts at the end of the
 611:/usr/include/c++/7/bits/stl_algobase.h ****    *  range and works its way to the start, returning the start of the result.
 612:/usr/include/c++/7/bits/stl_algobase.h ****    *  This inline function will boil down to a call to @c memmove whenever
 613:/usr/include/c++/7/bits/stl_algobase.h ****    *  possible.  Failing that, if random access iterators are passed, then the
 614:/usr/include/c++/7/bits/stl_algobase.h ****    *  loop count will be known (and therefore a candidate for compiler
 615:/usr/include/c++/7/bits/stl_algobase.h ****    *  optimizations such as unrolling).
 616:/usr/include/c++/7/bits/stl_algobase.h ****    *
 617:/usr/include/c++/7/bits/stl_algobase.h ****    *  Result may not be in the range (first,last].  Use copy instead.  Note
 618:/usr/include/c++/7/bits/stl_algobase.h ****    *  that the start of the output range may overlap [first,last).
 619:/usr/include/c++/7/bits/stl_algobase.h ****   */
 620:/usr/include/c++/7/bits/stl_algobase.h ****   template<typename _BI1, typename _BI2>
 621:/usr/include/c++/7/bits/stl_algobase.h ****     inline _BI2
 622:/usr/include/c++/7/bits/stl_algobase.h ****     copy_backward(_BI1 __first, _BI1 __last, _BI2 __result)
 623:/usr/include/c++/7/bits/stl_algobase.h ****     {
 624:/usr/include/c++/7/bits/stl_algobase.h ****       // concept requirements
 625:/usr/include/c++/7/bits/stl_algobase.h ****       __glibcxx_function_requires(_BidirectionalIteratorConcept<_BI1>)
 626:/usr/include/c++/7/bits/stl_algobase.h ****       __glibcxx_function_requires(_Mutable_BidirectionalIteratorConcept<_BI2>)
 627:/usr/include/c++/7/bits/stl_algobase.h ****       __glibcxx_function_requires(_ConvertibleConcept<
 628:/usr/include/c++/7/bits/stl_algobase.h **** 	    typename iterator_traits<_BI1>::value_type,
 629:/usr/include/c++/7/bits/stl_algobase.h **** 	    typename iterator_traits<_BI2>::value_type>)
 630:/usr/include/c++/7/bits/stl_algobase.h ****       __glibcxx_requires_valid_range(__first, __last);
 631:/usr/include/c++/7/bits/stl_algobase.h **** 
 632:/usr/include/c++/7/bits/stl_algobase.h ****       return (std::__copy_move_backward_a2<__is_move_iterator<_BI1>::__value>
 633:/usr/include/c++/7/bits/stl_algobase.h **** 	      (std::__miter_base(__first), std::__miter_base(__last),
 634:/usr/include/c++/7/bits/stl_algobase.h **** 	       __result));
 635:/usr/include/c++/7/bits/stl_algobase.h ****     }
 636:/usr/include/c++/7/bits/stl_algobase.h **** 
 637:/usr/include/c++/7/bits/stl_algobase.h **** #if __cplusplus >= 201103L
 638:/usr/include/c++/7/bits/stl_algobase.h ****   /**
 639:/usr/include/c++/7/bits/stl_algobase.h ****    *  @brief Moves the range [first,last) into result.
 640:/usr/include/c++/7/bits/stl_algobase.h ****    *  @ingroup mutating_algorithms
 641:/usr/include/c++/7/bits/stl_algobase.h ****    *  @param  __first  A bidirectional iterator.
 642:/usr/include/c++/7/bits/stl_algobase.h ****    *  @param  __last   A bidirectional iterator.
 643:/usr/include/c++/7/bits/stl_algobase.h ****    *  @param  __result A bidirectional iterator.
 644:/usr/include/c++/7/bits/stl_algobase.h ****    *  @return   result - (first - last)
 645:/usr/include/c++/7/bits/stl_algobase.h ****    *
 646:/usr/include/c++/7/bits/stl_algobase.h ****    *  The function has the same effect as move, but starts at the end of the
 647:/usr/include/c++/7/bits/stl_algobase.h ****    *  range and works its way to the start, returning the start of the result.
 648:/usr/include/c++/7/bits/stl_algobase.h ****    *  This inline function will boil down to a call to @c memmove whenever
 649:/usr/include/c++/7/bits/stl_algobase.h ****    *  possible.  Failing that, if random access iterators are passed, then the
 650:/usr/include/c++/7/bits/stl_algobase.h ****    *  loop count will be known (and therefore a candidate for compiler
 651:/usr/include/c++/7/bits/stl_algobase.h ****    *  optimizations such as unrolling).
 652:/usr/include/c++/7/bits/stl_algobase.h ****    *
 653:/usr/include/c++/7/bits/stl_algobase.h ****    *  Result may not be in the range (first,last].  Use move instead.  Note
 654:/usr/include/c++/7/bits/stl_algobase.h ****    *  that the start of the output range may overlap [first,last).
 655:/usr/include/c++/7/bits/stl_algobase.h ****   */
 656:/usr/include/c++/7/bits/stl_algobase.h ****   template<typename _BI1, typename _BI2>
 657:/usr/include/c++/7/bits/stl_algobase.h ****     inline _BI2
 658:/usr/include/c++/7/bits/stl_algobase.h ****     move_backward(_BI1 __first, _BI1 __last, _BI2 __result)
 659:/usr/include/c++/7/bits/stl_algobase.h ****     {
 660:/usr/include/c++/7/bits/stl_algobase.h ****       // concept requirements
 661:/usr/include/c++/7/bits/stl_algobase.h ****       __glibcxx_function_requires(_BidirectionalIteratorConcept<_BI1>)
 662:/usr/include/c++/7/bits/stl_algobase.h ****       __glibcxx_function_requires(_Mutable_BidirectionalIteratorConcept<_BI2>)
 663:/usr/include/c++/7/bits/stl_algobase.h ****       __glibcxx_function_requires(_ConvertibleConcept<
 664:/usr/include/c++/7/bits/stl_algobase.h **** 	    typename iterator_traits<_BI1>::value_type,
 665:/usr/include/c++/7/bits/stl_algobase.h **** 	    typename iterator_traits<_BI2>::value_type>)
 666:/usr/include/c++/7/bits/stl_algobase.h ****       __glibcxx_requires_valid_range(__first, __last);
 667:/usr/include/c++/7/bits/stl_algobase.h **** 
 668:/usr/include/c++/7/bits/stl_algobase.h ****       return std::__copy_move_backward_a2<true>(std::__miter_base(__first),
 669:/usr/include/c++/7/bits/stl_algobase.h **** 						std::__miter_base(__last),
 670:/usr/include/c++/7/bits/stl_algobase.h **** 						__result);
 671:/usr/include/c++/7/bits/stl_algobase.h ****     }
 672:/usr/include/c++/7/bits/stl_algobase.h **** 
 673:/usr/include/c++/7/bits/stl_algobase.h **** #define _GLIBCXX_MOVE_BACKWARD3(_Tp, _Up, _Vp) std::move_backward(_Tp, _Up, _Vp)
 674:/usr/include/c++/7/bits/stl_algobase.h **** #else
 675:/usr/include/c++/7/bits/stl_algobase.h **** #define _GLIBCXX_MOVE_BACKWARD3(_Tp, _Up, _Vp) std::copy_backward(_Tp, _Up, _Vp)
 676:/usr/include/c++/7/bits/stl_algobase.h **** #endif
 677:/usr/include/c++/7/bits/stl_algobase.h **** 
 678:/usr/include/c++/7/bits/stl_algobase.h ****   template<typename _ForwardIterator, typename _Tp>
 679:/usr/include/c++/7/bits/stl_algobase.h ****     inline typename
 680:/usr/include/c++/7/bits/stl_algobase.h ****     __gnu_cxx::__enable_if<!__is_scalar<_Tp>::__value, void>::__type
 681:/usr/include/c++/7/bits/stl_algobase.h ****     __fill_a(_ForwardIterator __first, _ForwardIterator __last,
 682:/usr/include/c++/7/bits/stl_algobase.h ****  	     const _Tp& __value)
 683:/usr/include/c++/7/bits/stl_algobase.h ****     {
 684:/usr/include/c++/7/bits/stl_algobase.h ****       for (; __first != __last; ++__first)
 685:/usr/include/c++/7/bits/stl_algobase.h **** 	*__first = __value;
 686:/usr/include/c++/7/bits/stl_algobase.h ****     }
 687:/usr/include/c++/7/bits/stl_algobase.h ****     
 688:/usr/include/c++/7/bits/stl_algobase.h ****   template<typename _ForwardIterator, typename _Tp>
 689:/usr/include/c++/7/bits/stl_algobase.h ****     inline typename
 690:/usr/include/c++/7/bits/stl_algobase.h ****     __gnu_cxx::__enable_if<__is_scalar<_Tp>::__value, void>::__type
 691:/usr/include/c++/7/bits/stl_algobase.h ****     __fill_a(_ForwardIterator __first, _ForwardIterator __last,
 692:/usr/include/c++/7/bits/stl_algobase.h **** 	     const _Tp& __value)
 693:/usr/include/c++/7/bits/stl_algobase.h ****     {
 694:/usr/include/c++/7/bits/stl_algobase.h ****       const _Tp __tmp = __value;
 695:/usr/include/c++/7/bits/stl_algobase.h ****       for (; __first != __last; ++__first)
 696:/usr/include/c++/7/bits/stl_algobase.h **** 	*__first = __tmp;
 697:/usr/include/c++/7/bits/stl_algobase.h ****     }
 698:/usr/include/c++/7/bits/stl_algobase.h **** 
 699:/usr/include/c++/7/bits/stl_algobase.h ****   // Specialization: for char types we can use memset.
 700:/usr/include/c++/7/bits/stl_algobase.h ****   template<typename _Tp>
 701:/usr/include/c++/7/bits/stl_algobase.h ****     inline typename
 702:/usr/include/c++/7/bits/stl_algobase.h ****     __gnu_cxx::__enable_if<__is_byte<_Tp>::__value, void>::__type
 703:/usr/include/c++/7/bits/stl_algobase.h ****     __fill_a(_Tp* __first, _Tp* __last, const _Tp& __c)
 704:/usr/include/c++/7/bits/stl_algobase.h ****     {
 705:/usr/include/c++/7/bits/stl_algobase.h ****       const _Tp __tmp = __c;
 706:/usr/include/c++/7/bits/stl_algobase.h ****       if (const size_t __len = __last - __first)
 707:/usr/include/c++/7/bits/stl_algobase.h **** 	__builtin_memset(__first, static_cast<unsigned char>(__tmp), __len);
 708:/usr/include/c++/7/bits/stl_algobase.h ****     }
 709:/usr/include/c++/7/bits/stl_algobase.h **** 
 710:/usr/include/c++/7/bits/stl_algobase.h ****   /**
 711:/usr/include/c++/7/bits/stl_algobase.h ****    *  @brief Fills the range [first,last) with copies of value.
 712:/usr/include/c++/7/bits/stl_algobase.h ****    *  @ingroup mutating_algorithms
 713:/usr/include/c++/7/bits/stl_algobase.h ****    *  @param  __first  A forward iterator.
 714:/usr/include/c++/7/bits/stl_algobase.h ****    *  @param  __last   A forward iterator.
 715:/usr/include/c++/7/bits/stl_algobase.h ****    *  @param  __value  A reference-to-const of arbitrary type.
 716:/usr/include/c++/7/bits/stl_algobase.h ****    *  @return   Nothing.
 717:/usr/include/c++/7/bits/stl_algobase.h ****    *
 718:/usr/include/c++/7/bits/stl_algobase.h ****    *  This function fills a range with copies of the same value.  For char
 719:/usr/include/c++/7/bits/stl_algobase.h ****    *  types filling contiguous areas of memory, this becomes an inline call
 720:/usr/include/c++/7/bits/stl_algobase.h ****    *  to @c memset or @c wmemset.
 721:/usr/include/c++/7/bits/stl_algobase.h ****   */
 722:/usr/include/c++/7/bits/stl_algobase.h ****   template<typename _ForwardIterator, typename _Tp>
 723:/usr/include/c++/7/bits/stl_algobase.h ****     inline void
 724:/usr/include/c++/7/bits/stl_algobase.h ****     fill(_ForwardIterator __first, _ForwardIterator __last, const _Tp& __value)
 725:/usr/include/c++/7/bits/stl_algobase.h ****     {
 726:/usr/include/c++/7/bits/stl_algobase.h ****       // concept requirements
 727:/usr/include/c++/7/bits/stl_algobase.h ****       __glibcxx_function_requires(_Mutable_ForwardIteratorConcept<
 728:/usr/include/c++/7/bits/stl_algobase.h **** 				  _ForwardIterator>)
 729:/usr/include/c++/7/bits/stl_algobase.h ****       __glibcxx_requires_valid_range(__first, __last);
 730:/usr/include/c++/7/bits/stl_algobase.h **** 
 731:/usr/include/c++/7/bits/stl_algobase.h ****       std::__fill_a(std::__niter_base(__first), std::__niter_base(__last),
 732:/usr/include/c++/7/bits/stl_algobase.h **** 		    __value);
 733:/usr/include/c++/7/bits/stl_algobase.h ****     }
 734:/usr/include/c++/7/bits/stl_algobase.h **** 
 735:/usr/include/c++/7/bits/stl_algobase.h ****   template<typename _OutputIterator, typename _Size, typename _Tp>
 736:/usr/include/c++/7/bits/stl_algobase.h ****     inline typename
 737:/usr/include/c++/7/bits/stl_algobase.h ****     __gnu_cxx::__enable_if<!__is_scalar<_Tp>::__value, _OutputIterator>::__type
 738:/usr/include/c++/7/bits/stl_algobase.h ****     __fill_n_a(_OutputIterator __first, _Size __n, const _Tp& __value)
 739:/usr/include/c++/7/bits/stl_algobase.h ****     {
 740:/usr/include/c++/7/bits/stl_algobase.h ****       for (__decltype(__n + 0) __niter = __n;
 741:/usr/include/c++/7/bits/stl_algobase.h **** 	   __niter > 0; --__niter, ++__first)
 742:/usr/include/c++/7/bits/stl_algobase.h **** 	*__first = __value;
 743:/usr/include/c++/7/bits/stl_algobase.h ****       return __first;
 744:/usr/include/c++/7/bits/stl_algobase.h ****     }
 745:/usr/include/c++/7/bits/stl_algobase.h **** 
 746:/usr/include/c++/7/bits/stl_algobase.h ****   template<typename _OutputIterator, typename _Size, typename _Tp>
 747:/usr/include/c++/7/bits/stl_algobase.h ****     inline typename
 748:/usr/include/c++/7/bits/stl_algobase.h ****     __gnu_cxx::__enable_if<__is_scalar<_Tp>::__value, _OutputIterator>::__type
 749:/usr/include/c++/7/bits/stl_algobase.h ****     __fill_n_a(_OutputIterator __first, _Size __n, const _Tp& __value)
 750:/usr/include/c++/7/bits/stl_algobase.h ****     {
 751:/usr/include/c++/7/bits/stl_algobase.h ****       const _Tp __tmp = __value;
 752:/usr/include/c++/7/bits/stl_algobase.h ****       for (__decltype(__n + 0) __niter = __n;
 753:/usr/include/c++/7/bits/stl_algobase.h **** 	   __niter > 0; --__niter, ++__first)
 754:/usr/include/c++/7/bits/stl_algobase.h **** 	*__first = __tmp;
 755:/usr/include/c++/7/bits/stl_algobase.h ****       return __first;
 756:/usr/include/c++/7/bits/stl_algobase.h ****     }
 757:/usr/include/c++/7/bits/stl_algobase.h **** 
 758:/usr/include/c++/7/bits/stl_algobase.h ****   template<typename _Size, typename _Tp>
 759:/usr/include/c++/7/bits/stl_algobase.h ****     inline typename
 760:/usr/include/c++/7/bits/stl_algobase.h ****     __gnu_cxx::__enable_if<__is_byte<_Tp>::__value, _Tp*>::__type
 761:/usr/include/c++/7/bits/stl_algobase.h ****     __fill_n_a(_Tp* __first, _Size __n, const _Tp& __c)
 762:/usr/include/c++/7/bits/stl_algobase.h ****     {
 763:/usr/include/c++/7/bits/stl_algobase.h ****       std::__fill_a(__first, __first + __n, __c);
 764:/usr/include/c++/7/bits/stl_algobase.h ****       return __first + __n;
 765:/usr/include/c++/7/bits/stl_algobase.h ****     }
 766:/usr/include/c++/7/bits/stl_algobase.h **** 
 767:/usr/include/c++/7/bits/stl_algobase.h ****   /**
 768:/usr/include/c++/7/bits/stl_algobase.h ****    *  @brief Fills the range [first,first+n) with copies of value.
 769:/usr/include/c++/7/bits/stl_algobase.h ****    *  @ingroup mutating_algorithms
 770:/usr/include/c++/7/bits/stl_algobase.h ****    *  @param  __first  An output iterator.
 771:/usr/include/c++/7/bits/stl_algobase.h ****    *  @param  __n      The count of copies to perform.
 772:/usr/include/c++/7/bits/stl_algobase.h ****    *  @param  __value  A reference-to-const of arbitrary type.
 773:/usr/include/c++/7/bits/stl_algobase.h ****    *  @return   The iterator at first+n.
 774:/usr/include/c++/7/bits/stl_algobase.h ****    *
 775:/usr/include/c++/7/bits/stl_algobase.h ****    *  This function fills a range with copies of the same value.  For char
 776:/usr/include/c++/7/bits/stl_algobase.h ****    *  types filling contiguous areas of memory, this becomes an inline call
 777:/usr/include/c++/7/bits/stl_algobase.h ****    *  to @c memset or @ wmemset.
 778:/usr/include/c++/7/bits/stl_algobase.h ****    *
 779:/usr/include/c++/7/bits/stl_algobase.h ****    *  _GLIBCXX_RESOLVE_LIB_DEFECTS
 780:/usr/include/c++/7/bits/stl_algobase.h ****    *  DR 865. More algorithms that throw away information
 781:/usr/include/c++/7/bits/stl_algobase.h ****   */
 782:/usr/include/c++/7/bits/stl_algobase.h ****   template<typename _OI, typename _Size, typename _Tp>
 783:/usr/include/c++/7/bits/stl_algobase.h ****     inline _OI
 784:/usr/include/c++/7/bits/stl_algobase.h ****     fill_n(_OI __first, _Size __n, const _Tp& __value)
 3142              		.loc 9 784 0
 3143              		.cfi_startproc
 3144 0000 55       		pushq	%rbp
 3145              		.cfi_def_cfa_offset 16
 3146              		.cfi_offset 6, -16
 3147 0001 4889E5   		movq	%rsp, %rbp
 3148              		.cfi_def_cfa_register 6
 3149 0004 4883EC20 		subq	$32, %rsp
 3150 0008 48897DF8 		movq	%rdi, -8(%rbp)
 3151 000c 488975F0 		movq	%rsi, -16(%rbp)
 3152 0010 488955E8 		movq	%rdx, -24(%rbp)
 785:/usr/include/c++/7/bits/stl_algobase.h ****     {
 786:/usr/include/c++/7/bits/stl_algobase.h ****       // concept requirements
 787:/usr/include/c++/7/bits/stl_algobase.h ****       __glibcxx_function_requires(_OutputIteratorConcept<_OI, _Tp>)
 788:/usr/include/c++/7/bits/stl_algobase.h **** 
 789:/usr/include/c++/7/bits/stl_algobase.h ****       return _OI(std::__fill_n_a(std::__niter_base(__first), __n, __value));
 3153              		.loc 9 789 0
 3154 0014 488B45F8 		movq	-8(%rbp), %rax
 3155 0018 4889C7   		movq	%rax, %rdi
 3156 001b E8000000 		call	_ZSt12__niter_baseIPdET_S1_
 3156      00
 3157 0020 4889C1   		movq	%rax, %rcx
 3158 0023 488B55E8 		movq	-24(%rbp), %rdx
 3159 0027 488B45F0 		movq	-16(%rbp), %rax
 3160 002b 4889C6   		movq	%rax, %rsi
 3161 002e 4889CF   		movq	%rcx, %rdi
 3162 0031 E8000000 		call	_ZSt10__fill_n_aIPdmdEN9__gnu_cxx11__enable_ifIXsrSt11__is_scalarIT1_E7__valueET_E6__typeES6_
 3162      00
 790:/usr/include/c++/7/bits/stl_algobase.h ****     }
 3163              		.loc 9 790 0
 3164 0036 C9       		leave
 3165              		.cfi_def_cfa 7, 8
 3166 0037 C3       		ret
 3167              		.cfi_endproc
 3168              	.LFE2429:
 3170              		.section	.text._ZNK9__gnu_cxx13new_allocatorIdE8max_sizeEv,"axG",@progbits,_ZNK9__gnu_cxx13new_all
 3171              		.align 2
 3172              		.weak	_ZNK9__gnu_cxx13new_allocatorIdE8max_sizeEv
 3174              	_ZNK9__gnu_cxx13new_allocatorIdE8max_sizeEv:
 3175              	.LFB2430:
 127:/usr/include/c++/7/ext/new_allocator.h **** 
 128:/usr/include/c++/7/ext/new_allocator.h ****       size_type
 129:/usr/include/c++/7/ext/new_allocator.h ****       max_size() const _GLIBCXX_USE_NOEXCEPT
 3176              		.loc 7 129 0
 3177              		.cfi_startproc
 3178 0000 55       		pushq	%rbp
 3179              		.cfi_def_cfa_offset 16
 3180              		.cfi_offset 6, -16
 3181 0001 4889E5   		movq	%rsp, %rbp
 3182              		.cfi_def_cfa_register 6
 3183 0004 48897DF8 		movq	%rdi, -8(%rbp)
 130:/usr/include/c++/7/ext/new_allocator.h ****       { return size_t(-1) / sizeof(_Tp); }
 3184              		.loc 7 130 0
 3185 0008 48B8FFFF 		movabsq	$2305843009213693951, %rax
 3185      FFFFFFFF 
 3185      FF1F
 3186 0012 5D       		popq	%rbp
 3187              		.cfi_def_cfa 7, 8
 3188 0013 C3       		ret
 3189              		.cfi_endproc
 3190              	.LFE2430:
 3192              		.section	.text._ZNSt20__uninitialized_copyILb1EE13__uninit_copyISt13move_iteratorIPdES3_EET0_T_S6_
 3193              		.weak	_ZNSt20__uninitialized_copyILb1EE13__uninit_copyISt13move_iteratorIPdES3_EET0_T_S6_S5_
 3195              	_ZNSt20__uninitialized_copyILb1EE13__uninit_copyISt13move_iteratorIPdES3_EET0_T_S6_S5_:
 3196              	.LFB2431:
  99:/usr/include/c++/7/bits/stl_uninitialized.h **** 		      _ForwardIterator __result)
 3197              		.loc 6 99 0
 3198              		.cfi_startproc
 3199 0000 55       		pushq	%rbp
 3200              		.cfi_def_cfa_offset 16
 3201              		.cfi_offset 6, -16
 3202 0001 4889E5   		movq	%rsp, %rbp
 3203              		.cfi_def_cfa_register 6
 3204 0004 4883EC20 		subq	$32, %rsp
 3205 0008 48897DF8 		movq	%rdi, -8(%rbp)
 3206 000c 488975F0 		movq	%rsi, -16(%rbp)
 3207 0010 488955E8 		movq	%rdx, -24(%rbp)
 101:/usr/include/c++/7/bits/stl_uninitialized.h ****     };
 3208              		.loc 6 101 0
 3209 0014 488B55E8 		movq	-24(%rbp), %rdx
 3210 0018 488B4DF0 		movq	-16(%rbp), %rcx
 3211 001c 488B45F8 		movq	-8(%rbp), %rax
 3212 0020 4889CE   		movq	%rcx, %rsi
 3213 0023 4889C7   		movq	%rax, %rdi
 3214 0026 E8000000 		call	_ZSt4copyISt13move_iteratorIPdES1_ET0_T_S4_S3_
 3214      00
 3215 002b C9       		leave
 3216              		.cfi_def_cfa 7, 8
 3217 002c C3       		ret
 3218              		.cfi_endproc
 3219              	.LFE2431:
 3221              		.section	.text._ZSt12__niter_baseIPdET_S1_,"axG",@progbits,_ZSt12__niter_baseIPdET_S1_,comdat
 3222              		.weak	_ZSt12__niter_baseIPdET_S1_
 3224              	_ZSt12__niter_baseIPdET_S1_:
 3225              	.LFB2439:
 277:/usr/include/c++/7/bits/stl_algobase.h ****     { return __it; }
 3226              		.loc 9 277 0
 3227              		.cfi_startproc
 3228 0000 55       		pushq	%rbp
 3229              		.cfi_def_cfa_offset 16
 3230              		.cfi_offset 6, -16
 3231 0001 4889E5   		movq	%rsp, %rbp
 3232              		.cfi_def_cfa_register 6
 3233 0004 48897DF8 		movq	%rdi, -8(%rbp)
 278:/usr/include/c++/7/bits/stl_algobase.h **** 
 3234              		.loc 9 278 0
 3235 0008 488B45F8 		movq	-8(%rbp), %rax
 3236 000c 5D       		popq	%rbp
 3237              		.cfi_def_cfa 7, 8
 3238 000d C3       		ret
 3239              		.cfi_endproc
 3240              	.LFE2439:
 3242              		.section	.text._ZSt10__fill_n_aIPdmdEN9__gnu_cxx11__enable_ifIXsrSt11__is_scalarIT1_E7__valueET_E6
 3243              		.weak	_ZSt10__fill_n_aIPdmdEN9__gnu_cxx11__enable_ifIXsrSt11__is_scalarIT1_E7__valueET_E6__typeES6
 3245              	_ZSt10__fill_n_aIPdmdEN9__gnu_cxx11__enable_ifIXsrSt11__is_scalarIT1_E7__valueET_E6__typeES6_T0_RKS
 3246              	.LFB2440:
 749:/usr/include/c++/7/bits/stl_algobase.h ****     {
 3247              		.loc 9 749 0
 3248              		.cfi_startproc
 3249 0000 55       		pushq	%rbp
 3250              		.cfi_def_cfa_offset 16
 3251              		.cfi_offset 6, -16
 3252 0001 4889E5   		movq	%rsp, %rbp
 3253              		.cfi_def_cfa_register 6
 3254 0004 48897DE8 		movq	%rdi, -24(%rbp)
 3255 0008 488975E0 		movq	%rsi, -32(%rbp)
 3256 000c 488955D8 		movq	%rdx, -40(%rbp)
 751:/usr/include/c++/7/bits/stl_algobase.h ****       for (__decltype(__n + 0) __niter = __n;
 3257              		.loc 9 751 0
 3258 0010 488B45D8 		movq	-40(%rbp), %rax
 3259 0014 F20F1000 		movsd	(%rax), %xmm0
 3260 0018 F20F1145 		movsd	%xmm0, -8(%rbp)
 3260      F8
 3261              	.LBB40:
 752:/usr/include/c++/7/bits/stl_algobase.h **** 	   __niter > 0; --__niter, ++__first)
 3262              		.loc 9 752 0
 3263 001d 488B45E0 		movq	-32(%rbp), %rax
 3264 0021 488945F0 		movq	%rax, -16(%rbp)
 3265              	.L162:
 753:/usr/include/c++/7/bits/stl_algobase.h **** 	*__first = __tmp;
 3266              		.loc 9 753 0
 3267 0025 48837DF0 		cmpq	$0, -16(%rbp)
 3267      00
 3268 002a 7419     		je	.L161
 754:/usr/include/c++/7/bits/stl_algobase.h ****       return __first;
 3269              		.loc 9 754 0
 3270 002c 488B45E8 		movq	-24(%rbp), %rax
 3271 0030 F20F1045 		movsd	-8(%rbp), %xmm0
 3271      F8
 3272 0035 F20F1100 		movsd	%xmm0, (%rax)
 752:/usr/include/c++/7/bits/stl_algobase.h **** 	   __niter > 0; --__niter, ++__first)
 3273              		.loc 9 752 0
 3274 0039 48836DF0 		subq	$1, -16(%rbp)
 3274      01
 3275 003e 488345E8 		addq	$8, -24(%rbp)
 3275      08
 3276 0043 EBE0     		jmp	.L162
 3277              	.L161:
 3278              	.LBE40:
 755:/usr/include/c++/7/bits/stl_algobase.h ****     }
 3279              		.loc 9 755 0
 3280 0045 488B45E8 		movq	-24(%rbp), %rax
 756:/usr/include/c++/7/bits/stl_algobase.h **** 
 3281              		.loc 9 756 0
 3282 0049 5D       		popq	%rbp
 3283              		.cfi_def_cfa 7, 8
 3284 004a C3       		ret
 3285              		.cfi_endproc
 3286              	.LFE2440:
 3288              		.section	.text._ZSt4copyISt13move_iteratorIPdES1_ET0_T_S4_S3_,"axG",@progbits,_ZSt4copyISt13move_i
 3289              		.weak	_ZSt4copyISt13move_iteratorIPdES1_ET0_T_S4_S3_
 3291              	_ZSt4copyISt13move_iteratorIPdES1_ET0_T_S4_S3_:
 3292              	.LFB2441:
 446:/usr/include/c++/7/bits/stl_algobase.h ****     {
 3293              		.loc 9 446 0
 3294              		.cfi_startproc
 3295 0000 55       		pushq	%rbp
 3296              		.cfi_def_cfa_offset 16
 3297              		.cfi_offset 6, -16
 3298 0001 4889E5   		movq	%rsp, %rbp
 3299              		.cfi_def_cfa_register 6
 3300 0004 53       		pushq	%rbx
 3301 0005 4883EC28 		subq	$40, %rsp
 3302              		.cfi_offset 3, -24
 3303 0009 48897DE8 		movq	%rdi, -24(%rbp)
 3304 000d 488975E0 		movq	%rsi, -32(%rbp)
 3305 0011 488955D8 		movq	%rdx, -40(%rbp)
 455:/usr/include/c++/7/bits/stl_algobase.h **** 	       __result));
 3306              		.loc 9 455 0
 3307 0015 488B45E0 		movq	-32(%rbp), %rax
 3308 0019 4889C7   		movq	%rax, %rdi
 3309 001c E8000000 		call	_ZSt12__miter_baseIPdEDTcl12__miter_basecldtfp_4baseEEESt13move_iteratorIT_E
 3309      00
 3310 0021 4889C3   		movq	%rax, %rbx
 3311 0024 488B45E8 		movq	-24(%rbp), %rax
 3312 0028 4889C7   		movq	%rax, %rdi
 3313 002b E8000000 		call	_ZSt12__miter_baseIPdEDTcl12__miter_basecldtfp_4baseEEESt13move_iteratorIT_E
 3313      00
 3314 0030 4889C1   		movq	%rax, %rcx
 456:/usr/include/c++/7/bits/stl_algobase.h ****     }
 3315              		.loc 9 456 0
 3316 0033 488B45D8 		movq	-40(%rbp), %rax
 3317 0037 4889C2   		movq	%rax, %rdx
 3318 003a 4889DE   		movq	%rbx, %rsi
 3319 003d 4889CF   		movq	%rcx, %rdi
 3320 0040 E8000000 		call	_ZSt14__copy_move_a2ILb1EPdS0_ET1_T0_S2_S1_
 3320      00
 457:/usr/include/c++/7/bits/stl_algobase.h **** 
 3321              		.loc 9 457 0
 3322 0045 4883C428 		addq	$40, %rsp
 3323 0049 5B       		popq	%rbx
 3324 004a 5D       		popq	%rbp
 3325              		.cfi_def_cfa 7, 8
 3326 004b C3       		ret
 3327              		.cfi_endproc
 3328              	.LFE2441:
 3330              		.section	.text._ZSt12__miter_baseIPdEDTcl12__miter_basecldtfp_4baseEEESt13move_iteratorIT_E,"axG",
 3331              		.weak	_ZSt12__miter_baseIPdEDTcl12__miter_basecldtfp_4baseEEESt13move_iteratorIT_E
 3333              	_ZSt12__miter_baseIPdEDTcl12__miter_basecldtfp_4baseEEESt13move_iteratorIT_E:
 3334              	.LFB2444:
1223:/usr/include/c++/7/bits/stl_iterator.h **** 
1224:/usr/include/c++/7/bits/stl_iterator.h ****   // @} group iterators
1225:/usr/include/c++/7/bits/stl_iterator.h **** 
1226:/usr/include/c++/7/bits/stl_iterator.h ****   template<typename _Iterator>
1227:/usr/include/c++/7/bits/stl_iterator.h ****     auto
1228:/usr/include/c++/7/bits/stl_iterator.h ****     __niter_base(move_iterator<_Iterator> __it)
1229:/usr/include/c++/7/bits/stl_iterator.h ****     -> decltype(make_move_iterator(__niter_base(__it.base())))
1230:/usr/include/c++/7/bits/stl_iterator.h ****     { return make_move_iterator(__niter_base(__it.base())); }
1231:/usr/include/c++/7/bits/stl_iterator.h **** 
1232:/usr/include/c++/7/bits/stl_iterator.h ****   template<typename _Iterator>
1233:/usr/include/c++/7/bits/stl_iterator.h ****     struct __is_move_iterator<move_iterator<_Iterator> >
1234:/usr/include/c++/7/bits/stl_iterator.h ****     {
1235:/usr/include/c++/7/bits/stl_iterator.h ****       enum { __value = 1 };
1236:/usr/include/c++/7/bits/stl_iterator.h ****       typedef __true_type __type;
1237:/usr/include/c++/7/bits/stl_iterator.h ****     };
1238:/usr/include/c++/7/bits/stl_iterator.h **** 
1239:/usr/include/c++/7/bits/stl_iterator.h ****   template<typename _Iterator>
1240:/usr/include/c++/7/bits/stl_iterator.h ****     auto
1241:/usr/include/c++/7/bits/stl_iterator.h ****     __miter_base(move_iterator<_Iterator> __it)
 3335              		.loc 10 1241 0
 3336              		.cfi_startproc
 3337 0000 55       		pushq	%rbp
 3338              		.cfi_def_cfa_offset 16
 3339              		.cfi_offset 6, -16
 3340 0001 4889E5   		movq	%rsp, %rbp
 3341              		.cfi_def_cfa_register 6
 3342 0004 4883EC10 		subq	$16, %rsp
 3343 0008 48897DF8 		movq	%rdi, -8(%rbp)
1242:/usr/include/c++/7/bits/stl_iterator.h ****     -> decltype(__miter_base(__it.base()))
1243:/usr/include/c++/7/bits/stl_iterator.h ****     { return __miter_base(__it.base()); }
 3344              		.loc 10 1243 0
 3345 000c 488D45F8 		leaq	-8(%rbp), %rax
 3346 0010 4889C7   		movq	%rax, %rdi
 3347 0013 E8000000 		call	_ZNKSt13move_iteratorIPdE4baseEv
 3347      00
 3348 0018 4889C7   		movq	%rax, %rdi
 3349 001b E8000000 		call	_ZSt12__miter_baseIPdET_S1_
 3349      00
 3350 0020 C9       		leave
 3351              		.cfi_def_cfa 7, 8
 3352 0021 C3       		ret
 3353              		.cfi_endproc
 3354              	.LFE2444:
 3356              		.section	.text._ZSt14__copy_move_a2ILb1EPdS0_ET1_T0_S2_S1_,"axG",@progbits,_ZSt14__copy_move_a2ILb
 3357              		.weak	_ZSt14__copy_move_a2ILb1EPdS0_ET1_T0_S2_S1_
 3359              	_ZSt14__copy_move_a2ILb1EPdS0_ET1_T0_S2_S1_:
 3360              	.LFB2445:
 420:/usr/include/c++/7/bits/stl_algobase.h ****     {
 3361              		.loc 9 420 0
 3362              		.cfi_startproc
 3363 0000 55       		pushq	%rbp
 3364              		.cfi_def_cfa_offset 16
 3365              		.cfi_offset 6, -16
 3366 0001 4889E5   		movq	%rsp, %rbp
 3367              		.cfi_def_cfa_register 6
 3368 0004 4154     		pushq	%r12
 3369 0006 53       		pushq	%rbx
 3370 0007 4883EC20 		subq	$32, %rsp
 3371              		.cfi_offset 12, -24
 3372              		.cfi_offset 3, -32
 3373 000b 48897DE8 		movq	%rdi, -24(%rbp)
 3374 000f 488975E0 		movq	%rsi, -32(%rbp)
 3375 0013 488955D8 		movq	%rdx, -40(%rbp)
 422:/usr/include/c++/7/bits/stl_algobase.h **** 					     std::__niter_base(__last),
 3376              		.loc 9 422 0
 3377 0017 488B45D8 		movq	-40(%rbp), %rax
 3378 001b 4889C7   		movq	%rax, %rdi
 3379 001e E8000000 		call	_ZSt12__niter_baseIPdET_S1_
 3379      00
 3380 0023 4989C4   		movq	%rax, %r12
 3381 0026 488B45E0 		movq	-32(%rbp), %rax
 3382 002a 4889C7   		movq	%rax, %rdi
 3383 002d E8000000 		call	_ZSt12__niter_baseIPdET_S1_
 3383      00
 3384 0032 4889C3   		movq	%rax, %rbx
 3385 0035 488B45E8 		movq	-24(%rbp), %rax
 3386 0039 4889C7   		movq	%rax, %rdi
 3387 003c E8000000 		call	_ZSt12__niter_baseIPdET_S1_
 3387      00
 424:/usr/include/c++/7/bits/stl_algobase.h ****     }
 3388              		.loc 9 424 0
 3389 0041 4C89E2   		movq	%r12, %rdx
 3390 0044 4889DE   		movq	%rbx, %rsi
 3391 0047 4889C7   		movq	%rax, %rdi
 3392 004a E8000000 		call	_ZSt13__copy_move_aILb1EPdS0_ET1_T0_S2_S1_
 3392      00
 425:/usr/include/c++/7/bits/stl_algobase.h **** 
 3393              		.loc 9 425 0
 3394 004f 4883C420 		addq	$32, %rsp
 3395 0053 5B       		popq	%rbx
 3396 0054 415C     		popq	%r12
 3397 0056 5D       		popq	%rbp
 3398              		.cfi_def_cfa 7, 8
 3399 0057 C3       		ret
 3400              		.cfi_endproc
 3401              	.LFE2445:
 3403              		.section	.text._ZNKSt13move_iteratorIPdE4baseEv,"axG",@progbits,_ZNKSt13move_iteratorIPdE4baseEv,c
 3404              		.align 2
 3405              		.weak	_ZNKSt13move_iteratorIPdE4baseEv
 3407              	_ZNKSt13move_iteratorIPdE4baseEv:
 3408              	.LFB2446:
1045:/usr/include/c++/7/bits/stl_iterator.h ****       { return _M_current; }
 3409              		.loc 10 1045 0
 3410              		.cfi_startproc
 3411 0000 55       		pushq	%rbp
 3412              		.cfi_def_cfa_offset 16
 3413              		.cfi_offset 6, -16
 3414 0001 4889E5   		movq	%rsp, %rbp
 3415              		.cfi_def_cfa_register 6
 3416 0004 48897DF8 		movq	%rdi, -8(%rbp)
1046:/usr/include/c++/7/bits/stl_iterator.h **** 
 3417              		.loc 10 1046 0
 3418 0008 488B45F8 		movq	-8(%rbp), %rax
 3419 000c 488B00   		movq	(%rax), %rax
 3420 000f 5D       		popq	%rbp
 3421              		.cfi_def_cfa 7, 8
 3422 0010 C3       		ret
 3423              		.cfi_endproc
 3424              	.LFE2446:
 3426              		.section	.text._ZSt12__miter_baseIPdET_S1_,"axG",@progbits,_ZSt12__miter_baseIPdET_S1_,comdat
 3427              		.weak	_ZSt12__miter_baseIPdET_S1_
 3429              	_ZSt12__miter_baseIPdET_S1_:
 3430              	.LFB2447:
 3431              		.file 11 "/usr/include/c++/7/bits/cpp_type_traits.h"
   1:/usr/include/c++/7/bits/cpp_type_traits.h **** // The  -*- C++ -*- type traits classes for internal use in libstdc++
   2:/usr/include/c++/7/bits/cpp_type_traits.h **** 
   3:/usr/include/c++/7/bits/cpp_type_traits.h **** // Copyright (C) 2000-2017 Free Software Foundation, Inc.
   4:/usr/include/c++/7/bits/cpp_type_traits.h **** //
   5:/usr/include/c++/7/bits/cpp_type_traits.h **** // This file is part of the GNU ISO C++ Library.  This library is free
   6:/usr/include/c++/7/bits/cpp_type_traits.h **** // software; you can redistribute it and/or modify it under the
   7:/usr/include/c++/7/bits/cpp_type_traits.h **** // terms of the GNU General Public License as published by the
   8:/usr/include/c++/7/bits/cpp_type_traits.h **** // Free Software Foundation; either version 3, or (at your option)
   9:/usr/include/c++/7/bits/cpp_type_traits.h **** // any later version.
  10:/usr/include/c++/7/bits/cpp_type_traits.h **** 
  11:/usr/include/c++/7/bits/cpp_type_traits.h **** // This library is distributed in the hope that it will be useful,
  12:/usr/include/c++/7/bits/cpp_type_traits.h **** // but WITHOUT ANY WARRANTY; without even the implied warranty of
  13:/usr/include/c++/7/bits/cpp_type_traits.h **** // MERCHANTABILITY or FITNESS FOR A PARTICULAR PURPOSE.  See the
  14:/usr/include/c++/7/bits/cpp_type_traits.h **** // GNU General Public License for more details.
  15:/usr/include/c++/7/bits/cpp_type_traits.h **** 
  16:/usr/include/c++/7/bits/cpp_type_traits.h **** // Under Section 7 of GPL version 3, you are granted additional
  17:/usr/include/c++/7/bits/cpp_type_traits.h **** // permissions described in the GCC Runtime Library Exception, version
  18:/usr/include/c++/7/bits/cpp_type_traits.h **** // 3.1, as published by the Free Software Foundation.
  19:/usr/include/c++/7/bits/cpp_type_traits.h **** 
  20:/usr/include/c++/7/bits/cpp_type_traits.h **** // You should have received a copy of the GNU General Public License and
  21:/usr/include/c++/7/bits/cpp_type_traits.h **** // a copy of the GCC Runtime Library Exception along with this program;
  22:/usr/include/c++/7/bits/cpp_type_traits.h **** // see the files COPYING3 and COPYING.RUNTIME respectively.  If not, see
  23:/usr/include/c++/7/bits/cpp_type_traits.h **** // <http://www.gnu.org/licenses/>.
  24:/usr/include/c++/7/bits/cpp_type_traits.h **** 
  25:/usr/include/c++/7/bits/cpp_type_traits.h **** /** @file bits/cpp_type_traits.h
  26:/usr/include/c++/7/bits/cpp_type_traits.h ****  *  This is an internal header file, included by other library headers.
  27:/usr/include/c++/7/bits/cpp_type_traits.h ****  *  Do not attempt to use it directly. @headername{ext/type_traits}
  28:/usr/include/c++/7/bits/cpp_type_traits.h ****  */
  29:/usr/include/c++/7/bits/cpp_type_traits.h **** 
  30:/usr/include/c++/7/bits/cpp_type_traits.h **** // Written by Gabriel Dos Reis <dosreis@cmla.ens-cachan.fr>
  31:/usr/include/c++/7/bits/cpp_type_traits.h **** 
  32:/usr/include/c++/7/bits/cpp_type_traits.h **** #ifndef _CPP_TYPE_TRAITS_H
  33:/usr/include/c++/7/bits/cpp_type_traits.h **** #define _CPP_TYPE_TRAITS_H 1
  34:/usr/include/c++/7/bits/cpp_type_traits.h **** 
  35:/usr/include/c++/7/bits/cpp_type_traits.h **** #pragma GCC system_header
  36:/usr/include/c++/7/bits/cpp_type_traits.h **** 
  37:/usr/include/c++/7/bits/cpp_type_traits.h **** #include <bits/c++config.h>
  38:/usr/include/c++/7/bits/cpp_type_traits.h **** 
  39:/usr/include/c++/7/bits/cpp_type_traits.h **** //
  40:/usr/include/c++/7/bits/cpp_type_traits.h **** // This file provides some compile-time information about various types.
  41:/usr/include/c++/7/bits/cpp_type_traits.h **** // These representations were designed, on purpose, to be constant-expressions
  42:/usr/include/c++/7/bits/cpp_type_traits.h **** // and not types as found in <bits/type_traits.h>.  In particular, they
  43:/usr/include/c++/7/bits/cpp_type_traits.h **** // can be used in control structures and the optimizer hopefully will do
  44:/usr/include/c++/7/bits/cpp_type_traits.h **** // the obvious thing.
  45:/usr/include/c++/7/bits/cpp_type_traits.h **** //
  46:/usr/include/c++/7/bits/cpp_type_traits.h **** // Why integral expressions, and not functions nor types?
  47:/usr/include/c++/7/bits/cpp_type_traits.h **** // Firstly, these compile-time entities are used as template-arguments
  48:/usr/include/c++/7/bits/cpp_type_traits.h **** // so function return values won't work:  We need compile-time entities.
  49:/usr/include/c++/7/bits/cpp_type_traits.h **** // We're left with types and constant  integral expressions.
  50:/usr/include/c++/7/bits/cpp_type_traits.h **** // Secondly, from the point of view of ease of use, type-based compile-time
  51:/usr/include/c++/7/bits/cpp_type_traits.h **** // information is -not- *that* convenient.  On has to write lots of
  52:/usr/include/c++/7/bits/cpp_type_traits.h **** // overloaded functions and to hope that the compiler will select the right
  53:/usr/include/c++/7/bits/cpp_type_traits.h **** // one. As a net effect, the overall structure isn't very clear at first
  54:/usr/include/c++/7/bits/cpp_type_traits.h **** // glance.
  55:/usr/include/c++/7/bits/cpp_type_traits.h **** // Thirdly, partial ordering and overload resolution (of function templates)
  56:/usr/include/c++/7/bits/cpp_type_traits.h **** // is highly costly in terms of compiler-resource.  It is a Good Thing to
  57:/usr/include/c++/7/bits/cpp_type_traits.h **** // keep these resource consumption as least as possible.
  58:/usr/include/c++/7/bits/cpp_type_traits.h **** //
  59:/usr/include/c++/7/bits/cpp_type_traits.h **** // See valarray_array.h for a case use.
  60:/usr/include/c++/7/bits/cpp_type_traits.h **** //
  61:/usr/include/c++/7/bits/cpp_type_traits.h **** // -- Gaby (dosreis@cmla.ens-cachan.fr) 2000-03-06.
  62:/usr/include/c++/7/bits/cpp_type_traits.h **** //
  63:/usr/include/c++/7/bits/cpp_type_traits.h **** // Update 2005: types are also provided and <bits/type_traits.h> has been
  64:/usr/include/c++/7/bits/cpp_type_traits.h **** // removed.
  65:/usr/include/c++/7/bits/cpp_type_traits.h **** //
  66:/usr/include/c++/7/bits/cpp_type_traits.h **** 
  67:/usr/include/c++/7/bits/cpp_type_traits.h **** extern "C++" {
  68:/usr/include/c++/7/bits/cpp_type_traits.h **** 
  69:/usr/include/c++/7/bits/cpp_type_traits.h **** namespace std _GLIBCXX_VISIBILITY(default)
  70:/usr/include/c++/7/bits/cpp_type_traits.h **** {
  71:/usr/include/c++/7/bits/cpp_type_traits.h **** _GLIBCXX_BEGIN_NAMESPACE_VERSION
  72:/usr/include/c++/7/bits/cpp_type_traits.h **** 
  73:/usr/include/c++/7/bits/cpp_type_traits.h ****   struct __true_type { };
  74:/usr/include/c++/7/bits/cpp_type_traits.h ****   struct __false_type { };
  75:/usr/include/c++/7/bits/cpp_type_traits.h **** 
  76:/usr/include/c++/7/bits/cpp_type_traits.h ****   template<bool>
  77:/usr/include/c++/7/bits/cpp_type_traits.h ****     struct __truth_type
  78:/usr/include/c++/7/bits/cpp_type_traits.h ****     { typedef __false_type __type; };
  79:/usr/include/c++/7/bits/cpp_type_traits.h **** 
  80:/usr/include/c++/7/bits/cpp_type_traits.h ****   template<>
  81:/usr/include/c++/7/bits/cpp_type_traits.h ****     struct __truth_type<true>
  82:/usr/include/c++/7/bits/cpp_type_traits.h ****     { typedef __true_type __type; };
  83:/usr/include/c++/7/bits/cpp_type_traits.h **** 
  84:/usr/include/c++/7/bits/cpp_type_traits.h ****   // N.B. The conversions to bool are needed due to the issue
  85:/usr/include/c++/7/bits/cpp_type_traits.h ****   // explained in c++/19404.
  86:/usr/include/c++/7/bits/cpp_type_traits.h ****   template<class _Sp, class _Tp>
  87:/usr/include/c++/7/bits/cpp_type_traits.h ****     struct __traitor
  88:/usr/include/c++/7/bits/cpp_type_traits.h ****     {
  89:/usr/include/c++/7/bits/cpp_type_traits.h ****       enum { __value = bool(_Sp::__value) || bool(_Tp::__value) };
  90:/usr/include/c++/7/bits/cpp_type_traits.h ****       typedef typename __truth_type<__value>::__type __type;
  91:/usr/include/c++/7/bits/cpp_type_traits.h ****     };
  92:/usr/include/c++/7/bits/cpp_type_traits.h **** 
  93:/usr/include/c++/7/bits/cpp_type_traits.h ****   // Compare for equality of types.
  94:/usr/include/c++/7/bits/cpp_type_traits.h ****   template<typename, typename>
  95:/usr/include/c++/7/bits/cpp_type_traits.h ****     struct __are_same
  96:/usr/include/c++/7/bits/cpp_type_traits.h ****     {
  97:/usr/include/c++/7/bits/cpp_type_traits.h ****       enum { __value = 0 };
  98:/usr/include/c++/7/bits/cpp_type_traits.h ****       typedef __false_type __type;
  99:/usr/include/c++/7/bits/cpp_type_traits.h ****     };
 100:/usr/include/c++/7/bits/cpp_type_traits.h **** 
 101:/usr/include/c++/7/bits/cpp_type_traits.h ****   template<typename _Tp>
 102:/usr/include/c++/7/bits/cpp_type_traits.h ****     struct __are_same<_Tp, _Tp>
 103:/usr/include/c++/7/bits/cpp_type_traits.h ****     {
 104:/usr/include/c++/7/bits/cpp_type_traits.h ****       enum { __value = 1 };
 105:/usr/include/c++/7/bits/cpp_type_traits.h ****       typedef __true_type __type;
 106:/usr/include/c++/7/bits/cpp_type_traits.h ****     };
 107:/usr/include/c++/7/bits/cpp_type_traits.h **** 
 108:/usr/include/c++/7/bits/cpp_type_traits.h ****   // Holds if the template-argument is a void type.
 109:/usr/include/c++/7/bits/cpp_type_traits.h ****   template<typename _Tp>
 110:/usr/include/c++/7/bits/cpp_type_traits.h ****     struct __is_void
 111:/usr/include/c++/7/bits/cpp_type_traits.h ****     {
 112:/usr/include/c++/7/bits/cpp_type_traits.h ****       enum { __value = 0 };
 113:/usr/include/c++/7/bits/cpp_type_traits.h ****       typedef __false_type __type;
 114:/usr/include/c++/7/bits/cpp_type_traits.h ****     };
 115:/usr/include/c++/7/bits/cpp_type_traits.h **** 
 116:/usr/include/c++/7/bits/cpp_type_traits.h ****   template<>
 117:/usr/include/c++/7/bits/cpp_type_traits.h ****     struct __is_void<void>
 118:/usr/include/c++/7/bits/cpp_type_traits.h ****     {
 119:/usr/include/c++/7/bits/cpp_type_traits.h ****       enum { __value = 1 };
 120:/usr/include/c++/7/bits/cpp_type_traits.h ****       typedef __true_type __type;
 121:/usr/include/c++/7/bits/cpp_type_traits.h ****     };
 122:/usr/include/c++/7/bits/cpp_type_traits.h **** 
 123:/usr/include/c++/7/bits/cpp_type_traits.h ****   //
 124:/usr/include/c++/7/bits/cpp_type_traits.h ****   // Integer types
 125:/usr/include/c++/7/bits/cpp_type_traits.h ****   //
 126:/usr/include/c++/7/bits/cpp_type_traits.h ****   template<typename _Tp>
 127:/usr/include/c++/7/bits/cpp_type_traits.h ****     struct __is_integer
 128:/usr/include/c++/7/bits/cpp_type_traits.h ****     {
 129:/usr/include/c++/7/bits/cpp_type_traits.h ****       enum { __value = 0 };
 130:/usr/include/c++/7/bits/cpp_type_traits.h ****       typedef __false_type __type;
 131:/usr/include/c++/7/bits/cpp_type_traits.h ****     };
 132:/usr/include/c++/7/bits/cpp_type_traits.h **** 
 133:/usr/include/c++/7/bits/cpp_type_traits.h ****   // Thirteen specializations (yes there are eleven standard integer
 134:/usr/include/c++/7/bits/cpp_type_traits.h ****   // types; <em>long long</em> and <em>unsigned long long</em> are
 135:/usr/include/c++/7/bits/cpp_type_traits.h ****   // supported as extensions).  Up to four target-specific __int<N>
 136:/usr/include/c++/7/bits/cpp_type_traits.h ****   // types are supported as well.
 137:/usr/include/c++/7/bits/cpp_type_traits.h ****   template<>
 138:/usr/include/c++/7/bits/cpp_type_traits.h ****     struct __is_integer<bool>
 139:/usr/include/c++/7/bits/cpp_type_traits.h ****     {
 140:/usr/include/c++/7/bits/cpp_type_traits.h ****       enum { __value = 1 };
 141:/usr/include/c++/7/bits/cpp_type_traits.h ****       typedef __true_type __type;
 142:/usr/include/c++/7/bits/cpp_type_traits.h ****     };
 143:/usr/include/c++/7/bits/cpp_type_traits.h **** 
 144:/usr/include/c++/7/bits/cpp_type_traits.h ****   template<>
 145:/usr/include/c++/7/bits/cpp_type_traits.h ****     struct __is_integer<char>
 146:/usr/include/c++/7/bits/cpp_type_traits.h ****     {
 147:/usr/include/c++/7/bits/cpp_type_traits.h ****       enum { __value = 1 };
 148:/usr/include/c++/7/bits/cpp_type_traits.h ****       typedef __true_type __type;
 149:/usr/include/c++/7/bits/cpp_type_traits.h ****     };
 150:/usr/include/c++/7/bits/cpp_type_traits.h **** 
 151:/usr/include/c++/7/bits/cpp_type_traits.h ****   template<>
 152:/usr/include/c++/7/bits/cpp_type_traits.h ****     struct __is_integer<signed char>
 153:/usr/include/c++/7/bits/cpp_type_traits.h ****     {
 154:/usr/include/c++/7/bits/cpp_type_traits.h ****       enum { __value = 1 };
 155:/usr/include/c++/7/bits/cpp_type_traits.h ****       typedef __true_type __type;
 156:/usr/include/c++/7/bits/cpp_type_traits.h ****     };
 157:/usr/include/c++/7/bits/cpp_type_traits.h **** 
 158:/usr/include/c++/7/bits/cpp_type_traits.h ****   template<>
 159:/usr/include/c++/7/bits/cpp_type_traits.h ****     struct __is_integer<unsigned char>
 160:/usr/include/c++/7/bits/cpp_type_traits.h ****     {
 161:/usr/include/c++/7/bits/cpp_type_traits.h ****       enum { __value = 1 };
 162:/usr/include/c++/7/bits/cpp_type_traits.h ****       typedef __true_type __type;
 163:/usr/include/c++/7/bits/cpp_type_traits.h ****     };
 164:/usr/include/c++/7/bits/cpp_type_traits.h **** 
 165:/usr/include/c++/7/bits/cpp_type_traits.h **** # ifdef _GLIBCXX_USE_WCHAR_T
 166:/usr/include/c++/7/bits/cpp_type_traits.h ****   template<>
 167:/usr/include/c++/7/bits/cpp_type_traits.h ****     struct __is_integer<wchar_t>
 168:/usr/include/c++/7/bits/cpp_type_traits.h ****     {
 169:/usr/include/c++/7/bits/cpp_type_traits.h ****       enum { __value = 1 };
 170:/usr/include/c++/7/bits/cpp_type_traits.h ****       typedef __true_type __type;
 171:/usr/include/c++/7/bits/cpp_type_traits.h ****     };
 172:/usr/include/c++/7/bits/cpp_type_traits.h **** # endif
 173:/usr/include/c++/7/bits/cpp_type_traits.h **** 
 174:/usr/include/c++/7/bits/cpp_type_traits.h **** #if __cplusplus >= 201103L
 175:/usr/include/c++/7/bits/cpp_type_traits.h ****   template<>
 176:/usr/include/c++/7/bits/cpp_type_traits.h ****     struct __is_integer<char16_t>
 177:/usr/include/c++/7/bits/cpp_type_traits.h ****     {
 178:/usr/include/c++/7/bits/cpp_type_traits.h ****       enum { __value = 1 };
 179:/usr/include/c++/7/bits/cpp_type_traits.h ****       typedef __true_type __type;
 180:/usr/include/c++/7/bits/cpp_type_traits.h ****     };
 181:/usr/include/c++/7/bits/cpp_type_traits.h **** 
 182:/usr/include/c++/7/bits/cpp_type_traits.h ****   template<>
 183:/usr/include/c++/7/bits/cpp_type_traits.h ****     struct __is_integer<char32_t>
 184:/usr/include/c++/7/bits/cpp_type_traits.h ****     {
 185:/usr/include/c++/7/bits/cpp_type_traits.h ****       enum { __value = 1 };
 186:/usr/include/c++/7/bits/cpp_type_traits.h ****       typedef __true_type __type;
 187:/usr/include/c++/7/bits/cpp_type_traits.h ****     };
 188:/usr/include/c++/7/bits/cpp_type_traits.h **** #endif
 189:/usr/include/c++/7/bits/cpp_type_traits.h **** 
 190:/usr/include/c++/7/bits/cpp_type_traits.h ****   template<>
 191:/usr/include/c++/7/bits/cpp_type_traits.h ****     struct __is_integer<short>
 192:/usr/include/c++/7/bits/cpp_type_traits.h ****     {
 193:/usr/include/c++/7/bits/cpp_type_traits.h ****       enum { __value = 1 };
 194:/usr/include/c++/7/bits/cpp_type_traits.h ****       typedef __true_type __type;
 195:/usr/include/c++/7/bits/cpp_type_traits.h ****     };
 196:/usr/include/c++/7/bits/cpp_type_traits.h **** 
 197:/usr/include/c++/7/bits/cpp_type_traits.h ****   template<>
 198:/usr/include/c++/7/bits/cpp_type_traits.h ****     struct __is_integer<unsigned short>
 199:/usr/include/c++/7/bits/cpp_type_traits.h ****     {
 200:/usr/include/c++/7/bits/cpp_type_traits.h ****       enum { __value = 1 };
 201:/usr/include/c++/7/bits/cpp_type_traits.h ****       typedef __true_type __type;
 202:/usr/include/c++/7/bits/cpp_type_traits.h ****     };
 203:/usr/include/c++/7/bits/cpp_type_traits.h **** 
 204:/usr/include/c++/7/bits/cpp_type_traits.h ****   template<>
 205:/usr/include/c++/7/bits/cpp_type_traits.h ****     struct __is_integer<int>
 206:/usr/include/c++/7/bits/cpp_type_traits.h ****     {
 207:/usr/include/c++/7/bits/cpp_type_traits.h ****       enum { __value = 1 };
 208:/usr/include/c++/7/bits/cpp_type_traits.h ****       typedef __true_type __type;
 209:/usr/include/c++/7/bits/cpp_type_traits.h ****     };
 210:/usr/include/c++/7/bits/cpp_type_traits.h **** 
 211:/usr/include/c++/7/bits/cpp_type_traits.h ****   template<>
 212:/usr/include/c++/7/bits/cpp_type_traits.h ****     struct __is_integer<unsigned int>
 213:/usr/include/c++/7/bits/cpp_type_traits.h ****     {
 214:/usr/include/c++/7/bits/cpp_type_traits.h ****       enum { __value = 1 };
 215:/usr/include/c++/7/bits/cpp_type_traits.h ****       typedef __true_type __type;
 216:/usr/include/c++/7/bits/cpp_type_traits.h ****     };
 217:/usr/include/c++/7/bits/cpp_type_traits.h **** 
 218:/usr/include/c++/7/bits/cpp_type_traits.h ****   template<>
 219:/usr/include/c++/7/bits/cpp_type_traits.h ****     struct __is_integer<long>
 220:/usr/include/c++/7/bits/cpp_type_traits.h ****     {
 221:/usr/include/c++/7/bits/cpp_type_traits.h ****       enum { __value = 1 };
 222:/usr/include/c++/7/bits/cpp_type_traits.h ****       typedef __true_type __type;
 223:/usr/include/c++/7/bits/cpp_type_traits.h ****     };
 224:/usr/include/c++/7/bits/cpp_type_traits.h **** 
 225:/usr/include/c++/7/bits/cpp_type_traits.h ****   template<>
 226:/usr/include/c++/7/bits/cpp_type_traits.h ****     struct __is_integer<unsigned long>
 227:/usr/include/c++/7/bits/cpp_type_traits.h ****     {
 228:/usr/include/c++/7/bits/cpp_type_traits.h ****       enum { __value = 1 };
 229:/usr/include/c++/7/bits/cpp_type_traits.h ****       typedef __true_type __type;
 230:/usr/include/c++/7/bits/cpp_type_traits.h ****     };
 231:/usr/include/c++/7/bits/cpp_type_traits.h **** 
 232:/usr/include/c++/7/bits/cpp_type_traits.h ****   template<>
 233:/usr/include/c++/7/bits/cpp_type_traits.h ****     struct __is_integer<long long>
 234:/usr/include/c++/7/bits/cpp_type_traits.h ****     {
 235:/usr/include/c++/7/bits/cpp_type_traits.h ****       enum { __value = 1 };
 236:/usr/include/c++/7/bits/cpp_type_traits.h ****       typedef __true_type __type;
 237:/usr/include/c++/7/bits/cpp_type_traits.h ****     };
 238:/usr/include/c++/7/bits/cpp_type_traits.h **** 
 239:/usr/include/c++/7/bits/cpp_type_traits.h ****   template<>
 240:/usr/include/c++/7/bits/cpp_type_traits.h ****     struct __is_integer<unsigned long long>
 241:/usr/include/c++/7/bits/cpp_type_traits.h ****     {
 242:/usr/include/c++/7/bits/cpp_type_traits.h ****       enum { __value = 1 };
 243:/usr/include/c++/7/bits/cpp_type_traits.h ****       typedef __true_type __type;
 244:/usr/include/c++/7/bits/cpp_type_traits.h ****     };
 245:/usr/include/c++/7/bits/cpp_type_traits.h **** 
 246:/usr/include/c++/7/bits/cpp_type_traits.h **** #define __INT_N(TYPE) 			\
 247:/usr/include/c++/7/bits/cpp_type_traits.h ****   template<>				\
 248:/usr/include/c++/7/bits/cpp_type_traits.h ****     struct __is_integer<TYPE>		\
 249:/usr/include/c++/7/bits/cpp_type_traits.h ****     {					\
 250:/usr/include/c++/7/bits/cpp_type_traits.h ****       enum { __value = 1 };		\
 251:/usr/include/c++/7/bits/cpp_type_traits.h ****       typedef __true_type __type;	\
 252:/usr/include/c++/7/bits/cpp_type_traits.h ****     };					\
 253:/usr/include/c++/7/bits/cpp_type_traits.h ****   template<>				\
 254:/usr/include/c++/7/bits/cpp_type_traits.h ****     struct __is_integer<unsigned TYPE>	\
 255:/usr/include/c++/7/bits/cpp_type_traits.h ****     {					\
 256:/usr/include/c++/7/bits/cpp_type_traits.h ****       enum { __value = 1 };		\
 257:/usr/include/c++/7/bits/cpp_type_traits.h ****       typedef __true_type __type;	\
 258:/usr/include/c++/7/bits/cpp_type_traits.h ****     };
 259:/usr/include/c++/7/bits/cpp_type_traits.h **** 
 260:/usr/include/c++/7/bits/cpp_type_traits.h **** #ifdef __GLIBCXX_TYPE_INT_N_0
 261:/usr/include/c++/7/bits/cpp_type_traits.h **** __INT_N(__GLIBCXX_TYPE_INT_N_0)
 262:/usr/include/c++/7/bits/cpp_type_traits.h **** #endif
 263:/usr/include/c++/7/bits/cpp_type_traits.h **** #ifdef __GLIBCXX_TYPE_INT_N_1
 264:/usr/include/c++/7/bits/cpp_type_traits.h **** __INT_N(__GLIBCXX_TYPE_INT_N_1)
 265:/usr/include/c++/7/bits/cpp_type_traits.h **** #endif
 266:/usr/include/c++/7/bits/cpp_type_traits.h **** #ifdef __GLIBCXX_TYPE_INT_N_2
 267:/usr/include/c++/7/bits/cpp_type_traits.h **** __INT_N(__GLIBCXX_TYPE_INT_N_2)
 268:/usr/include/c++/7/bits/cpp_type_traits.h **** #endif
 269:/usr/include/c++/7/bits/cpp_type_traits.h **** #ifdef __GLIBCXX_TYPE_INT_N_3
 270:/usr/include/c++/7/bits/cpp_type_traits.h **** __INT_N(__GLIBCXX_TYPE_INT_N_3)
 271:/usr/include/c++/7/bits/cpp_type_traits.h **** #endif
 272:/usr/include/c++/7/bits/cpp_type_traits.h **** 
 273:/usr/include/c++/7/bits/cpp_type_traits.h **** #undef __INT_N
 274:/usr/include/c++/7/bits/cpp_type_traits.h **** 
 275:/usr/include/c++/7/bits/cpp_type_traits.h ****   //
 276:/usr/include/c++/7/bits/cpp_type_traits.h ****   // Floating point types
 277:/usr/include/c++/7/bits/cpp_type_traits.h ****   //
 278:/usr/include/c++/7/bits/cpp_type_traits.h ****   template<typename _Tp>
 279:/usr/include/c++/7/bits/cpp_type_traits.h ****     struct __is_floating
 280:/usr/include/c++/7/bits/cpp_type_traits.h ****     {
 281:/usr/include/c++/7/bits/cpp_type_traits.h ****       enum { __value = 0 };
 282:/usr/include/c++/7/bits/cpp_type_traits.h ****       typedef __false_type __type;
 283:/usr/include/c++/7/bits/cpp_type_traits.h ****     };
 284:/usr/include/c++/7/bits/cpp_type_traits.h **** 
 285:/usr/include/c++/7/bits/cpp_type_traits.h ****   // three specializations (float, double and 'long double')
 286:/usr/include/c++/7/bits/cpp_type_traits.h ****   template<>
 287:/usr/include/c++/7/bits/cpp_type_traits.h ****     struct __is_floating<float>
 288:/usr/include/c++/7/bits/cpp_type_traits.h ****     {
 289:/usr/include/c++/7/bits/cpp_type_traits.h ****       enum { __value = 1 };
 290:/usr/include/c++/7/bits/cpp_type_traits.h ****       typedef __true_type __type;
 291:/usr/include/c++/7/bits/cpp_type_traits.h ****     };
 292:/usr/include/c++/7/bits/cpp_type_traits.h **** 
 293:/usr/include/c++/7/bits/cpp_type_traits.h ****   template<>
 294:/usr/include/c++/7/bits/cpp_type_traits.h ****     struct __is_floating<double>
 295:/usr/include/c++/7/bits/cpp_type_traits.h ****     {
 296:/usr/include/c++/7/bits/cpp_type_traits.h ****       enum { __value = 1 };
 297:/usr/include/c++/7/bits/cpp_type_traits.h ****       typedef __true_type __type;
 298:/usr/include/c++/7/bits/cpp_type_traits.h ****     };
 299:/usr/include/c++/7/bits/cpp_type_traits.h **** 
 300:/usr/include/c++/7/bits/cpp_type_traits.h ****   template<>
 301:/usr/include/c++/7/bits/cpp_type_traits.h ****     struct __is_floating<long double>
 302:/usr/include/c++/7/bits/cpp_type_traits.h ****     {
 303:/usr/include/c++/7/bits/cpp_type_traits.h ****       enum { __value = 1 };
 304:/usr/include/c++/7/bits/cpp_type_traits.h ****       typedef __true_type __type;
 305:/usr/include/c++/7/bits/cpp_type_traits.h ****     };
 306:/usr/include/c++/7/bits/cpp_type_traits.h **** 
 307:/usr/include/c++/7/bits/cpp_type_traits.h ****   //
 308:/usr/include/c++/7/bits/cpp_type_traits.h ****   // Pointer types
 309:/usr/include/c++/7/bits/cpp_type_traits.h ****   //
 310:/usr/include/c++/7/bits/cpp_type_traits.h ****   template<typename _Tp>
 311:/usr/include/c++/7/bits/cpp_type_traits.h ****     struct __is_pointer
 312:/usr/include/c++/7/bits/cpp_type_traits.h ****     {
 313:/usr/include/c++/7/bits/cpp_type_traits.h ****       enum { __value = 0 };
 314:/usr/include/c++/7/bits/cpp_type_traits.h ****       typedef __false_type __type;
 315:/usr/include/c++/7/bits/cpp_type_traits.h ****     };
 316:/usr/include/c++/7/bits/cpp_type_traits.h **** 
 317:/usr/include/c++/7/bits/cpp_type_traits.h ****   template<typename _Tp>
 318:/usr/include/c++/7/bits/cpp_type_traits.h ****     struct __is_pointer<_Tp*>
 319:/usr/include/c++/7/bits/cpp_type_traits.h ****     {
 320:/usr/include/c++/7/bits/cpp_type_traits.h ****       enum { __value = 1 };
 321:/usr/include/c++/7/bits/cpp_type_traits.h ****       typedef __true_type __type;
 322:/usr/include/c++/7/bits/cpp_type_traits.h ****     };
 323:/usr/include/c++/7/bits/cpp_type_traits.h **** 
 324:/usr/include/c++/7/bits/cpp_type_traits.h ****   //
 325:/usr/include/c++/7/bits/cpp_type_traits.h ****   // An arithmetic type is an integer type or a floating point type
 326:/usr/include/c++/7/bits/cpp_type_traits.h ****   //
 327:/usr/include/c++/7/bits/cpp_type_traits.h ****   template<typename _Tp>
 328:/usr/include/c++/7/bits/cpp_type_traits.h ****     struct __is_arithmetic
 329:/usr/include/c++/7/bits/cpp_type_traits.h ****     : public __traitor<__is_integer<_Tp>, __is_floating<_Tp> >
 330:/usr/include/c++/7/bits/cpp_type_traits.h ****     { };
 331:/usr/include/c++/7/bits/cpp_type_traits.h **** 
 332:/usr/include/c++/7/bits/cpp_type_traits.h ****   //
 333:/usr/include/c++/7/bits/cpp_type_traits.h ****   // A scalar type is an arithmetic type or a pointer type
 334:/usr/include/c++/7/bits/cpp_type_traits.h ****   // 
 335:/usr/include/c++/7/bits/cpp_type_traits.h ****   template<typename _Tp>
 336:/usr/include/c++/7/bits/cpp_type_traits.h ****     struct __is_scalar
 337:/usr/include/c++/7/bits/cpp_type_traits.h ****     : public __traitor<__is_arithmetic<_Tp>, __is_pointer<_Tp> >
 338:/usr/include/c++/7/bits/cpp_type_traits.h ****     { };
 339:/usr/include/c++/7/bits/cpp_type_traits.h **** 
 340:/usr/include/c++/7/bits/cpp_type_traits.h ****   //
 341:/usr/include/c++/7/bits/cpp_type_traits.h ****   // For use in std::copy and std::find overloads for streambuf iterators.
 342:/usr/include/c++/7/bits/cpp_type_traits.h ****   //
 343:/usr/include/c++/7/bits/cpp_type_traits.h ****   template<typename _Tp>
 344:/usr/include/c++/7/bits/cpp_type_traits.h ****     struct __is_char
 345:/usr/include/c++/7/bits/cpp_type_traits.h ****     {
 346:/usr/include/c++/7/bits/cpp_type_traits.h ****       enum { __value = 0 };
 347:/usr/include/c++/7/bits/cpp_type_traits.h ****       typedef __false_type __type;
 348:/usr/include/c++/7/bits/cpp_type_traits.h ****     };
 349:/usr/include/c++/7/bits/cpp_type_traits.h **** 
 350:/usr/include/c++/7/bits/cpp_type_traits.h ****   template<>
 351:/usr/include/c++/7/bits/cpp_type_traits.h ****     struct __is_char<char>
 352:/usr/include/c++/7/bits/cpp_type_traits.h ****     {
 353:/usr/include/c++/7/bits/cpp_type_traits.h ****       enum { __value = 1 };
 354:/usr/include/c++/7/bits/cpp_type_traits.h ****       typedef __true_type __type;
 355:/usr/include/c++/7/bits/cpp_type_traits.h ****     };
 356:/usr/include/c++/7/bits/cpp_type_traits.h **** 
 357:/usr/include/c++/7/bits/cpp_type_traits.h **** #ifdef _GLIBCXX_USE_WCHAR_T
 358:/usr/include/c++/7/bits/cpp_type_traits.h ****   template<>
 359:/usr/include/c++/7/bits/cpp_type_traits.h ****     struct __is_char<wchar_t>
 360:/usr/include/c++/7/bits/cpp_type_traits.h ****     {
 361:/usr/include/c++/7/bits/cpp_type_traits.h ****       enum { __value = 1 };
 362:/usr/include/c++/7/bits/cpp_type_traits.h ****       typedef __true_type __type;
 363:/usr/include/c++/7/bits/cpp_type_traits.h ****     };
 364:/usr/include/c++/7/bits/cpp_type_traits.h **** #endif
 365:/usr/include/c++/7/bits/cpp_type_traits.h **** 
 366:/usr/include/c++/7/bits/cpp_type_traits.h ****   template<typename _Tp>
 367:/usr/include/c++/7/bits/cpp_type_traits.h ****     struct __is_byte
 368:/usr/include/c++/7/bits/cpp_type_traits.h ****     {
 369:/usr/include/c++/7/bits/cpp_type_traits.h ****       enum { __value = 0 };
 370:/usr/include/c++/7/bits/cpp_type_traits.h ****       typedef __false_type __type;
 371:/usr/include/c++/7/bits/cpp_type_traits.h ****     };
 372:/usr/include/c++/7/bits/cpp_type_traits.h **** 
 373:/usr/include/c++/7/bits/cpp_type_traits.h ****   template<>
 374:/usr/include/c++/7/bits/cpp_type_traits.h ****     struct __is_byte<char>
 375:/usr/include/c++/7/bits/cpp_type_traits.h ****     {
 376:/usr/include/c++/7/bits/cpp_type_traits.h ****       enum { __value = 1 };
 377:/usr/include/c++/7/bits/cpp_type_traits.h ****       typedef __true_type __type;
 378:/usr/include/c++/7/bits/cpp_type_traits.h ****     };
 379:/usr/include/c++/7/bits/cpp_type_traits.h **** 
 380:/usr/include/c++/7/bits/cpp_type_traits.h ****   template<>
 381:/usr/include/c++/7/bits/cpp_type_traits.h ****     struct __is_byte<signed char>
 382:/usr/include/c++/7/bits/cpp_type_traits.h ****     {
 383:/usr/include/c++/7/bits/cpp_type_traits.h ****       enum { __value = 1 };
 384:/usr/include/c++/7/bits/cpp_type_traits.h ****       typedef __true_type __type;
 385:/usr/include/c++/7/bits/cpp_type_traits.h ****     };
 386:/usr/include/c++/7/bits/cpp_type_traits.h **** 
 387:/usr/include/c++/7/bits/cpp_type_traits.h ****   template<>
 388:/usr/include/c++/7/bits/cpp_type_traits.h ****     struct __is_byte<unsigned char>
 389:/usr/include/c++/7/bits/cpp_type_traits.h ****     {
 390:/usr/include/c++/7/bits/cpp_type_traits.h ****       enum { __value = 1 };
 391:/usr/include/c++/7/bits/cpp_type_traits.h ****       typedef __true_type __type;
 392:/usr/include/c++/7/bits/cpp_type_traits.h ****     };
 393:/usr/include/c++/7/bits/cpp_type_traits.h **** 
 394:/usr/include/c++/7/bits/cpp_type_traits.h ****   //
 395:/usr/include/c++/7/bits/cpp_type_traits.h ****   // Move iterator type
 396:/usr/include/c++/7/bits/cpp_type_traits.h ****   //
 397:/usr/include/c++/7/bits/cpp_type_traits.h ****   template<typename _Tp>
 398:/usr/include/c++/7/bits/cpp_type_traits.h ****     struct __is_move_iterator
 399:/usr/include/c++/7/bits/cpp_type_traits.h ****     {
 400:/usr/include/c++/7/bits/cpp_type_traits.h ****       enum { __value = 0 };
 401:/usr/include/c++/7/bits/cpp_type_traits.h ****       typedef __false_type __type;
 402:/usr/include/c++/7/bits/cpp_type_traits.h ****     };
 403:/usr/include/c++/7/bits/cpp_type_traits.h **** 
 404:/usr/include/c++/7/bits/cpp_type_traits.h ****   // Fallback implementation of the function in bits/stl_iterator.h used to
 405:/usr/include/c++/7/bits/cpp_type_traits.h ****   // remove the move_iterator wrapper.
 406:/usr/include/c++/7/bits/cpp_type_traits.h ****   template<typename _Iterator>
 407:/usr/include/c++/7/bits/cpp_type_traits.h ****     inline _Iterator
 408:/usr/include/c++/7/bits/cpp_type_traits.h ****     __miter_base(_Iterator __it)
 3432              		.loc 11 408 0
 3433              		.cfi_startproc
 3434 0000 55       		pushq	%rbp
 3435              		.cfi_def_cfa_offset 16
 3436              		.cfi_offset 6, -16
 3437 0001 4889E5   		movq	%rsp, %rbp
 3438              		.cfi_def_cfa_register 6
 3439 0004 48897DF8 		movq	%rdi, -8(%rbp)
 409:/usr/include/c++/7/bits/cpp_type_traits.h ****     { return __it; }
 3440              		.loc 11 409 0
 3441 0008 488B45F8 		movq	-8(%rbp), %rax
 3442 000c 5D       		popq	%rbp
 3443              		.cfi_def_cfa 7, 8
 3444 000d C3       		ret
 3445              		.cfi_endproc
 3446              	.LFE2447:
 3448              		.section	.text._ZSt13__copy_move_aILb1EPdS0_ET1_T0_S2_S1_,"axG",@progbits,_ZSt13__copy_move_aILb1E
 3449              		.weak	_ZSt13__copy_move_aILb1EPdS0_ET1_T0_S2_S1_
 3451              	_ZSt13__copy_move_aILb1EPdS0_ET1_T0_S2_S1_:
 3452              	.LFB2448:
 375:/usr/include/c++/7/bits/stl_algobase.h ****     {
 3453              		.loc 9 375 0
 3454              		.cfi_startproc
 3455 0000 55       		pushq	%rbp
 3456              		.cfi_def_cfa_offset 16
 3457              		.cfi_offset 6, -16
 3458 0001 4889E5   		movq	%rsp, %rbp
 3459              		.cfi_def_cfa_register 6
 3460 0004 4883EC30 		subq	$48, %rsp
 3461 0008 48897DE8 		movq	%rdi, -24(%rbp)
 3462 000c 488975E0 		movq	%rsi, -32(%rbp)
 3463 0010 488955D8 		movq	%rdx, -40(%rbp)
 380:/usr/include/c++/7/bits/stl_algobase.h **** 	                     && __is_pointer<_II>::__value
 3464              		.loc 9 380 0
 3465 0014 C645FF01 		movb	$1, -1(%rbp)
 386:/usr/include/c++/7/bits/stl_algobase.h ****     }
 3466              		.loc 9 386 0
 3467 0018 488B55D8 		movq	-40(%rbp), %rdx
 3468 001c 488B4DE0 		movq	-32(%rbp), %rcx
 3469 0020 488B45E8 		movq	-24(%rbp), %rax
 3470 0024 4889CE   		movq	%rcx, %rsi
 3471 0027 4889C7   		movq	%rax, %rdi
 3472 002a E8000000 		call	_ZNSt11__copy_moveILb1ELb1ESt26random_access_iterator_tagE8__copy_mIdEEPT_PKS3_S6_S4_
 3472      00
 387:/usr/include/c++/7/bits/stl_algobase.h **** 
 3473              		.loc 9 387 0
 3474 002f C9       		leave
 3475              		.cfi_def_cfa 7, 8
 3476 0030 C3       		ret
 3477              		.cfi_endproc
 3478              	.LFE2448:
 3480              		.section	.text._ZNSt11__copy_moveILb1ELb1ESt26random_access_iterator_tagE8__copy_mIdEEPT_PKS3_S6_S
 3481              		.weak	_ZNSt11__copy_moveILb1ELb1ESt26random_access_iterator_tagE8__copy_mIdEEPT_PKS3_S6_S4_
 3483              	_ZNSt11__copy_moveILb1ELb1ESt26random_access_iterator_tagE8__copy_mIdEEPT_PKS3_S6_S4_:
 3484              	.LFB2449:
 357:/usr/include/c++/7/bits/stl_algobase.h ****         {
 3485              		.loc 9 357 0
 3486              		.cfi_startproc
 3487 0000 55       		pushq	%rbp
 3488              		.cfi_def_cfa_offset 16
 3489              		.cfi_offset 6, -16
 3490 0001 4889E5   		movq	%rsp, %rbp
 3491              		.cfi_def_cfa_register 6
 3492 0004 4883EC30 		subq	$48, %rsp
 3493 0008 48897DE8 		movq	%rdi, -24(%rbp)
 3494 000c 488975E0 		movq	%rsi, -32(%rbp)
 3495 0010 488955D8 		movq	%rdx, -40(%rbp)
 366:/usr/include/c++/7/bits/stl_algobase.h **** 	  if (_Num)
 3496              		.loc 9 366 0
 3497 0014 488B55E0 		movq	-32(%rbp), %rdx
 3498 0018 488B45E8 		movq	-24(%rbp), %rax
 3499 001c 4829C2   		subq	%rax, %rdx
 3500 001f 4889D0   		movq	%rdx, %rax
 3501 0022 48C1F803 		sarq	$3, %rax
 3502 0026 488945F8 		movq	%rax, -8(%rbp)
 367:/usr/include/c++/7/bits/stl_algobase.h **** 	    __builtin_memmove(__result, __first, sizeof(_Tp) * _Num);
 3503              		.loc 9 367 0
 3504 002a 48837DF8 		cmpq	$0, -8(%rbp)
 3504      00
 3505 002f 741F     		je	.L177
 368:/usr/include/c++/7/bits/stl_algobase.h **** 	  return __result + _Num;
 3506              		.loc 9 368 0
 3507 0031 488B45F8 		movq	-8(%rbp), %rax
 3508 0035 488D14C5 		leaq	0(,%rax,8), %rdx
 3508      00000000 
 3509 003d 488B4DE8 		movq	-24(%rbp), %rcx
 3510 0041 488B45D8 		movq	-40(%rbp), %rax
 3511 0045 4889CE   		movq	%rcx, %rsi
 3512 0048 4889C7   		movq	%rax, %rdi
 3513 004b E8000000 		call	memmove@PLT
 3513      00
 3514              	.L177:
 369:/usr/include/c++/7/bits/stl_algobase.h **** 	}
 3515              		.loc 9 369 0
 3516 0050 488B45F8 		movq	-8(%rbp), %rax
 3517 0054 488D14C5 		leaq	0(,%rax,8), %rdx
 3517      00000000 
 3518 005c 488B45D8 		movq	-40(%rbp), %rax
 3519 0060 4801D0   		addq	%rdx, %rax
 370:/usr/include/c++/7/bits/stl_algobase.h ****     };
 3520              		.loc 9 370 0
 3521 0063 C9       		leave
 3522              		.cfi_def_cfa 7, 8
 3523 0064 C3       		ret
 3524              		.cfi_endproc
 3525              	.LFE2449:
 3527              		.text
 3529              	_Z41__static_initialization_and_destruction_0ii:
 3530              	.LFB2450:
 3531              		.loc 1 219 0
 3532              		.cfi_startproc
 3533 097f 55       		pushq	%rbp
 3534              		.cfi_def_cfa_offset 16
 3535              		.cfi_offset 6, -16
 3536 0980 4889E5   		movq	%rsp, %rbp
 3537              		.cfi_def_cfa_register 6
 3538 0983 4883EC10 		subq	$16, %rsp
 3539 0987 897DFC   		movl	%edi, -4(%rbp)
 3540 098a 8975F8   		movl	%esi, -8(%rbp)
 3541              		.loc 1 219 0
 3542 098d 837DFC01 		cmpl	$1, -4(%rbp)
 3543 0991 7532     		jne	.L181
 3544              		.loc 1 219 0 is_stmt 0 discriminator 1
 3545 0993 817DF8FF 		cmpl	$65535, -8(%rbp)
 3545      FF0000
 3546 099a 7529     		jne	.L181
 3547              		.file 12 "/usr/include/c++/7/iostream"
   1:/usr/include/c++/7/iostream **** // Standard iostream objects -*- C++ -*-
   2:/usr/include/c++/7/iostream **** 
   3:/usr/include/c++/7/iostream **** // Copyright (C) 1997-2017 Free Software Foundation, Inc.
   4:/usr/include/c++/7/iostream **** //
   5:/usr/include/c++/7/iostream **** // This file is part of the GNU ISO C++ Library.  This library is free
   6:/usr/include/c++/7/iostream **** // software; you can redistribute it and/or modify it under the
   7:/usr/include/c++/7/iostream **** // terms of the GNU General Public License as published by the
   8:/usr/include/c++/7/iostream **** // Free Software Foundation; either version 3, or (at your option)
   9:/usr/include/c++/7/iostream **** // any later version.
  10:/usr/include/c++/7/iostream **** 
  11:/usr/include/c++/7/iostream **** // This library is distributed in the hope that it will be useful,
  12:/usr/include/c++/7/iostream **** // but WITHOUT ANY WARRANTY; without even the implied warranty of
  13:/usr/include/c++/7/iostream **** // MERCHANTABILITY or FITNESS FOR A PARTICULAR PURPOSE.  See the
  14:/usr/include/c++/7/iostream **** // GNU General Public License for more details.
  15:/usr/include/c++/7/iostream **** 
  16:/usr/include/c++/7/iostream **** // Under Section 7 of GPL version 3, you are granted additional
  17:/usr/include/c++/7/iostream **** // permissions described in the GCC Runtime Library Exception, version
  18:/usr/include/c++/7/iostream **** // 3.1, as published by the Free Software Foundation.
  19:/usr/include/c++/7/iostream **** 
  20:/usr/include/c++/7/iostream **** // You should have received a copy of the GNU General Public License and
  21:/usr/include/c++/7/iostream **** // a copy of the GCC Runtime Library Exception along with this program;
  22:/usr/include/c++/7/iostream **** // see the files COPYING3 and COPYING.RUNTIME respectively.  If not, see
  23:/usr/include/c++/7/iostream **** // <http://www.gnu.org/licenses/>.
  24:/usr/include/c++/7/iostream **** 
  25:/usr/include/c++/7/iostream **** /** @file include/iostream
  26:/usr/include/c++/7/iostream ****  *  This is a Standard C++ Library header.
  27:/usr/include/c++/7/iostream ****  */
  28:/usr/include/c++/7/iostream **** 
  29:/usr/include/c++/7/iostream **** //
  30:/usr/include/c++/7/iostream **** // ISO C++ 14882: 27.3  Standard iostream objects
  31:/usr/include/c++/7/iostream **** //
  32:/usr/include/c++/7/iostream **** 
  33:/usr/include/c++/7/iostream **** #ifndef _GLIBCXX_IOSTREAM
  34:/usr/include/c++/7/iostream **** #define _GLIBCXX_IOSTREAM 1
  35:/usr/include/c++/7/iostream **** 
  36:/usr/include/c++/7/iostream **** #pragma GCC system_header
  37:/usr/include/c++/7/iostream **** 
  38:/usr/include/c++/7/iostream **** #include <bits/c++config.h>
  39:/usr/include/c++/7/iostream **** #include <ostream>
  40:/usr/include/c++/7/iostream **** #include <istream>
  41:/usr/include/c++/7/iostream **** 
  42:/usr/include/c++/7/iostream **** namespace std _GLIBCXX_VISIBILITY(default)
  43:/usr/include/c++/7/iostream **** {
  44:/usr/include/c++/7/iostream **** _GLIBCXX_BEGIN_NAMESPACE_VERSION
  45:/usr/include/c++/7/iostream **** 
  46:/usr/include/c++/7/iostream ****   /**
  47:/usr/include/c++/7/iostream ****    *  @name Standard Stream Objects
  48:/usr/include/c++/7/iostream ****    *
  49:/usr/include/c++/7/iostream ****    *  The &lt;iostream&gt; header declares the eight <em>standard stream
  50:/usr/include/c++/7/iostream ****    *  objects</em>.  For other declarations, see
  51:/usr/include/c++/7/iostream ****    *  http://gcc.gnu.org/onlinedocs/libstdc++/manual/io.html
  52:/usr/include/c++/7/iostream ****    *  and the @link iosfwd I/O forward declarations @endlink
  53:/usr/include/c++/7/iostream ****    *
  54:/usr/include/c++/7/iostream ****    *  They are required by default to cooperate with the global C
  55:/usr/include/c++/7/iostream ****    *  library's @c FILE streams, and to be available during program
  56:/usr/include/c++/7/iostream ****    *  startup and termination. For more information, see the section of the
  57:/usr/include/c++/7/iostream ****    *  manual linked to above.
  58:/usr/include/c++/7/iostream ****   */
  59:/usr/include/c++/7/iostream ****   //@{
  60:/usr/include/c++/7/iostream ****   extern istream cin;		/// Linked to standard input
  61:/usr/include/c++/7/iostream ****   extern ostream cout;		/// Linked to standard output
  62:/usr/include/c++/7/iostream ****   extern ostream cerr;		/// Linked to standard error (unbuffered)
  63:/usr/include/c++/7/iostream ****   extern ostream clog;		/// Linked to standard error (buffered)
  64:/usr/include/c++/7/iostream **** 
  65:/usr/include/c++/7/iostream **** #ifdef _GLIBCXX_USE_WCHAR_T
  66:/usr/include/c++/7/iostream ****   extern wistream wcin;		/// Linked to standard input
  67:/usr/include/c++/7/iostream ****   extern wostream wcout;	/// Linked to standard output
  68:/usr/include/c++/7/iostream ****   extern wostream wcerr;	/// Linked to standard error (unbuffered)
  69:/usr/include/c++/7/iostream ****   extern wostream wclog;	/// Linked to standard error (buffered)
  70:/usr/include/c++/7/iostream **** #endif
  71:/usr/include/c++/7/iostream ****   //@}
  72:/usr/include/c++/7/iostream **** 
  73:/usr/include/c++/7/iostream ****   // For construction of filebuffers for cout, cin, cerr, clog et. al.
  74:/usr/include/c++/7/iostream ****   static ios_base::Init __ioinit;
 3548              		.loc 12 74 0 is_stmt 1
 3549 099c 488D3D00 		leaq	_ZStL8__ioinit(%rip), %rdi
 3549      000000
 3550 09a3 E8000000 		call	_ZNSt8ios_base4InitC1Ev@PLT
 3550      00
 3551 09a8 488D1500 		leaq	__dso_handle(%rip), %rdx
 3551      000000
 3552 09af 488D3500 		leaq	_ZStL8__ioinit(%rip), %rsi
 3552      000000
 3553 09b6 488B0500 		movq	_ZNSt8ios_base4InitD1Ev@GOTPCREL(%rip), %rax
 3553      000000
 3554 09bd 4889C7   		movq	%rax, %rdi
 3555 09c0 E8000000 		call	__cxa_atexit@PLT
 3555      00
 3556              	.L181:
 3557              		.loc 1 219 0
 3558 09c5 90       		nop
 3559 09c6 C9       		leave
 3560              		.cfi_def_cfa 7, 8
 3561 09c7 C3       		ret
 3562              		.cfi_endproc
 3563              	.LFE2450:
 3566              	_GLOBAL__sub_I__ZN9RowVectorC2EjPKdNSt7__cxx1112basic_stringIcSt11char_traitsIcESaIcEEE:
 3567              	.LFB2451:
 3568              		.loc 1 219 0
 3569              		.cfi_startproc
 3570 09c8 55       		pushq	%rbp
 3571              		.cfi_def_cfa_offset 16
 3572              		.cfi_offset 6, -16
 3573 09c9 4889E5   		movq	%rsp, %rbp
 3574              		.cfi_def_cfa_register 6
 3575              		.loc 1 219 0
 3576 09cc BEFFFF00 		movl	$65535, %esi
 3576      00
 3577 09d1 BF010000 		movl	$1, %edi
 3577      00
 3578 09d6 E8A4FFFF 		call	_Z41__static_initialization_and_destruction_0ii
 3578      FF
 3579 09db 5D       		popq	%rbp
 3580              		.cfi_def_cfa 7, 8
 3581 09dc C3       		ret
 3582              		.cfi_endproc
 3583              	.LFE2451:
 3585              		.section	.init_array,"aw"
 3586              		.align 8
 3587 0000 00000000 		.quad	_GLOBAL__sub_I__ZN9RowVectorC2EjPKdNSt7__cxx1112basic_stringIcSt11char_traitsIcESaIcEEE
 3587      00000000 
 3588              		.section	.rodata
 3589 01c8 00000000 		.align 32
 3589      00000000 
 3589      00000000 
 3589      00000000 
 3589      00000000 
 3592              	_ZZN9RowVectorplERKS_E19__PRETTY_FUNCTION__:
 3593 01e0 526F7756 		.string	"RowVector RowVector::operator+(const RowVector&)"
 3593      6563746F 
 3593      7220526F 
 3593      77566563 
 3593      746F723A 
 3594 0211 00000000 		.align 32
 3594      00000000 
 3594      00000000 
 3594      000000
 3597              	_ZZN9RowVectormlERKS_E19__PRETTY_FUNCTION__:
 3598 0220 636F6E73 		.string	"const double RowVector::operator*(const RowVector&)"
 3598      7420646F 
 3598      75626C65 
 3598      20526F77 
 3598      56656374 
 3599 0254 00000000 		.align 8
 3600              	.LC13:
 3601 0258 00000000 		.long	0
 3602 025c 0000F03F 		.long	1072693248
 3603              		.align 8
 3604              	.LC14:
 3605 0260 00000000 		.long	0
 3606 0264 00000040 		.long	1073741824
 3607              		.align 8
 3608              	.LC19:
 3609 0268 00000000 		.long	0
 3610 026c 0000E03F 		.long	1071644672
 3611              		.align 8
 3612              	.LC23:
 3613 0270 00000000 		.long	0
 3614 0274 0000F0BF 		.long	-1074790400
 3615              		.text
 3616              	.Letext0:
 3617              		.file 13 "/usr/include/c++/7/bits/basic_string.h"
 3618              		.file 14 "/usr/include/c++/7/bits/basic_string.tcc"
 3619              		.file 15 "/usr/include/c++/7/bits/stringfwd.h"
 3620              		.file 16 "/usr/include/c++/7/cstdint"
 3621              		.file 17 "/usr/include/c++/7/new"
 3622              		.file 18 "/usr/include/x86_64-linux-gnu/c++/7/bits/c++config.h"
 3623              		.file 19 "/usr/include/c++/7/bits/exception_ptr.h"
 3624              		.file 20 "/usr/include/c++/7/type_traits"
 3625              		.file 21 "/usr/include/c++/7/cwchar"
 3626              		.file 22 "/usr/include/c++/7/bits/stl_pair.h"
 3627              		.file 23 "/usr/include/c++/7/bits/stl_iterator_base_types.h"
 3628              		.file 24 "/usr/include/c++/7/debug/debug.h"
 3629              		.file 25 "/usr/include/c++/7/bits/char_traits.h"
 3630              		.file 26 "/usr/include/c++/7/clocale"
 3631              		.file 27 "/usr/include/c++/7/cstdlib"
 3632              		.file 28 "/usr/include/c++/7/cstdio"
 3633              		.file 29 "/usr/include/c++/7/initializer_list"
 3634              		.file 30 "/usr/include/c++/7/system_error"
 3635              		.file 31 "/usr/include/c++/7/bits/ios_base.h"
 3636              		.file 32 "/usr/include/c++/7/cwctype"
 3637              		.file 33 "/usr/include/c++/7/iosfwd"
 3638              		.file 34 "/usr/include/c++/7/bits/stl_iterator_base_funcs.h"
 3639              		.file 35 "/usr/include/c++/7/bits/move.h"
 3640              		.file 36 "/usr/include/c++/7/bits/predefined_ops.h"
 3641              		.file 37 "/usr/include/c++/7/ext/numeric_traits.h"
 3642              		.file 38 "/usr/include/c++/7/ext/alloc_traits.h"
 3643              		.file 39 "/usr/include/c++/7/ext/type_traits.h"
 3644              		.file 40 "/usr/include/x86_64-linux-gnu/bits/types.h"
 3645              		.file 41 "/usr/include/x86_64-linux-gnu/bits/stdint-intn.h"
 3646              		.file 42 "/usr/include/x86_64-linux-gnu/bits/stdint-uintn.h"
 3647              		.file 43 "/usr/include/stdint.h"
 3648              		.file 44 "/usr/lib/gcc/x86_64-linux-gnu/7/include/stddef.h"
 3649              		.file 45 "<built-in>"
 3650              		.file 46 "/usr/include/x86_64-linux-gnu/bits/types/wint_t.h"
 3651              		.file 47 "/usr/include/x86_64-linux-gnu/bits/types/__mbstate_t.h"
 3652              		.file 48 "/usr/include/x86_64-linux-gnu/bits/types/mbstate_t.h"
 3653              		.file 49 "/usr/include/x86_64-linux-gnu/bits/types/__FILE.h"
 3654              		.file 50 "/usr/include/x86_64-linux-gnu/bits/libio.h"
 3655              		.file 51 "/usr/include/x86_64-linux-gnu/bits/types/FILE.h"
 3656              		.file 52 "/usr/include/wchar.h"
 3657              		.file 53 "/usr/include/x86_64-linux-gnu/bits/types/struct_tm.h"
 3658              		.file 54 "/usr/include/locale.h"
 3659              		.file 55 "/usr/include/time.h"
 3660              		.file 56 "/usr/include/x86_64-linux-gnu/c++/7/bits/atomic_word.h"
 3661              		.file 57 "/usr/include/stdlib.h"
 3662              		.file 58 "/usr/include/x86_64-linux-gnu/bits/_G_config.h"
 3663              		.file 59 "/usr/include/stdio.h"
 3664              		.file 60 "/usr/include/x86_64-linux-gnu/bits/sys_errlist.h"
 3665              		.file 61 "/usr/include/errno.h"
 3666              		.file 62 "/usr/include/x86_64-linux-gnu/bits/wctype-wchar.h"
 3667              		.file 63 "/usr/include/wctype.h"
 23029              		.align 8
 23032              	DW.ref.__gxx_personality_v0:
 23033 0000 00000000 		.quad	__gxx_personality_v0
 23033      00000000 
 23034              		.hidden	__dso_handle
 23035              		.ident	"GCC: (Ubuntu 7.3.0-16ubuntu3) 7.3.0"
 23036              		.section	.note.GNU-stack,"",@progbits
